 ffi_bindings

 Timestamp is 596ef7e2 (Wed Jul 19 14:10:42 2017)

 Preferred load address is 0000000180000000

 Start         Length     Name                   Class
 0001:00000000 00000080H .text$di                CODE
 0001:00000080 00019940H .text$mn                CODE
 0001:000199c0 00000020H .text$mn$00             CODE
 0001:000199e0 00000240H .text$x                 CODE
 0001:00019c20 0000003dH .text$yd                CODE
 0002:00000000 00000458H .idata$5                DATA
 0002:00000458 00000010H .00cfg                  DATA
 0002:00000468 00000008H .CRT$XCA                DATA
 0002:00000470 00000010H .CRT$XCU                DATA
 0002:00000480 00000008H .CRT$XCZ                DATA
 0002:00000488 00000008H .CRT$XIA                DATA
 0002:00000490 00000018H .CRT$XIC                DATA
 0002:000004a8 00000008H .CRT$XIZ                DATA
 0002:000004b0 00000008H .CRT$XPA                DATA
 0002:000004b8 00000010H .CRT$XPX                DATA
 0002:000004c8 00000008H .CRT$XPXA               DATA
 0002:000004d0 00000008H .CRT$XPZ                DATA
 0002:000004d8 00000008H .CRT$XTA                DATA
 0002:000004e0 00000010H .CRT$XTZ                DATA
 0002:000004e8 00000000H .gfids$y                DATA
 0002:000004f0 00008770H .rdata                  DATA
 0002:00008c60 000002fcH .rdata$r                DATA
 0002:00008f5c 00000384H .rdata$zzzdbg           DATA
 0002:000092e0 00000008H .rtc$IAA                DATA
 0002:000092e8 00000008H .rtc$IZZ                DATA
 0002:000092f0 00000008H .rtc$TAA                DATA
 0002:000092f8 00000008H .rtc$TZZ                DATA
 0002:00009300 00001508H .xdata                  DATA
 0002:0000a808 00000188H .xdata$x                DATA
 0002:0000a990 0000005cH .edata                  DATA
 0002:0000a9ec 00000028H .idata$2                DATA
 0002:0000aa14 00000014H .idata$3                DATA
 0002:0000aa28 00000458H .idata$4                DATA
 0002:0000ae80 000012b4H .idata$6                DATA
 0003:00000000 00000960H .data                   DATA
 0003:00000960 000000f0H .data$r                 DATA
 0003:00000a50 00001718H .bss                    DATA
 0004:00000000 00001788H .pdata                  DATA
 0005:00000000 00000060H .rsrc$01                DATA
 0005:00000060 00000180H .rsrc$02                DATA

  Address         Publics by Value              Rva+Base               Lib:Object

 0000:00000000       __guard_iat_table          0000000000000000     <absolute>
 0000:00000000       __dynamic_value_reloc_table 0000000000000000     <absolute>
 0000:00000000       __guard_iat_count          0000000000000000     <absolute>
 0000:00000000       __guard_longjmp_table      0000000000000000     <absolute>
 0000:00000000       __guard_longjmp_count      0000000000000000     <absolute>
 0000:00000000       __guard_fids_count         0000000000000000     <absolute>
 0000:00000000       ___safe_se_handler_table   0000000000000000     <absolute>
 0000:00000000       ___safe_se_handler_count   0000000000000000     <absolute>
 0000:00000000       __guard_fids_table         0000000000000000     <absolute>
 0000:00000100       __guard_flags              0000000000000100     <absolute>
 0000:00000000       __ImageBase                0000000180000000     <linker-defined>
 0001:00000150       ??$To@VUint32@v8@@@imp@Nan@@YA?AV?$Local@VUint32@v8@@@v8@@V?$Local@VInteger@v8@@@3@@Z 0000000180001150 f i ffi.obj
 0001:000001e0       ?New@?$Factory@VFunctionTemplate@v8@@@imp@Nan@@SA?AV?$Local@VFunctionTemplate@v8@@@v8@@P6AXAEBV?$FunctionCallbackInfo@VValue@v8@@@3@@ZV?$Local@VValue@v8@@@5@V?$Local@VSignature@v8@@@5@@Z 00000001800011e0 f i ffi.obj
 0001:00000390       ?ThrowError@Nan@@YAXPEBD@Z 0000000180001390 f i ffi.obj
 0001:00000420       ?Call@Callback@Nan@@QEBA?AV?$Local@VValue@v8@@@v8@@HQEAV34@@Z 0000000180001420 f i ffi.obj
 0001:00000520       ?WrapPointer@@YA?AV?$Local@VValue@v8@@@v8@@PEAD_K@Z 0000000180001520 f i ffi.obj
 0001:000005e0       ?WrapPointer@@YA?AV?$Local@VValue@v8@@@v8@@PEAD@Z 00000001800015e0 f i ffi.obj
 0001:00000670       _guard_check_icall_nop     0000000180001670 f   LIBCMT:guard_support.obj
 0001:00000670       ?wrap_pointer_cb@@YAXPEADPEAX@Z 0000000180001670 f   ffi.obj
 0001:00000670       ??1?$_Compressed_pair@U?$_Wrap_alloc@V?$allocator@PEAVThreadedCallbackInvokation@@@std@@@std@@V?$_Deque_val@U?$_Deque_simple_types@PEAVThreadedCallbackInvokation@@@std@@@2@$00@std@@QEAA@XZ 0000000180001670 f   callback_info.obj
 0001:00000670       ?_Orphan_all@?$_Deque_alloc@U?$_Deque_base_types@PEAVThreadedCallbackInvokation@@V?$allocator@PEAVThreadedCallbackInvokation@@@std@@@std@@@std@@QEAAXXZ 0000000180001670 f   callback_info.obj
 0001:00000670       ??$destroy@U_Container_proxy@std@@@?$_Wrap_alloc@V?$allocator@U_Container_proxy@std@@@std@@@std@@QEAAXPEAU_Container_proxy@1@@Z 0000000180001670 f   callback_info.obj
 0001:00000680       ?node_ffi_errno@@YAHXZ     0000000180001680 f   ffi.obj
 0001:00000690       ?InitializeStaticFunctions@FFI@@SAXV?$Local@VObject@v8@@@v8@@@Z 0000000180001690 f   ffi.obj
 0001:00000a60       ?InitializeBindings@FFI@@SAXV?$Local@VObject@v8@@@v8@@@Z 0000000180001a60 f   ffi.obj
 0001:00002510       ?FFIPrepCif@FFI@@KAXAEBV?$FunctionCallbackInfo@VValue@v8@@@Nan@@@Z 0000000180003510 f   ffi.obj
 0001:000027a0       ?FFIPrepCifVar@FFI@@KAXAEBV?$FunctionCallbackInfo@VValue@v8@@@Nan@@@Z 00000001800037a0 f   ffi.obj
 0001:00002ab0       ?FFICall@FFI@@KAXAEBV?$FunctionCallbackInfo@VValue@v8@@@Nan@@@Z 0000000180003ab0 f   ffi.obj
 0001:00002c80       ?FFICallAsync@FFI@@KAXAEBV?$FunctionCallbackInfo@VValue@v8@@@Nan@@@Z 0000000180003c80 f   ffi.obj
 0001:00002ef0       ?AsyncFFICall@FFI@@KAXPEAUuv_work_s@@@Z 0000000180003ef0 f   ffi.obj
 0001:00002f10       ?FinishAsyncFFICall@FFI@@KAXPEAUuv_work_s@@@Z 0000000180003f10 f   ffi.obj
 0001:00003120       ?init@@YAXV?$Local@VObject@v8@@@v8@@@Z 0000000180004120 f   ffi.obj
 0001:00003180       ?closure_pointer_cb@@YAXPEADPEAX@Z 0000000180004180 f   callback_info.obj
 0001:000031e0       ?DispatchToV8@CallbackInfo@@KAXPEAU_callback_info@@PEAXPEAPEAX_N@Z 00000001800041e0 f   callback_info.obj
 0001:00003420       ?WatcherCallback@CallbackInfo@@SAXPEAUuv_async_s@@H@Z 0000000180004420 f   callback_info.obj
 0001:00003510       ?Callback@CallbackInfo@@KAXAEBV?$FunctionCallbackInfo@VValue@v8@@@Nan@@@Z 0000000180004510 f   callback_info.obj
 0001:00003820       ?Invoke@CallbackInfo@@KAXPEAUffi_cif@@PEAXPEAPEAX1@Z 0000000180004820 f   callback_info.obj
 0001:00003940       ?Initialize@CallbackInfo@@SAXV?$Local@VObject@v8@@@v8@@@Z 0000000180004940 f   callback_info.obj
 0001:00003a80       ?_Tidy@?$deque@PEAVThreadedCallbackInvokation@@V?$allocator@PEAVThreadedCallbackInvokation@@@std@@@std@@IEAAXXZ 0000000180004a80 f i callback_info.obj
 0001:00003b70       ?push_back@?$deque@PEAVThreadedCallbackInvokation@@V?$allocator@PEAVThreadedCallbackInvokation@@@std@@@std@@QEAAXAEBQEAVThreadedCallbackInvokation@@@Z 0000000180004b70 f i callback_info.obj
 0001:00003c70       ?_Growmap@?$deque@PEAVThreadedCallbackInvokation@@V?$allocator@PEAVThreadedCallbackInvokation@@@std@@@std@@IEAAX_K@Z 0000000180004c70 f i callback_info.obj
 0001:00003e90       ?_Xlen@?$deque@PEAVThreadedCallbackInvokation@@V?$allocator@PEAVThreadedCallbackInvokation@@@std@@@std@@IEBAXXZ 0000000180004e90 f i callback_info.obj
 0001:00003eb0       ??$?0AEAU?$_Wrap_alloc@V?$allocator@PEAVThreadedCallbackInvokation@@@std@@@std@@@?$_Wrap_alloc@V?$allocator@U_Container_proxy@std@@@std@@@std@@QEAA@AEAU?$_Wrap_alloc@V?$allocator@PEAVThreadedCallbackInvokation@@@std@@@1@@Z 0000000180004eb0 f i callback_info.obj
 0001:00003ec0       ??0?$_Wrap_alloc@V?$allocator@PEAVThreadedCallbackInvokation@@@std@@@std@@QEAA@XZ 0000000180004ec0 f i callback_info.obj
 0001:00003ed0       __local_stdio_printf_options 0000000180004ed0 f i win32-dlfcn.obj
 0001:00003ee0       sprintf                    0000000180004ee0 f i win32-dlfcn.obj
 0001:00004010       dlopen                     0000000180005010 f   win32-dlfcn.obj
 0001:000040b0       dlclose                    00000001800050b0 f   win32-dlfcn.obj
 0001:00004100       dlsym                      0000000180005100 f   win32-dlfcn.obj
 0001:00004130       dlerror                    0000000180005130 f   win32-dlfcn.obj
 0001:00004270       ffi_prep_cif               0000000180005270 f   libffi:prep_cif.obj
 0001:00004300       ffi_prep_args              0000000180005300 f   libffi:ffi.obj
 0001:000044b0       ffi_prep_cif_machdep       00000001800054b0 f   libffi:ffi.obj
 0001:000045c0       ffi_call                   00000001800055c0 f   libffi:ffi.obj
 0001:00004680       ffi_closure_win64_inner    0000000180005680 f   libffi:ffi.obj
 0001:000047c0       ffi_prep_closure_loc       00000001800057c0 f   libffi:ffi.obj
 0001:00006810       ffi_closure_win64          0000000180007810 f   libffi:win64.obj
 0001:0000688c       ffi_call_win64             000000018000788c f   libffi:win64.obj
 0001:000069e0       ??0bad_alloc@std@@QEAA@AEBV01@@Z 00000001800079e0 f i libcpmt:xthrow.obj
 0001:00006a20       ??0bad_alloc@std@@QEAA@XZ  0000000180007a20 f i libcpmt:xthrow.obj
 0001:00006a40       ??0exception@std@@QEAA@AEBV01@@Z 0000000180007a40 f i libcpmt:xthrow.obj
 0001:00006a78       ??0length_error@std@@QEAA@AEBV01@@Z 0000000180007a78 f i libcpmt:xthrow.obj
 0001:00006ab8       ??0length_error@std@@QEAA@PEBD@Z 0000000180007ab8 f i libcpmt:xthrow.obj
 0001:00006b04       ??0logic_error@std@@QEAA@AEBV01@@Z 0000000180007b04 f i libcpmt:xthrow.obj
 0001:00006b44       ??1length_error@std@@UEAA@XZ 0000000180007b44 f i libcpmt:xthrow.obj
 0001:00006b44       ??1bad_array_new_length@std@@UEAA@XZ 0000000180007b44 f i LIBCMT:throw_bad_alloc.obj
 0001:00006b44       ??1bad_alloc@std@@UEAA@XZ  0000000180007b44 f i libcpmt:xthrow.obj
 0001:00006b58       ?_Xlength_error@std@@YAXPEBD@Z 0000000180007b58 f   libcpmt:xthrow.obj
 0001:00006b7c       ?what@exception@std@@UEBAPEBDXZ 0000000180007b7c f i libcpmt:xthrow.obj
 0001:00006ba0       __security_check_cookie    0000000180007ba0 f   LIBCMT:_amdsecgs_.obj
 0001:00006bc4       ??2@YAPEAX_K@Z             0000000180007bc4 f   LIBCMT:new_scalar.obj
 0001:00006c00       ??3@YAXPEAX_K@Z            0000000180007c00 f   LIBCMT:delete_scalar_size.obj
 0001:00006c08       __scrt_acquire_startup_lock 0000000180007c08 f   LIBCMT:utility.obj
 0001:00006c44       __scrt_dllmain_after_initialize_c 0000000180007c44 f   LIBCMT:utility.obj
 0001:00006c78       __scrt_dllmain_before_initialize_c 0000000180007c78 f   LIBCMT:utility.obj
 0001:00006c90       __scrt_dllmain_crt_thread_attach 0000000180007c90 f   LIBCMT:utility.obj
 0001:00006cb8       __scrt_dllmain_crt_thread_detach 0000000180007cb8 f   LIBCMT:utility.obj
 0001:00006cd0       __scrt_dllmain_exception_filter 0000000180007cd0 f   LIBCMT:utility.obj
 0001:00006d34       __scrt_dllmain_uninitialize_c 0000000180007d34 f   LIBCMT:utility.obj
 0001:00006d64       __scrt_dllmain_uninitialize_critical 0000000180007d64 f   LIBCMT:utility.obj
 0001:00006d78       __scrt_initialize_crt      0000000180007d78 f   LIBCMT:utility.obj
 0001:00006dc4       __scrt_initialize_onexit_tables 0000000180007dc4 f   LIBCMT:utility.obj
 0001:00006ea4       __scrt_is_nonwritable_in_current_image 0000000180007ea4 f   LIBCMT:utility.obj
 0001:00006f40       __scrt_release_startup_lock 0000000180007f40 f   LIBCMT:utility.obj
 0001:00006f64       __scrt_uninitialize_crt    0000000180007f64 f   LIBCMT:utility.obj
 0001:00006f90       _onexit                    0000000180007f90 f   LIBCMT:utility.obj
 0001:00006fe0       atexit                     0000000180007fe0 f   LIBCMT:utility.obj
 0001:00006ff8       ??3@YAXPEAX@Z              0000000180007ff8 f   LIBCMT:delete_scalar.obj
 0001:0000733c       _DllMainCRTStartup         000000018000833c f   LIBCMT:dll_dllmain.obj
 0001:00007390       _alloca_probe              0000000180008390 f   LIBCMT:_chkstk_.obj
 0001:00007390       __chkstk                   0000000180008390 f   LIBCMT:_chkstk_.obj
 0001:000073e4       ??_Gtype_info@@UEAAPEAXI@Z 00000001800083e4 f i LIBCMT:std_type_info_static.obj
 0001:000073e4       ??_Etype_info@@UEAAPEAXI@Z 00000001800083e4 f i LIBCMT:std_type_info_static.obj
 0001:00007410       __raise_securityfailure    0000000180008410 f   LIBCMT:gs_report.obj
 0001:00007444       __report_gsfailure         0000000180008444 f   LIBCMT:gs_report.obj
 0001:00007518       __report_rangecheckfailure 0000000180008518 f   LIBCMT:gs_report.obj
 0001:0000752c       __report_securityfailure   000000018000852c f   LIBCMT:gs_report.obj
 0001:000076ac       ??0bad_array_new_length@std@@QEAA@AEBV01@@Z 00000001800086ac f i LIBCMT:throw_bad_alloc.obj
 0001:000076ec       ??0bad_array_new_length@std@@QEAA@XZ 00000001800086ec f i LIBCMT:throw_bad_alloc.obj
 0001:0000770c       ??_Eexception@std@@UEAAPEAXI@Z 000000018000870c f i libcpmt:xthrow.obj
 0001:0000770c       ??_Glogic_error@std@@UEAAPEAXI@Z 000000018000870c f i libcpmt:xthrow.obj
 0001:0000770c       ??_Ebad_array_new_length@std@@UEAAPEAXI@Z 000000018000870c f i LIBCMT:throw_bad_alloc.obj
 0001:0000770c       ??_Elength_error@std@@UEAAPEAXI@Z 000000018000870c f i libcpmt:xthrow.obj
 0001:0000770c       ??_Gbad_alloc@std@@UEAAPEAXI@Z 000000018000870c f i libcpmt:xthrow.obj
 0001:0000770c       ??_Ebad_alloc@std@@UEAAPEAXI@Z 000000018000870c f i libcpmt:xthrow.obj
 0001:0000770c       ??_Elogic_error@std@@UEAAPEAXI@Z 000000018000870c f i libcpmt:xthrow.obj
 0001:0000770c       ??_Gexception@std@@UEAAPEAXI@Z 000000018000870c f i libcpmt:xthrow.obj
 0001:0000770c       ??_Glength_error@std@@UEAAPEAXI@Z 000000018000870c f i libcpmt:xthrow.obj
 0001:0000770c       ??_Gbad_array_new_length@std@@UEAAPEAXI@Z 000000018000870c f i LIBCMT:throw_bad_alloc.obj
 0001:00007750       ?__scrt_throw_std_bad_alloc@@YAXXZ 0000000180008750 f   LIBCMT:throw_bad_alloc.obj
 0001:00007750       ?_Xbad_alloc@std@@YAXXZ    0000000180008750 f   libcpmt:xthrow.obj
 0001:00007770       ?__scrt_throw_std_bad_array_new_length@@YAXXZ 0000000180008770 f   LIBCMT:throw_bad_alloc.obj
 0001:00007790       __isa_available_init       0000000180008790 f   LIBCMT:_cpu_disp_.obj
 0001:0000794c       __scrt_is_ucrt_dll_in_use  000000018000894c f   LIBCMT:ucrt_detection.obj
 0001:00007958       __crt_debugger_hook        0000000180008958 f   LIBCMT:utility_desktop.obj
 0001:00007960       __scrt_fastfail            0000000180008960 f   LIBCMT:utility_desktop.obj
 0001:00007aa8       _guard_check_icall         0000000180008aa8 f i LIBCMT:checkcfg.obj
 0001:00007ab0       __security_init_cookie     0000000180008ab0 f   LIBCMT:gs_support.obj
 0001:00007b5c       DllMain                    0000000180008b5c f   LIBCMT:dll_dllmain_stub.obj
 0001:00007b5c       _get_startup_argv_mode     0000000180008b5c f   LIBCMT:argv_mode.obj
 0001:00007b64       ?__scrt_initialize_type_info@@YAXXZ 0000000180008b64 f   LIBCMT:tncleanup.obj
 0001:00007b74       ?__scrt_uninitialize_type_info@@YAXXZ 0000000180008b74 f   LIBCMT:tncleanup.obj
 0001:00007b80       __local_stdio_scanf_options 0000000180008b80 f i LIBCMT:default_local_stdio_options.obj
 0001:00007b88       __scrt_initialize_default_local_stdio_options 0000000180008b88 f   LIBCMT:default_local_stdio_options.obj
 0001:00007ba4       __scrt_get_dyn_tls_init_callback 0000000180008ba4 f   LIBCMT:dyn_tls_init.obj
 0001:00007bac       _RTC_Initialize            0000000180008bac f   LIBCMT:_initsect_.obj
 0001:00007bf8       _RTC_Terminate             0000000180008bf8 f   LIBCMT:_initsect_.obj
 0001:00007c60       memmove                    0000000180008c60 f   libvcruntime:memcpy.obj
 0001:00007c60       memcpy                     0000000180008c60 f   libvcruntime:memcpy.obj
 0001:00008098       __std_exception_copy       0000000180009098 f   libvcruntime:std_exception.obj
 0001:00008128       __std_exception_destroy    0000000180009128 f   libvcruntime:std_exception.obj
 0001:00008150       _CxxThrowException         0000000180009150 f   libvcruntime:throw.obj
 0001:00008228       __vcrt_initialize          0000000180009228 f   libvcruntime:initialization.obj
 0001:0000825c       __vcrt_thread_attach       000000018000925c f   libvcruntime:initialization.obj
 0001:00008270       __vcrt_thread_detach       0000000180009270 f   libvcruntime:initialization.obj
 0001:00008284       __vcrt_uninitialize        0000000180009284 f   libvcruntime:initialization.obj
 0001:000082a4       __vcrt_uninitialize_critical 00000001800092a4 f   libvcruntime:initialization.obj
 0001:000082b4       __C_specific_handler       00000001800092b4 f   libvcruntime:_chandler_.obj
 0001:000084c0       memset                     00000001800094c0 f   libvcruntime:memset.obj
 0001:00008660       __std_type_info_destroy_list 0000000180009660 f   libvcruntime:std_type_info.obj
 0001:0000868c       __vcrt_freefls             000000018000968c f   libvcruntime:per_thread_data.obj
 0001:000086ac       __vcrt_freeptd             00000001800096ac f   libvcruntime:per_thread_data.obj
 0001:000086fc       __vcrt_getptd_noexit       00000001800096fc f   libvcruntime:per_thread_data.obj
 0001:000087b4       __vcrt_initialize_ptd      00000001800097b4 f   libvcruntime:per_thread_data.obj
 0001:000087f4       __vcrt_uninitialize_ptd    00000001800097f4 f   libvcruntime:per_thread_data.obj
 0001:00008818       __vcrt_initialize_locks    0000000180009818 f   libvcruntime:locks.obj
 0001:00008860       __vcrt_uninitialize_locks  0000000180009860 f   libvcruntime:locks.obj
 0001:00008a70       __vcrt_FlsAlloc            0000000180009a70 f   libvcruntime:winapi_downlevel.obj
 0001:00008ac4       __vcrt_FlsFree             0000000180009ac4 f   libvcruntime:winapi_downlevel.obj
 0001:00008b18       __vcrt_FlsGetValue         0000000180009b18 f   libvcruntime:winapi_downlevel.obj
 0001:00008b6c       __vcrt_FlsSetValue         0000000180009b6c f   libvcruntime:winapi_downlevel.obj
 0001:00008bd4       __vcrt_InitializeCriticalSectionEx 0000000180009bd4 f   libvcruntime:winapi_downlevel.obj
 0001:00008c4c       __vcrt_initialize_winapi_thunks 0000000180009c4c f   libvcruntime:winapi_downlevel.obj
 0001:00008c90       __vcrt_uninitialize_winapi_thunks 0000000180009c90 f   libvcruntime:winapi_downlevel.obj
 0001:00008cd0       __vcrt_initialize_pure_virtual_call_handler 0000000180009cd0 f   libvcruntime:purevirt_data.obj
 0001:00008d10       _local_unwind              0000000180009d10 f   libvcruntime:_jmpuwind_.obj
 0001:00008d40       _NLG_Notify                0000000180009d40 f   libvcruntime:_jmpuwind_.obj
 0001:00008d60       __NLG_Dispatch2            0000000180009d60 f   libvcruntime:_jmpuwind_.obj
 0001:00008d70       __NLG_Return2              0000000180009d70 f   libvcruntime:_jmpuwind_.obj
 0001:00008d74       __except_validate_context_record 0000000180009d74 f   libvcruntime:jbcxrval.obj
 0001:00008dac       __acrt_errno_from_os_error 0000000180009dac f   libucrt:errno.obj
 0001:00008df4       __acrt_errno_map_os_error  0000000180009df4 f   libucrt:errno.obj
 0001:00008e44       __doserrno                 0000000180009e44 f   libucrt:errno.obj
 0001:00008e64       _errno                     0000000180009e64 f   libucrt:errno.obj
 0001:00009858       ??$ftprintf@PEAU_iobuf@@PEB_WAEBQEB_WAEBQEB_WAEBI@?$__crt_char_traits@_W@@SAH$$QEAPEAU_iobuf@@$$QEAPEB_WAEBQEB_W2AEBI@Z 000000018000a858 f i libucrt:assert.obj
 0001:00009880       _wassert                   000000018000a880 f   libucrt:assert.obj
 0001:00009904       fwprintf                   000000018000a904 f i libucrt:assert.obj
 0001:00009948       swprintf                   000000018000a948 f i libucrt:assert.obj
 0001:0000999c       __acrt_call_reportfault    000000018000a99c f   libucrt:invalid_parameter.obj
 0001:00009af8       __acrt_initialize_invalid_parameter_handler 000000018000aaf8 f   libucrt:invalid_parameter.obj
 0001:00009b00       _invalid_parameter         000000018000ab00 f   libucrt:invalid_parameter.obj
 0001:00009bb0       _invalid_parameter_noinfo  000000018000abb0 f   libucrt:invalid_parameter.obj
 0001:00009bd0       _invalid_parameter_noinfo_noreturn 000000018000abd0 f   libucrt:invalid_parameter.obj
 0001:00009c00       _invoke_watson             000000018000ac00 f   libucrt:invalid_parameter.obj
 0001:0000a028       ??$ensure_buffer_is_big_enough@D@formatting_buffer@__crt_stdio_output@@QEAA_N_K@Z 000000018000b028 f i libucrt:output.obj
 0001:0000a0d4       ??$is_wide_character_specifier@D@__crt_stdio_output@@YA_N_KDW4length_modifier@0@@Z 000000018000b0d4 f i libucrt:output.obj
 0001:0000a104       ??$is_wide_character_specifier@_W@__crt_stdio_output@@YA_N_K_WW4length_modifier@0@@Z 000000018000b104 f i libucrt:output.obj
 0001:0000a144       ??$type_case_integer_parse_into_buffer@I@?$output_processor@DV?$string_output_adapter@D@__crt_stdio_output@@V?$standard_base@DV?$string_output_adapter@D@__crt_stdio_output@@@2@@__crt_stdio_output@@AEAAXII_N@Z 000000018000b144 f i libucrt:output.obj
 0001:0000a1e0       ??$type_case_integer_parse_into_buffer@I@?$output_processor@_WV?$stream_output_adapter@_W@__crt_stdio_output@@V?$standard_base@_WV?$stream_output_adapter@_W@__crt_stdio_output@@@2@@__crt_stdio_output@@AEAAXII_N@Z 000000018000b1e0 f i libucrt:output.obj
 0001:0000a1e0       ??$type_case_integer_parse_into_buffer@I@?$output_processor@_WV?$string_output_adapter@_W@__crt_stdio_output@@V?$standard_base@_WV?$string_output_adapter@_W@__crt_stdio_output@@@2@@__crt_stdio_output@@AEAAXII_N@Z 000000018000b1e0 f i libucrt:output.obj
 0001:0000a28c       ??$type_case_integer_parse_into_buffer@_K@?$output_processor@DV?$string_output_adapter@D@__crt_stdio_output@@V?$standard_base@DV?$string_output_adapter@D@__crt_stdio_output@@@2@@__crt_stdio_output@@AEAAX_KI_N@Z 000000018000b28c f i libucrt:output.obj
 0001:0000a328       ??$type_case_integer_parse_into_buffer@_K@?$output_processor@_WV?$stream_output_adapter@_W@__crt_stdio_output@@V?$standard_base@_WV?$stream_output_adapter@_W@__crt_stdio_output@@@2@@__crt_stdio_output@@AEAAX_KI_N@Z 000000018000b328 f i libucrt:output.obj
 0001:0000a328       ??$type_case_integer_parse_into_buffer@_K@?$output_processor@_WV?$string_output_adapter@_W@__crt_stdio_output@@V?$standard_base@_WV?$string_output_adapter@_W@__crt_stdio_output@@@2@@__crt_stdio_output@@AEAAX_KI_N@Z 000000018000b328 f i libucrt:output.obj
 0001:0000a3d4       ??$write_multiple_characters@V?$stream_output_adapter@_W@__crt_stdio_output@@D@__crt_stdio_output@@YAXAEBV?$stream_output_adapter@_W@0@DHQEAH@Z 000000018000b3d4 f i libucrt:output.obj
 0001:0000a460       ??$write_multiple_characters@V?$string_output_adapter@D@__crt_stdio_output@@D@__crt_stdio_output@@YAXAEBV?$string_output_adapter@D@0@DHQEAH@Z 000000018000b460 f i libucrt:output.obj
 0001:0000a4bc       ??$write_multiple_characters@V?$string_output_adapter@_W@__crt_stdio_output@@D@__crt_stdio_output@@YAXAEBV?$string_output_adapter@_W@0@DHQEAH@Z 000000018000b4bc f i libucrt:output.obj
 0001:0000a52c       ??0_LocaleUpdate@@QEAA@QEAU__crt_locale_pointers@@@Z 000000018000b52c f i libucrt:output.obj
 0001:0000a6f0       ?force_decimal_point@__crt_stdio_output@@YAXPEADQEAU__crt_locale_pointers@@@Z 000000018000b6f0 f i libucrt:output.obj
 0001:0000a760       ?parse_int_from_format_string@?$output_processor@DV?$string_output_adapter@D@__crt_stdio_output@@V?$standard_base@DV?$string_output_adapter@D@__crt_stdio_output@@@2@@__crt_stdio_output@@AEAA_NQEAH@Z 000000018000b760 f i libucrt:output.obj
 0001:0000a804       ?parse_int_from_format_string@?$output_processor@_WV?$stream_output_adapter@_W@__crt_stdio_output@@V?$standard_base@_WV?$stream_output_adapter@_W@__crt_stdio_output@@@2@@__crt_stdio_output@@AEAA_NQEAH@Z 000000018000b804 f i libucrt:output.obj
 0001:0000a804       ?parse_int_from_format_string@?$output_processor@_WV?$string_output_adapter@_W@__crt_stdio_output@@V?$standard_base@_WV?$string_output_adapter@_W@__crt_stdio_output@@@2@@__crt_stdio_output@@AEAA_NQEAH@Z 000000018000b804 f i libucrt:output.obj
 0001:0000a8a8       ?process@?$output_processor@DV?$string_output_adapter@D@__crt_stdio_output@@V?$standard_base@DV?$string_output_adapter@D@__crt_stdio_output@@@2@@__crt_stdio_output@@QEAAHXZ 000000018000b8a8 f i libucrt:output.obj
 0001:0000aab0       ?process@?$output_processor@_WV?$stream_output_adapter@_W@__crt_stdio_output@@V?$standard_base@_WV?$stream_output_adapter@_W@__crt_stdio_output@@@2@@__crt_stdio_output@@QEAAHXZ 000000018000bab0 f i libucrt:output.obj
 0001:0000ad20       ?process@?$output_processor@_WV?$string_output_adapter@_W@__crt_stdio_output@@V?$standard_base@_WV?$string_output_adapter@_W@__crt_stdio_output@@@2@@__crt_stdio_output@@QEAAHXZ 000000018000bd20 f i libucrt:output.obj
 0001:0000afa0       ?state_case_normal@?$output_processor@DV?$string_output_adapter@D@__crt_stdio_output@@V?$standard_base@DV?$string_output_adapter@D@__crt_stdio_output@@@2@@__crt_stdio_output@@AEAA_NXZ 000000018000bfa0 f i libucrt:output.obj
 0001:0000b014       ?state_case_normal_tchar@?$output_processor@DV?$string_output_adapter@D@__crt_stdio_output@@V?$standard_base@DV?$string_output_adapter@D@__crt_stdio_output@@@2@@__crt_stdio_output@@AEAA_ND@Z 000000018000c014 f i libucrt:output.obj
 0001:0000b0ac       ?state_case_size@?$output_processor@DV?$string_output_adapter@D@__crt_stdio_output@@V?$standard_base@DV?$string_output_adapter@D@__crt_stdio_output@@@2@@__crt_stdio_output@@AEAA_NXZ 000000018000c0ac f i libucrt:output.obj
 0001:0000b228       ?state_case_size@?$output_processor@_WV?$stream_output_adapter@_W@__crt_stdio_output@@V?$standard_base@_WV?$stream_output_adapter@_W@__crt_stdio_output@@@2@@__crt_stdio_output@@AEAA_NXZ 000000018000c228 f i libucrt:output.obj
 0001:0000b3cc       ?state_case_size@?$output_processor@_WV?$string_output_adapter@_W@__crt_stdio_output@@V?$standard_base@_WV?$string_output_adapter@_W@__crt_stdio_output@@@2@@__crt_stdio_output@@AEAA_NXZ 000000018000c3cc f i libucrt:output.obj
 0001:0000b570       ?state_case_type@?$output_processor@DV?$string_output_adapter@D@__crt_stdio_output@@V?$standard_base@DV?$string_output_adapter@D@__crt_stdio_output@@@2@@__crt_stdio_output@@AEAA_NXZ 000000018000c570 f i libucrt:output.obj
 0001:0000b7e8       ?state_case_type@?$output_processor@_WV?$stream_output_adapter@_W@__crt_stdio_output@@V?$standard_base@_WV?$stream_output_adapter@_W@__crt_stdio_output@@@2@@__crt_stdio_output@@AEAA_NXZ 000000018000c7e8 f i libucrt:output.obj
 0001:0000bae4       ?state_case_type@?$output_processor@_WV?$string_output_adapter@_W@__crt_stdio_output@@V?$standard_base@_WV?$string_output_adapter@_W@__crt_stdio_output@@@2@@__crt_stdio_output@@AEAA_NXZ 000000018000cae4 f i libucrt:output.obj
 0001:0000bdd0       ?type_case_Z@?$output_processor@DV?$string_output_adapter@D@__crt_stdio_output@@V?$standard_base@DV?$string_output_adapter@D@__crt_stdio_output@@@2@@__crt_stdio_output@@AEAA_NXZ 000000018000cdd0 f i libucrt:output.obj
 0001:0000be50       ?type_case_Z@?$output_processor@_WV?$string_output_adapter@_W@__crt_stdio_output@@V?$standard_base@_WV?$string_output_adapter@_W@__crt_stdio_output@@@2@@__crt_stdio_output@@AEAA_NXZ 000000018000ce50 f i libucrt:output.obj
 0001:0000be50       ?type_case_Z@?$output_processor@_WV?$stream_output_adapter@_W@__crt_stdio_output@@V?$standard_base@_WV?$stream_output_adapter@_W@__crt_stdio_output@@@2@@__crt_stdio_output@@AEAA_NXZ 000000018000ce50 f i libucrt:output.obj
 0001:0000bed0       ?type_case_a@?$output_processor@DV?$string_output_adapter@D@__crt_stdio_output@@V?$standard_base@DV?$string_output_adapter@D@__crt_stdio_output@@@2@@__crt_stdio_output@@AEAA_NXZ 000000018000ced0 f i libucrt:output.obj
 0001:0000c0f4       ?type_case_a@?$output_processor@_WV?$stream_output_adapter@_W@__crt_stdio_output@@V?$standard_base@_WV?$stream_output_adapter@_W@__crt_stdio_output@@@2@@__crt_stdio_output@@AEAA_NXZ 000000018000d0f4 f i libucrt:output.obj
 0001:0000c0f4       ?type_case_a@?$output_processor@_WV?$string_output_adapter@_W@__crt_stdio_output@@V?$standard_base@_WV?$string_output_adapter@_W@__crt_stdio_output@@@2@@__crt_stdio_output@@AEAA_NXZ 000000018000d0f4 f i libucrt:output.obj
 0001:0000c340       ?type_case_c_tchar@?$output_processor@DV?$string_output_adapter@D@__crt_stdio_output@@V?$standard_base@DV?$string_output_adapter@D@__crt_stdio_output@@@2@@__crt_stdio_output@@AEAA_ND@Z 000000018000d340 f i libucrt:output.obj
 0001:0000c3f4       ?type_case_c_tchar@?$output_processor@_WV?$stream_output_adapter@_W@__crt_stdio_output@@V?$standard_base@_WV?$stream_output_adapter@_W@__crt_stdio_output@@@2@@__crt_stdio_output@@AEAA_N_W@Z 000000018000d3f4 f i libucrt:output.obj
 0001:0000c3f4       ?type_case_c_tchar@?$output_processor@_WV?$string_output_adapter@_W@__crt_stdio_output@@V?$standard_base@_WV?$string_output_adapter@_W@__crt_stdio_output@@@2@@__crt_stdio_output@@AEAA_N_W@Z 000000018000d3f4 f i libucrt:output.obj
 0001:0000c49c       ?type_case_integer@?$output_processor@DV?$string_output_adapter@D@__crt_stdio_output@@V?$standard_base@DV?$string_output_adapter@D@__crt_stdio_output@@@2@@__crt_stdio_output@@AEAA_NI_N@Z 000000018000d49c f i libucrt:output.obj
 0001:0000c640       ?type_case_integer@?$output_processor@_WV?$string_output_adapter@_W@__crt_stdio_output@@V?$standard_base@_WV?$string_output_adapter@_W@__crt_stdio_output@@@2@@__crt_stdio_output@@AEAA_NI_N@Z 000000018000d640 f i libucrt:output.obj
 0001:0000c640       ?type_case_integer@?$output_processor@_WV?$stream_output_adapter@_W@__crt_stdio_output@@V?$standard_base@_WV?$stream_output_adapter@_W@__crt_stdio_output@@@2@@__crt_stdio_output@@AEAA_NI_N@Z 000000018000d640 f i libucrt:output.obj
 0001:0000c7ec       ?type_case_n@?$output_processor@_WV?$string_output_adapter@_W@__crt_stdio_output@@V?$standard_base@_WV?$string_output_adapter@_W@__crt_stdio_output@@@2@@__crt_stdio_output@@AEAA_NXZ 000000018000d7ec f i libucrt:output.obj
 0001:0000c7ec       ?type_case_n@?$output_processor@_WV?$stream_output_adapter@_W@__crt_stdio_output@@V?$standard_base@_WV?$stream_output_adapter@_W@__crt_stdio_output@@@2@@__crt_stdio_output@@AEAA_NXZ 000000018000d7ec f i libucrt:output.obj
 0001:0000c7ec       ?type_case_n@?$output_processor@DV?$string_output_adapter@D@__crt_stdio_output@@V?$standard_base@DV?$string_output_adapter@D@__crt_stdio_output@@@2@@__crt_stdio_output@@AEAA_NXZ 000000018000d7ec f i libucrt:output.obj
 0001:0000c8c8       ?type_case_s@?$output_processor@DV?$string_output_adapter@D@__crt_stdio_output@@V?$standard_base@DV?$string_output_adapter@D@__crt_stdio_output@@@2@@__crt_stdio_output@@AEAA_NXZ 000000018000d8c8 f i libucrt:output.obj
 0001:0000c958       ?type_case_s@?$output_processor@_WV?$stream_output_adapter@_W@__crt_stdio_output@@V?$standard_base@_WV?$stream_output_adapter@_W@__crt_stdio_output@@@2@@__crt_stdio_output@@AEAA_NXZ 000000018000d958 f i libucrt:output.obj
 0001:0000c958       ?type_case_s@?$output_processor@_WV?$string_output_adapter@_W@__crt_stdio_output@@V?$standard_base@_WV?$string_output_adapter@_W@__crt_stdio_output@@@2@@__crt_stdio_output@@AEAA_NXZ 000000018000d958 f i libucrt:output.obj
 0001:0000ca20       ?write_stored_string_tchar@?$output_processor@DV?$string_output_adapter@D@__crt_stdio_output@@V?$standard_base@DV?$string_output_adapter@D@__crt_stdio_output@@@2@@__crt_stdio_output@@AEAA_ND@Z 000000018000da20 f i libucrt:output.obj
 0001:0000caf8       ?write_stored_string_tchar@?$output_processor@_WV?$stream_output_adapter@_W@__crt_stdio_output@@V?$standard_base@_WV?$stream_output_adapter@_W@__crt_stdio_output@@@2@@__crt_stdio_output@@AEAA_N_W@Z 000000018000daf8 f i libucrt:output.obj
 0001:0000cc00       ?write_stored_string_tchar@?$output_processor@_WV?$string_output_adapter@_W@__crt_stdio_output@@V?$standard_base@_WV?$string_output_adapter@_W@__crt_stdio_output@@@2@@__crt_stdio_output@@AEAA_N_W@Z 000000018000dc00 f i libucrt:output.obj
 0001:0000ccf0       ?write_string@?$string_output_adapter@D@__crt_stdio_output@@QEBAXQEBDHQEAHAEAV__crt_deferred_errno_cache@@@Z 000000018000dcf0 f i libucrt:output.obj
 0001:0000cd94       ?write_string@?$string_output_adapter@_W@__crt_stdio_output@@QEBAXQEB_WHQEAHAEAV__crt_deferred_errno_cache@@@Z 000000018000dd94 f i libucrt:output.obj
 0001:0000ce3c       ?write_string_impl@?$output_adapter_common@_WV?$stream_output_adapter@_W@__crt_stdio_output@@@__crt_stdio_output@@IEBAXQEB_WHQEAHAEAV__crt_deferred_errno_cache@@@Z 000000018000de3c f i libucrt:output.obj
 0001:0000cf30       __stdio_common_vfwprintf   000000018000df30 f   libucrt:output.obj
 0001:0000cfbc       __stdio_common_vsprintf    000000018000dfbc f   libucrt:output.obj
 0001:0000cfc4       __stdio_common_vswprintf   000000018000dfc4 f   libucrt:output.obj
 0001:0000cfcc       free                       000000018000dfcc f   libucrt:free.obj
 0001:0000cfe0       malloc                     000000018000dfe0 f   libucrt:malloc.obj
 0001:0000cfe8       abort                      000000018000dfe8 f   libucrt:abort.obj
 0001:0000d040       __acrt_initialize_new_handler 000000018000e040 f   libucrt:new_handler.obj
 0001:0000d048       _callnewh                  000000018000e048 f   libucrt:new_handler.obj
 0001:0000d078       _query_new_handler         000000018000e078 f   libucrt:new_handler.obj
 0001:0000d0ac       _seh_filter_dll            000000018000e0ac f   libucrt:exception_filter.obj
 0001:0000d0c0       _seh_filter_exe            000000018000e0c0 f   libucrt:exception_filter.obj
 0001:0000d4cc       __acrt_initialize_thread_local_exit_callback 000000018000e4cc f   libucrt:exit.obj
 0001:0000d4d4       _cexit                     000000018000e4d4 f   libucrt:exit.obj
 0001:0000d4e4       _exit                      000000018000e4e4 f   libucrt:exit.obj
 0001:0000d4f0       _is_c_termination_complete 000000018000e4f0 f   libucrt:exit.obj
 0001:0000d6b4       __acrt_allocate_buffer_for_argv 000000018000e6b4 f   libucrt:argv_parsing.obj
 0001:0000d714       _configure_narrow_argv     000000018000e714 f   libucrt:argv_parsing.obj
 0001:0000da90       __dcrt_uninitialize_environments_nolock 000000018000ea90 f   libucrt:environment_initialization.obj
 0001:0000dac8       _initialize_narrow_environment 000000018000eac8 f   libucrt:environment_initialization.obj
 0001:0000de58       _crt_atexit                000000018000ee58 f   libucrt:onexit.obj
 0001:0000de68       _execute_onexit_table      000000018000ee68 f   libucrt:onexit.obj
 0001:0000dea4       _initialize_onexit_table   000000018000eea4 f   libucrt:onexit.obj
 0001:0000dee4       _register_onexit_function  000000018000eee4 f   libucrt:onexit.obj
 0001:0000df74       __acrt_uninitialize_command_line 000000018000ef74 f   libucrt:argv_data.obj
 0001:0000e064       __acrt_initialize          000000018000f064 f   libucrt:initialization.obj
 0001:0000e078       __acrt_thread_attach       000000018000f078 f   libucrt:initialization.obj
 0001:0000e08c       __acrt_thread_detach       000000018000f08c f   libucrt:initialization.obj
 0001:0000e09c       __acrt_uninitialize        000000018000f09c f   libucrt:initialization.obj
 0001:0000e0b0       __acrt_uninitialize_critical 000000018000f0b0 f   libucrt:initialization.obj
 0001:0000e0c0       _initterm                  000000018000f0c0 f   libucrt:initterm.obj
 0001:0000e124       _initterm_e                000000018000f124 f   libucrt:initterm.obj
 0001:0000e164       terminate                  000000018000f164 f   libucrt:terminate.obj
 0001:0000e184       strcpy_s                   000000018000f184 f   libucrt:strcpy_s.obj
 0001:0000e1e4       _free_base                 000000018000f1e4 f   libucrt:free_base.obj
 0001:0000e224       _malloc_base               000000018000f224 f   libucrt:malloc_base.obj
 0001:0000e284       _calloc_base               000000018000f284 f   libucrt:calloc_base.obj
 0001:0000e2fc       wcsncmp                    000000018000f2fc f   libucrt:wcsncmp.obj
 0001:0000e328       ??$parse_integer@KV?$c_string_character_source@D@__crt_strtox@@@__crt_strtox@@YAKQEAU__crt_locale_pointers@@V?$c_string_character_source@D@0@H_N@Z 000000018000f328 f i libucrt:atox.obj
 0001:0000e644       ??$parse_integer@KV?$c_string_character_source@_W@__crt_strtox@@@__crt_strtox@@YAKQEAU__crt_locale_pointers@@V?$c_string_character_source@_W@0@H_N@Z 000000018000f644 f i libucrt:atox.obj
 0001:0000f080       __acrt_freeptd             0000000180010080 f   libucrt:per_thread_data.obj
 0001:0000f0c4       __acrt_getptd              00000001800100c4 f   libucrt:per_thread_data.obj
 0001:0000f190       __acrt_getptd_head         0000000180010190 f   libucrt:per_thread_data.obj
 0001:0000f238       __acrt_getptd_noexit       0000000180010238 f   libucrt:per_thread_data.obj
 0001:0000f308       __acrt_initialize_ptd      0000000180010308 f   libucrt:per_thread_data.obj
 0001:0000f344       __acrt_uninitialize_ptd    0000000180010344 f   libucrt:per_thread_data.obj
 0001:0000f368       _query_app_type            0000000180010368 f   libucrt:report_runtime_error.obj
 0001:0000f494       _itow_s                    0000000180010494 f   libucrt:xtoa.obj
 0001:0000f4b4       _set_error_mode            00000001800104b4 f   libucrt:set_error_mode.obj
 0001:0000f4f4       wcscat_s                   00000001800104f4 f   libucrt:wcscat_s.obj
 0001:0000f574       wcscpy_s                   0000000180010574 f   libucrt:wcscpy_s.obj
 0001:0000f5dc       wcsncat_s                  00000001800105dc f   libucrt:wcsncat_s.obj
 0001:0000f6dc       __acrt_show_wide_message_box 00000001800106dc f   libucrt:crtmbox.obj
 0001:0000f784       __acrt_initialize_stdio    0000000180010784 f   libucrt:_file.obj
 0001:0000f8a4       __acrt_iob_func            00000001800108a4 f   libucrt:_file.obj
 0001:0000f8b8       __acrt_uninitialize_stdio  00000001800108b8 f   libucrt:_file.obj
 0001:0000f914       _lock_file                 0000000180010914 f   libucrt:_file.obj
 0001:0000f920       _unlock_file               0000000180010920 f   libucrt:_file.obj
 0001:0000fb50       __acrt_stdio_flush_nolock  0000000180010b50 f   libucrt:fflush.obj
 0001:0000fbcc       _fflush_nolock             0000000180010bcc f   libucrt:fflush.obj
 0001:0000fc18       _flushall                  0000000180010c18 f   libucrt:fflush.obj
 0001:0000fc20       fflush                     0000000180010c20 f   libucrt:fflush.obj
 0001:0000fdb8       setvbuf                    0000000180010db8 f   libucrt:setvbuf.obj
 0001:0000fe9c       __acrt_get_sigabrt_handler 0000000180010e9c f   libucrt:signal.obj
 0001:0000fecc       __acrt_initialize_signal_handlers 0000000180010ecc f   libucrt:signal.obj
 0001:0000feec       raise                      0000000180010eec f   libucrt:signal.obj
 0001:00010160       isdigit                    0000000180011160 f i libucrt:_ctype.obj
 0001:00010218       _tolower_l                 0000000180011218 f   libucrt:tolower_toupper.obj
 0001:00010358       tolower                    0000000180011358 f   libucrt:tolower_toupper.obj
 0001:00010384       ??$make_c_string_character_source@DPEAPEAD@__crt_strtox@@YA?AV?$c_string_character_source@D@0@QEBDQEAPEAD@Z 0000000180011384 f i libucrt:strtox.obj
 0001:00010384       ??$make_c_string_character_source@_WPEAPEA_W@__crt_strtox@@YA?AV?$c_string_character_source@_W@0@QEB_WQEAPEA_W@Z 0000000180011384 f i libucrt:strtox.obj
 0001:00010398       strtol                     0000000180011398 f   libucrt:strtox.obj
 0001:000103c8       wcstol                     00000001800113c8 f   libucrt:strtox.obj
 0001:000103f8       _mbtowc_l                  00000001800113f8 f   libucrt:mbtowc.obj
 0001:00010540       mbtowc                     0000000180011540 f   libucrt:mbtowc.obj
 0001:00010548       _wctomb_s_l                0000000180011548 f   libucrt:wctomb.obj
 0001:000106cc       wctomb_s                   00000001800116cc f   libucrt:wctomb.obj
 0001:000106e0       strnlen                    00000001800116e0 f   libucrt:strnlen.obj
 0001:00010824       wcsnlen                    0000000180011824 f   libucrt:strnlen.obj
 0001:000109f0       __acrt_update_locale_info  00000001800119f0 f   libucrt:locale_update.obj
 0001:00010a24       __acrt_update_multibyte_info 0000000180011a24 f   libucrt:locale_update.obj
 0001:00010a58       ?__acrt_fp_classify@@YA?AW4__acrt_fp_class@@AEBN@Z 0000000180011a58 f i libucrt:cvt.obj
 0001:0001147c       __acrt_fp_format           000000018001247c f   libucrt:cvt.obj
 0001:000116c0       _fputwc_nolock             00000001800126c0 f   libucrt:fputwc.obj
 0001:00011838       _fileno                    0000000180012838 f   libucrt:fileno.obj
 0001:00011860       _fputc_nolock              0000000180012860 f   libucrt:fputc.obj
 0001:00011878       _get_printf_count_output   0000000180012878 f   libucrt:printf_count_output.obj
 0001:00011890       __acrt_stdio_begin_temporary_buffering_nolock 0000000180012890 f   libucrt:_sftbuf.obj
 0001:00011960       __acrt_stdio_end_temporary_buffering_nolock 0000000180012960 f   libucrt:_sftbuf.obj
 0001:00011a0c       __acrt_set_locale_changed  0000000180012a0c f   libucrt:wsetlocale.obj
 0001:00011a18       __acrt_uninitialize_locale 0000000180012a18 f   libucrt:wsetlocale.obj
 0001:00011c30       __acrt_initialize_lowio    0000000180012c30 f   libucrt:ioinit.obj
 0001:00011c6c       __acrt_uninitialize_lowio  0000000180012c6c f   libucrt:ioinit.obj
 0001:00011cac       __acrt_initialize_locks    0000000180012cac f   libucrt:locks.obj
 0001:00011cf4       __acrt_lock                0000000180012cf4 f   libucrt:locks.obj
 0001:00011d10       __acrt_uninitialize_locks  0000000180012d10 f   libucrt:locks.obj
 0001:00011d48       __acrt_unlock              0000000180012d48 f   libucrt:locks.obj
 0001:00011d64       __acrt_get_developer_information_policy 0000000180012d64 f   libucrt:win_policies.obj
 0001:00011db8       __acrt_get_process_end_policy 0000000180012db8 f   libucrt:win_policies.obj
 0001:00011df4       __acrt_get_windowing_model_policy 0000000180012df4 f   libucrt:win_policies.obj
 0001:000123c4       __acrt_expand_narrow_argv_wildcards 00000001800133c4 f   libucrt:argv_wildcards.obj
 0001:00012b10       __acrt_initialize_multibyte 0000000180013b10 f   libucrt:mbctype.obj
 0001:00012b70       __acrt_update_thread_multibyte_data 0000000180013b70 f   libucrt:mbctype.obj
 0001:00012b8c       _setmbcp_nolock            0000000180013b8c f   libucrt:mbctype.obj
 0001:00012ea4       _ismbblead                 0000000180013ea4 f   libucrt:ismbbyte.obj
 0001:00012eb8       __acrt_initialize_command_line 0000000180013eb8 f   libucrt:argv_data.obj
 0001:00012ee0       __dcrt_get_narrow_environment_from_os 0000000180013ee0 f   libucrt:get_environment_from_os.obj
 0001:00012fe4       _recalloc                  0000000180013fe4 f   libucrt:recalloc.obj
 0001:00012fec       _recalloc_base             0000000180013fec f   libucrt:recalloc.obj
 0001:0001325c       __acrt_AppPolicyGetProcessTerminationMethodInternal 000000018001425c f   libucrt:winapi_thunks.obj
 0001:000132ac       __acrt_AppPolicyGetShowDeveloperDiagnosticInternal 00000001800142ac f   libucrt:winapi_thunks.obj
 0001:000132fc       __acrt_AppPolicyGetWindowingModelInternal 00000001800142fc f   libucrt:winapi_thunks.obj
 0001:0001334c       __acrt_FlsAlloc            000000018001434c f   libucrt:winapi_thunks.obj
 0001:00013394       __acrt_FlsFree             0000000180014394 f   libucrt:winapi_thunks.obj
 0001:000133dc       __acrt_FlsGetValue         00000001800143dc f   libucrt:winapi_thunks.obj
 0001:00013424       __acrt_FlsSetValue         0000000180014424 f   libucrt:winapi_thunks.obj
 0001:00013478       __acrt_InitializeCriticalSectionEx 0000000180014478 f   libucrt:winapi_thunks.obj
 0001:000134dc       __acrt_LCMapStringEx       00000001800144dc f   libucrt:winapi_thunks.obj
 0001:000135b8       __acrt_LocaleNameToLCID    00000001800145b8 f   libucrt:winapi_thunks.obj
 0001:00013608       __acrt_MessageBoxW         0000000180014608 f   libucrt:winapi_thunks.obj
 0001:0001367c       __acrt_can_show_message_box 000000018001467c f   libucrt:winapi_thunks.obj
 0001:000136ec       __acrt_get_parent_window   00000001800146ec f   libucrt:winapi_thunks.obj
 0001:00013768       __acrt_initialize_winapi_thunks 0000000180014768 f   libucrt:winapi_thunks.obj
 0001:000137b0       __acrt_is_interactive      00000001800147b0 f   libucrt:winapi_thunks.obj
 0001:00013878       __acrt_uninitialize_winapi_thunks 0000000180014878 f   libucrt:winapi_thunks.obj
 0001:000138bc       __acrt_initialize_heap     00000001800148bc f   libucrt:heap_handle.obj
 0001:000138d8       __acrt_uninitialize_heap   00000001800148d8 f   libucrt:heap_handle.obj
 0001:000138e4       __acrt_execute_initializers 00000001800148e4 f   libucrt:shared_initialization.obj
 0001:00013964       __acrt_execute_uninitializers 0000000180014964 f   libucrt:shared_initialization.obj
 0001:000139a4       __acrt_has_user_matherr    00000001800149a4 f   libucrt:matherr.obj
 0001:000139c4       __acrt_initialize_user_matherr 00000001800149c4 f   libucrt:matherr.obj
 0001:000139cc       __acrt_invoke_user_matherr 00000001800149cc f   libucrt:matherr.obj
 0001:000139fc       _query_new_mode            00000001800149fc f   libucrt:new_mode.obj
 0001:00013a04       __pctype_func              0000000180014a04 f   libucrt:ctype.obj
 0001:00013a34       iswctype                   0000000180014a34 f   libucrt:iswctype.obj
 0001:00013aa4       _isctype_l                 0000000180014aa4 f   libucrt:isctype.obj
 0001:00013bb4       __acrt_add_locale_ref      0000000180014bb4 f   libucrt:locale_refcounting.obj
 0001:00013c40       __acrt_free_locale         0000000180014c40 f   libucrt:locale_refcounting.obj
 0001:00013db8       __acrt_locale_add_lc_time_reference 0000000180014db8 f   libucrt:locale_refcounting.obj
 0001:00013de0       __acrt_locale_free_lc_time_if_unreferenced 0000000180014de0 f   libucrt:locale_refcounting.obj
 0001:00013e18       __acrt_locale_release_lc_time_reference 0000000180014e18 f   libucrt:locale_refcounting.obj
 0001:00013e40       __acrt_release_locale_ref  0000000180014e40 f   libucrt:locale_refcounting.obj
 0001:00013ee8       __acrt_update_thread_locale_data 0000000180014ee8 f   libucrt:locale_refcounting.obj
 0001:00013f58       _updatetlocinfoEx_nolock   0000000180014f58 f   libucrt:locale_refcounting.obj
 0001:00013fc0       _fcloseall                 0000000180014fc0 f   libucrt:closeall.obj
 0001:00014074       __acrt_stdio_free_buffer_nolock 0000000180015074 f   libucrt:_freebuf.obj
 0001:00014140       _commit                    0000000180015140 f   libucrt:commit.obj
 0001:00014870       _write                     0000000180015870 f   libucrt:write.obj
 0001:00014970       _write_nolock              0000000180015970 f   libucrt:write.obj
 0001:00014c04       _isleadbyte_l              0000000180015c04 f i libucrt:_wctype.obj
 0001:00014f98       __acrt_LCMapStringA        0000000180015f98 f   libucrt:lcmapstringa.obj
 0001:00015030       __acrt_fp_strflt_to_string 0000000180016030 f   libucrt:_fptostr.obj
 0001:000150f0       ?divide@__crt_strtox@@YA_KAEAUbig_integer@1@AEBU21@@Z 00000001800160f0 f i libucrt:cfout.obj
 0001:000155ac       __acrt_fltout              00000001800165ac f   libucrt:cfout.obj
 0001:00016af0       __acrt_stdio_flush_and_write_narrow_nolock 0000000180017af0 f   libucrt:_flsbuf.obj
 0001:00016bd8       __acrt_stdio_flush_and_write_wide_nolock 0000000180017bd8 f   libucrt:_flsbuf.obj
 0001:00016cc4       _isatty                    0000000180017cc4 f   libucrt:isatty.obj
 0001:00016d24       __acrt_locale_free_monetary 0000000180017d24 f   libucrt:initmon.obj
 0001:00016e30       __acrt_locale_free_numeric 0000000180017e30 f   libucrt:initnum.obj
 0001:00016ef4       __acrt_locale_free_time    0000000180017ef4 f   libucrt:inittime.obj
 0001:00016ffc       __acrt_GetStringTypeA      0000000180017ffc f   libucrt:getstringtypea.obj
 0001:000171ac       __acrt_lowio_create_handle_array 00000001800181ac f   libucrt:osfinfo.obj
 0001:00017244       __acrt_lowio_destroy_handle_array 0000000180018244 f   libucrt:osfinfo.obj
 0001:00017294       __acrt_lowio_ensure_fh_exists 0000000180018294 f   libucrt:osfinfo.obj
 0001:0001733c       __acrt_lowio_lock_fh       000000018001833c f   libucrt:osfinfo.obj
 0001:00017360       __acrt_lowio_unlock_fh     0000000180018360 f   libucrt:osfinfo.obj
 0001:00017384       _free_osfhnd               0000000180018384 f   libucrt:osfinfo.obj
 0001:0001744c       _get_osfhandle             000000018001844c f   libucrt:osfinfo.obj
 0001:00017590       qsort                      0000000180018590 f   libucrt:qsort.obj
 0001:000178e0       strncpy_s                  00000001800188e0 f   libucrt:strncpy_s.obj
 0001:000179b4       strpbrk                    00000001800189b4 f   libucrt:strpbrk.obj
 0001:00017a54       _mbsdec                    0000000180018a54 f   libucrt:mbsdec.obj
 0001:00017a5c       _mbsdec_l                  0000000180018a5c f   libucrt:mbsdec.obj
 0001:00017b0c       _msize                     0000000180018b0c f   libucrt:msize.obj
 0001:00017b14       _msize_base                0000000180018b14 f   libucrt:msize.obj
 0001:00017b50       _realloc_base              0000000180018b50 f   libucrt:realloc_base.obj
 0001:00017c94       __acrt_DownlevelLocaleNameToLCID 0000000180018c94 f   libucrt:lcidtoname_downlevel.obj
 0001:00017cc8       _fclose_nolock             0000000180018cc8 f   libucrt:fclose.obj
 0001:00017d4c       fclose                     0000000180018d4c f   libucrt:fclose.obj
 0001:00017f50       _lseeki64                  0000000180018f50 f   libucrt:lseek.obj
 0001:00017f58       _lseeki64_nolock           0000000180018f58 f   libucrt:lseek.obj
 0001:00017f60       _putwch_nolock             0000000180018f60 f   libucrt:putwch.obj
 0001:00017f9c       __strncnt                  0000000180018f9c f   libucrt:strncnt.obj
 0001:00017fb4       fegetenv                   0000000180018fb4 f   libucrt:fegetenv.obj
 0001:00017fd4       fesetenv                   0000000180018fd4 f   libucrt:fesetenv.obj
 0001:00018024       feholdexcept               0000000180019024 f   libucrt:feholdexcept.obj
 0001:00018074       ceil                       0000000180019074 f   libucrt:ceil.obj
 0001:00018140       log10                      0000000180019140 f   libucrt:log10.obj
 0001:000186ec       __acrt_stdio_allocate_buffer_nolock 00000001800196ec f   libucrt:_getbuf.obj
 0001:000187c4       _close                     00000001800197c4 f   libucrt:close.obj
 0001:00018868       _close_nolock              0000000180019868 f   libucrt:close.obj
 0001:00018924       ?__acrt_stdio_free_stream@@YAXV__crt_stdio_stream@@@Z 0000000180019924 f   libucrt:stream.obj
 0001:00018940       __dcrt_lowio_ensure_console_output_initialized 0000000180019940 f   libucrt:initcon.obj
 0001:00018994       __dcrt_terminate_console_output 0000000180019994 f   libucrt:initcon.obj
 0001:000189b0       __dcrt_write_console_w     00000001800199b0 f   libucrt:initcon.obj
 0001:00018a70       __acrt_fenv_get_control    0000000180019a70 f   libucrt:_fenvutils.obj
 0001:00018b70       __acrt_fenv_get_status     0000000180019b70 f   libucrt:_fenvutils.obj
 0001:00018bcc       __acrt_fenv_set_control    0000000180019bcc f   libucrt:_fenvutils.obj
 0001:00018d14       __acrt_fenv_set_status     0000000180019d14 f   libucrt:_fenvutils.obj
 0001:00018da4       _clearfp                   0000000180019da4 f   libucrt:ieee.obj
 0001:00018f38       _handle_error              0000000180019f38 f   libucrt:libm_error.obj
 0001:00019060       _handle_nan                000000018001a060 f   libucrt:libm_error.obj
 0001:00019080       __acrt_initialize_fma3     000000018001a080 f   libucrt:fma3_available.obj
 0001:000190f0       _log10_special             000000018001a0f0 f   libucrt:log_special.obj
 0001:000191c0       _get_fpsr                  000000018001a1c0 f   libucrt:fpsr.obj
 0001:000191d0       _set_fpsr                  000000018001a1d0 f   libucrt:fpsr.obj
 0001:000191da       _fclrf                     000000018001a1da f   libucrt:fpsr.obj
 0001:000191ee       _frnd                      000000018001a1ee f   libucrt:fpsr.obj
 0001:00019210       _raise_exc                 000000018001a210 f   libucrt:fpexcept.obj
 0001:00019238       _raise_exc_ex              000000018001a238 f   libucrt:fpexcept.obj
 0001:00019540       _set_errno_from_matherr    000000018001a540 f   libucrt:fpexcept.obj
 0001:00019570       _clrfp                     000000018001a570 f   libucrt:fpctrl.obj
 0001:00019590       _ctrlfp                    000000018001a590 f   libucrt:fpctrl.obj
 0001:0001960c       _set_statfp                000000018001a60c f   libucrt:fpctrl.obj
 0001:0001962c       _statfp                    000000018001a62c f   libucrt:fpctrl.obj
 0001:0001963e       IsProcessorFeaturePresent  000000018001a63e f   kernel32:KERNEL32.dll
 0001:00019644       RtlUnwindEx                000000018001a644 f   kernel32:KERNEL32.dll
 0001:00019650       _FindPESection             000000018001a650 f   LIBCMT:pesect.obj
 0001:000196a0       _IsNonwritableInCurrentImage 000000018001a6a0 f   LIBCMT:pesect.obj
 0001:000196f0       _ValidateImageBase         000000018001a6f0 f   LIBCMT:pesect.obj
 0001:00019720       __GSHandlerCheck           000000018001a720 f   LIBCMT:_gshandler_.obj
 0001:00019740       __GSHandlerCheckCommon     000000018001a740 f   LIBCMT:_gshandler_.obj
 0001:0001979c       strrchr                    000000018001a79c f   libvcruntime:strrchr.obj
 0001:000198f0       memcmp                     000000018001a8f0 f   libvcruntime:memcmp.obj
 0001:000199d0       _guard_dispatch_icall_nop  000000018001a9d0 f   LIBCMT:_guard_dispatch_.obj
 0002:00000000       __imp_GetCurrentThreadId   000000018001b000     kernel32:KERNEL32.dll
 0002:00000008       __imp_SetLastError         000000018001b008     kernel32:KERNEL32.dll
 0002:00000010       __imp_SetErrorMode         000000018001b010     kernel32:KERNEL32.dll
 0002:00000018       __imp_GetModuleHandleA     000000018001b018     kernel32:KERNEL32.dll
 0002:00000020       __imp_MultiByteToWideChar  000000018001b020     kernel32:KERNEL32.dll
 0002:00000028       __imp_GetLastError         000000018001b028     kernel32:KERNEL32.dll
 0002:00000030       __imp_LoadLibraryW         000000018001b030     kernel32:KERNEL32.dll
 0002:00000038       __imp_GetErrorMode         000000018001b038     kernel32:KERNEL32.dll
 0002:00000040       __imp_GetProcAddress       000000018001b040     kernel32:KERNEL32.dll
 0002:00000048       __imp_FreeLibrary          000000018001b048     kernel32:KERNEL32.dll
 0002:00000050       __imp_CloseHandle          000000018001b050     kernel32:KERNEL32.dll
 0002:00000058       __imp_SetFilePointerEx     000000018001b058     kernel32:KERNEL32.dll
 0002:00000060       __imp_HeapReAlloc          000000018001b060     kernel32:KERNEL32.dll
 0002:00000068       __imp_HeapSize             000000018001b068     kernel32:KERNEL32.dll
 0002:00000070       __imp_SetStdHandle         000000018001b070     kernel32:KERNEL32.dll
 0002:00000078       __imp_GetConsoleMode       000000018001b078     kernel32:KERNEL32.dll
 0002:00000080       __imp_GetConsoleCP         000000018001b080     kernel32:KERNEL32.dll
 0002:00000088       __imp_FlushFileBuffers     000000018001b088     kernel32:KERNEL32.dll
 0002:00000090       __imp_GetStringTypeW       000000018001b090     kernel32:KERNEL32.dll
 0002:00000098       __imp_GetProcessHeap       000000018001b098     kernel32:KERNEL32.dll
 0002:000000a0       __imp_LCMapStringW         000000018001b0a0     kernel32:KERNEL32.dll
 0002:000000a8       __imp_FreeEnvironmentStringsW 000000018001b0a8     kernel32:KERNEL32.dll
 0002:000000b0       __imp_GetEnvironmentStringsW 000000018001b0b0     kernel32:KERNEL32.dll
 0002:000000b8       __imp_GetCommandLineW      000000018001b0b8     kernel32:KERNEL32.dll
 0002:000000c0       __imp_GetCommandLineA      000000018001b0c0     kernel32:KERNEL32.dll
 0002:000000c8       __imp_GetCPInfo            000000018001b0c8     kernel32:KERNEL32.dll
 0002:000000d0       __imp_GetOEMCP             000000018001b0d0     kernel32:KERNEL32.dll
 0002:000000d8       __imp_IsValidCodePage      000000018001b0d8     kernel32:KERNEL32.dll
 0002:000000e0       __imp_FindNextFileA        000000018001b0e0     kernel32:KERNEL32.dll
 0002:000000e8       __imp_FindFirstFileExA     000000018001b0e8     kernel32:KERNEL32.dll
 0002:000000f0       __imp_FindClose            000000018001b0f0     kernel32:KERNEL32.dll
 0002:000000f8       __imp_GetACP               000000018001b0f8     kernel32:KERNEL32.dll
 0002:00000100       __imp_OutputDebugStringW   000000018001b100     kernel32:KERNEL32.dll
 0002:00000108       __imp_WriteFile            000000018001b108     kernel32:KERNEL32.dll
 0002:00000110       __imp_HeapAlloc            000000018001b110     kernel32:KERNEL32.dll
 0002:00000118       __imp_HeapFree             000000018001b118     kernel32:KERNEL32.dll
 0002:00000120       __imp_WideCharToMultiByte  000000018001b120     kernel32:KERNEL32.dll
 0002:00000128       __imp_ExitProcess          000000018001b128     kernel32:KERNEL32.dll
 0002:00000130       __imp_WriteConsoleW        000000018001b130     kernel32:KERNEL32.dll
 0002:00000138       __imp_GetModuleHandleExW   000000018001b138     kernel32:KERNEL32.dll
 0002:00000140       __imp_GetModuleFileNameW   000000018001b140     kernel32:KERNEL32.dll
 0002:00000148       __imp_GetModuleFileNameA   000000018001b148     kernel32:KERNEL32.dll
 0002:00000150       __imp_GetFileType          000000018001b150     kernel32:KERNEL32.dll
 0002:00000158       __imp_GetStdHandle         000000018001b158     kernel32:KERNEL32.dll
 0002:00000160       __imp_LoadLibraryExW       000000018001b160     kernel32:KERNEL32.dll
 0002:00000168       __imp_TlsFree              000000018001b168     kernel32:KERNEL32.dll
 0002:00000170       __imp_TlsSetValue          000000018001b170     kernel32:KERNEL32.dll
 0002:00000178       __imp_TlsGetValue          000000018001b178     kernel32:KERNEL32.dll
 0002:00000180       __imp_TlsAlloc             000000018001b180     kernel32:KERNEL32.dll
 0002:00000188       __imp_InitializeCriticalSectionAndSpinCount 000000018001b188     kernel32:KERNEL32.dll
 0002:00000190       __imp_DeleteCriticalSection 000000018001b190     kernel32:KERNEL32.dll
 0002:00000198       __imp_LeaveCriticalSection 000000018001b198     kernel32:KERNEL32.dll
 0002:000001a0       __imp_EnterCriticalSection 000000018001b1a0     kernel32:KERNEL32.dll
 0002:000001a8       __imp_InterlockedFlushSList 000000018001b1a8     kernel32:KERNEL32.dll
 0002:000001b0       __imp_RtlUnwindEx          000000018001b1b0     kernel32:KERNEL32.dll
 0002:000001b8       __imp_RaiseException       000000018001b1b8     kernel32:KERNEL32.dll
 0002:000001c0       __imp_RtlPcToFileHeader    000000018001b1c0     kernel32:KERNEL32.dll
 0002:000001c8       __imp_InitializeSListHead  000000018001b1c8     kernel32:KERNEL32.dll
 0002:000001d0       __imp_GetSystemTimeAsFileTime 000000018001b1d0     kernel32:KERNEL32.dll
 0002:000001d8       __imp_GetCurrentProcessId  000000018001b1d8     kernel32:KERNEL32.dll
 0002:000001e0       __imp_QueryPerformanceCounter 000000018001b1e0     kernel32:KERNEL32.dll
 0002:000001e8       __imp_GetModuleHandleW     000000018001b1e8     kernel32:KERNEL32.dll
 0002:000001f0       __imp_GetStartupInfoW      000000018001b1f0     kernel32:KERNEL32.dll
 0002:000001f8       __imp_VirtualFree          000000018001b1f8     kernel32:KERNEL32.dll
 0002:00000200       __imp_VirtualAlloc         000000018001b200     kernel32:KERNEL32.dll
 0002:00000208       __imp_Sleep                000000018001b208     kernel32:KERNEL32.dll
 0002:00000210       __imp_GetSystemInfo        000000018001b210     kernel32:KERNEL32.dll
 0002:00000218       __imp_VirtualQuery         000000018001b218     kernel32:KERNEL32.dll
 0002:00000220       __imp_RtlCaptureContext    000000018001b220     kernel32:KERNEL32.dll
 0002:00000228       __imp_RtlLookupFunctionEntry 000000018001b228     kernel32:KERNEL32.dll
 0002:00000230       __imp_RtlVirtualUnwind     000000018001b230     kernel32:KERNEL32.dll
 0002:00000238       __imp_UnhandledExceptionFilter 000000018001b238     kernel32:KERNEL32.dll
 0002:00000240       __imp_SetUnhandledExceptionFilter 000000018001b240     kernel32:KERNEL32.dll
 0002:00000248       __imp_GetCurrentProcess    000000018001b248     kernel32:KERNEL32.dll
 0002:00000250       __imp_TerminateProcess     000000018001b250     kernel32:KERNEL32.dll
 0002:00000258       __imp_IsProcessorFeaturePresent 000000018001b258     kernel32:KERNEL32.dll
 0002:00000260       __imp_IsDebuggerPresent    000000018001b260     kernel32:KERNEL32.dll
 0002:00000268       __imp_CreateFileW          000000018001b268     kernel32:KERNEL32.dll
 0002:00000270       \177KERNEL32_NULL_THUNK_DATA 000000018001b270     kernel32:KERNEL32.dll
 0002:00000278       __imp_uv_mutex_destroy     000000018001b278     iojs:node.dll
 0002:00000280       __imp_uv_cond_wait         000000018001b280     iojs:node.dll
 0002:00000288       __imp_uv_cond_init         000000018001b288     iojs:node.dll
 0002:00000290       __imp_uv_cond_destroy      000000018001b290     iojs:node.dll
 0002:00000298       __imp_uv_cond_signal       000000018001b298     iojs:node.dll
 0002:000002a0       __imp_uv_async_init        000000018001b2a0     iojs:node.dll
 0002:000002a8       __imp_uv_async_send        000000018001b2a8     iojs:node.dll
 0002:000002b0       __imp_uv_mutex_init        000000018001b2b0     iojs:node.dll
 0002:000002b8       __imp_uv_ref               000000018001b2b8     iojs:node.dll
 0002:000002c0       __imp_uv_mutex_lock        000000018001b2c0     iojs:node.dll
 0002:000002c8       __imp_?Int32Value@Value@v8@@QEBAHXZ 000000018001b2c8     iojs:node.dll
 0002:000002d0       __imp_uv_mutex_unlock      000000018001b2d0     iojs:node.dll
 0002:000002d8       __imp_uv_unref             000000018001b2d8     iojs:node.dll
 0002:000002e0       __imp_?ToObject@Value@v8@@QEBA?AV?$Local@VObject@v8@@@2@XZ 000000018001b2e0     iojs:node.dll
 0002:000002e8       __imp_uv_default_loop      000000018001b2e8     iojs:node.dll
 0002:000002f0       __imp_?MakeCallback@node@@YA?AV?$Local@VValue@v8@@@v8@@PEAVIsolate@3@V?$Local@VObject@v8@@@3@V?$Local@VFunction@v8@@@3@HPEAV23@@Z 000000018001b2f0     iojs:node.dll
 0002:000002f8       __imp_?Data@Buffer@node@@YAPEADV?$Local@VObject@v8@@@v8@@@Z 000000018001b2f8     iojs:node.dll
 0002:00000300       __imp_?New@Buffer@node@@YA?AV?$MaybeLocal@VObject@v8@@@v8@@PEAVIsolate@4@PEAD_KP6AX1PEAX@Z3@Z 000000018001b300     iojs:node.dll
 0002:00000308       __imp_?HasInstance@Buffer@node@@YA_NV?$Local@VValue@v8@@@v8@@@Z 000000018001b308     iojs:node.dll
 0002:00000310       __imp_node_module_register 000000018001b310     iojs:node.dll
 0002:00000318       __imp_?FatalException@node@@YAXPEAVIsolate@v8@@AEBVTryCatch@3@@Z 000000018001b318     iojs:node.dll
 0002:00000320       __imp_?New@ObjectTemplate@v8@@SA?AV?$Local@VObjectTemplate@v8@@@2@PEAVIsolate@2@V?$Local@VFunctionTemplate@v8@@@2@@Z 000000018001b320     iojs:node.dll
 0002:00000328       __imp_?NewInstance@ObjectTemplate@v8@@QEAA?AV?$MaybeLocal@VObject@v8@@@2@V?$Local@VContext@v8@@@2@@Z 000000018001b328     iojs:node.dll
 0002:00000330       __imp_?SetInternalFieldCount@ObjectTemplate@v8@@QEAAXH@Z 000000018001b330     iojs:node.dll
 0002:00000338       __imp_?Set@Object@v8@@QEAA?AV?$Maybe@_N@2@V?$Local@VContext@v8@@@2@V?$Local@VValue@v8@@@2@1@Z 000000018001b338     iojs:node.dll
 0002:00000340       __imp_?Set@Object@v8@@QEAA_NV?$Local@VValue@v8@@@2@0@Z 000000018001b340     iojs:node.dll
 0002:00000348       __imp_?ForceSet@Object@v8@@QEAA?AV?$Maybe@_N@2@V?$Local@VContext@v8@@@2@V?$Local@VValue@v8@@@2@1W4PropertyAttribute@2@@Z 000000018001b348     iojs:node.dll
 0002:00000350       __imp_?ForceSet@Object@v8@@QEAA_NV?$Local@VValue@v8@@@2@0W4PropertyAttribute@2@@Z 000000018001b350     iojs:node.dll
 0002:00000358       __imp_?SetInternalField@Object@v8@@QEAAXHV?$Local@VValue@v8@@@2@@Z 000000018001b358     iojs:node.dll
 0002:00000360       __imp_?New@Object@v8@@SA?AV?$Local@VObject@v8@@@2@PEAVIsolate@2@@Z 000000018001b360     iojs:node.dll
 0002:00000368       __imp_?SlowGetInternalField@Object@v8@@AEAA?AV?$Local@VValue@v8@@@2@H@Z 000000018001b368     iojs:node.dll
 0002:00000370       __imp_?NewFromUtf8@String@v8@@SA?AV?$MaybeLocal@VString@v8@@@2@PEAVIsolate@2@PEBDW4NewStringType@2@H@Z 000000018001b370     iojs:node.dll
 0002:00000378       __imp_??0EscapableHandleScope@v8@@QEAA@PEAVIsolate@1@@Z 000000018001b378     iojs:node.dll
 0002:00000380       __imp_?Escape@EscapableHandleScope@v8@@AEAAPEAPEAVObject@internal@2@PEAPEAV342@@Z 000000018001b380     iojs:node.dll
 0002:00000388       __imp_??0TryCatch@v8@@QEAA@PEAVIsolate@1@@Z 000000018001b388     iojs:node.dll
 0002:00000390       __imp_??1TryCatch@v8@@QEAA@XZ 000000018001b390     iojs:node.dll
 0002:00000398       __imp_?HasCaught@TryCatch@v8@@QEBA_NXZ 000000018001b398     iojs:node.dll
 0002:000003a0       __imp_?ToInteger@Value@v8@@QEBA?AV?$MaybeLocal@VInteger@v8@@@2@V?$Local@VContext@v8@@@2@@Z 000000018001b3a0     iojs:node.dll
 0002:000003a8       __imp_?ToUint32@Value@v8@@QEBA?AV?$MaybeLocal@VUint32@v8@@@2@V?$Local@VContext@v8@@@2@@Z 000000018001b3a8     iojs:node.dll
 0002:000003b0       __imp_?Uint32Value@Value@v8@@QEBAIXZ 000000018001b3b0     iojs:node.dll
 0002:000003b8       __imp_?GlobalizeReference@V8@v8@@CAPEAPEAVObject@internal@2@PEAVIsolate@42@PEAPEAV342@@Z 000000018001b3b8     iojs:node.dll
 0002:000003c0       __imp_?DisposeGlobal@V8@v8@@CAXPEAPEAVObject@internal@2@@Z 000000018001b3c0     iojs:node.dll
 0002:000003c8       __imp_?ToLocalEmpty@V8@v8@@CAXXZ 000000018001b3c8     iojs:node.dll
 0002:000003d0       __imp_?New@FunctionTemplate@v8@@SA?AV?$Local@VFunctionTemplate@v8@@@2@PEAVIsolate@2@P6AXAEBV?$FunctionCallbackInfo@VValue@v8@@@2@@ZV?$Local@VValue@v8@@@2@V?$Local@VSignature@v8@@@2@HW4ConstructorBehavior@2@@Z 000000018001b3d0     iojs:node.dll
 0002:000003d8       __imp_?GetFunction@FunctionTemplate@v8@@QEAA?AV?$Local@VFunction@v8@@@2@XZ 000000018001b3d8     iojs:node.dll
 0002:000003e0       __imp_?Error@Exception@v8@@SA?AV?$Local@VValue@v8@@@2@V?$Local@VString@v8@@@2@@Z 000000018001b3e0     iojs:node.dll
 0002:000003e8       __imp_??0HandleScope@v8@@QEAA@PEAVIsolate@1@@Z 000000018001b3e8     iojs:node.dll
 0002:000003f0       __imp_??1HandleScope@v8@@QEAA@XZ 000000018001b3f0     iojs:node.dll
 0002:000003f8       __imp_?CreateHandle@HandleScope@v8@@CAPEAPEAVObject@internal@2@PEAVHeapObject@42@PEAV342@@Z 000000018001b3f8     iojs:node.dll
 0002:00000400       __imp_?CreateHandle@HandleScope@v8@@KAPEAPEAVObject@internal@2@PEAVIsolate@42@PEAV342@@Z 000000018001b400     iojs:node.dll
 0002:00000408       __imp_?GetCurrent@Isolate@v8@@SAPEAV12@XZ 000000018001b408     iojs:node.dll
 0002:00000410       __imp_?GetCurrentContext@Isolate@v8@@QEAA?AV?$Local@VContext@v8@@@2@XZ 000000018001b410     iojs:node.dll
 0002:00000418       __imp_?ThrowException@Isolate@v8@@QEAA?AV?$Local@VValue@v8@@@2@V32@@Z 000000018001b418     iojs:node.dll
 0002:00000420       __imp_?New@Integer@v8@@SA?AV?$Local@VInteger@v8@@@2@PEAVIsolate@2@H@Z 000000018001b420     iojs:node.dll
 0002:00000428       __imp_?NewFromUnsigned@Integer@v8@@SA?AV?$Local@VInteger@v8@@@2@PEAVIsolate@2@I@Z 000000018001b428     iojs:node.dll
 0002:00000430       __imp_?New@External@v8@@SA?AV?$Local@VExternal@v8@@@2@PEAVIsolate@2@PEAX@Z 000000018001b430     iojs:node.dll
 0002:00000438       __imp_?Value@External@v8@@QEBAPEAXXZ 000000018001b438     iojs:node.dll
 0002:00000440       __imp_?Global@Context@v8@@QEAA?AV?$Local@VObject@v8@@@2@XZ 000000018001b440     iojs:node.dll
 0002:00000448       __imp_uv_queue_work        000000018001b448     iojs:node.dll
 0002:00000450       \177node_NULL_THUNK_DATA   000000018001b450     iojs:node.dll
 0002:00000458       __guard_check_icall_fptr   000000018001b458     LIBCMT:guard_support.obj
 0002:00000460       __guard_dispatch_icall_fptr 000000018001b460     LIBCMT:guard_support.obj
 0002:00000468       __xc_a                     000000018001b468     LIBCMT:initializers.obj
 0002:00000478       _register_ffi_bindings_    000000018001b478     ffi.obj
 0002:00000480       __xc_z                     000000018001b480     LIBCMT:initializers.obj
 0002:00000488       __xi_a                     000000018001b488     LIBCMT:initializers.obj
 0002:00000490       __acrt_stdio_initializer   000000018001b490     libucrt:stdio_initializer.obj
 0002:00000498       __acrt_multibyte_initializer 000000018001b498     libucrt:multibyte_initializer.obj
 0002:000004a0       __acrt_tran_fma3_initializer 000000018001b4a0     libucrt:fma3_initializer.obj
 0002:000004a8       __xi_z                     000000018001b4a8     LIBCMT:initializers.obj
 0002:000004b0       __xp_a                     000000018001b4b0     LIBCMT:initializers.obj
 0002:000004b8       __acrt_locale_terminator   000000018001b4b8     libucrt:locale_initializer.obj
 0002:000004c0       __dcrt_console_output_terminator 000000018001b4c0     libucrt:console_output_initializer.obj
 0002:000004c8       __acrt_stdio_terminator    000000018001b4c8     libucrt:stdio_initializer.obj
 0002:000004d0       __xp_z                     000000018001b4d0     LIBCMT:initializers.obj
 0002:000004d8       __xt_a                     000000018001b4d8     LIBCMT:initializers.obj
 0002:000004e0       __xt_z                     000000018001b4e0     LIBCMT:initializers.obj
 0002:000004f8       ??_7exception@std@@6B@     000000018001b4f8     libcpmt:xthrow.obj
 0002:00000508       ??_C@_0BC@EOODALEL@Unknown?5exception?$AA@ 000000018001b508     libcpmt:xthrow.obj
 0002:00000528       ??_7bad_alloc@std@@6B@     000000018001b528     libcpmt:xthrow.obj
 0002:00000538       ??_C@_0P@GHFPNOJB@bad?5allocation?$AA@ 000000018001b538     libcpmt:xthrow.obj
 0002:00000550       ??_7logic_error@std@@6B@   000000018001b550     libcpmt:xthrow.obj
 0002:00000568       ??_7length_error@std@@6B@  000000018001b568     libcpmt:xthrow.obj
 0002:00000578       _pDefaultRawDllMain        000000018001b578     LIBCMT:dll_dllmain.obj
 0002:00000578       _pRawDllMain               000000018001b578     LIBCMT:dll_dllmain.obj
 0002:00000588       ??_7type_info@@6B@         000000018001b588     LIBCMT:std_type_info_static.obj
 0002:000005a8       ??_7bad_array_new_length@std@@6B@ 000000018001b5a8     LIBCMT:throw_bad_alloc.obj
 0002:000005b8       ??_C@_0BF@KINCDENJ@bad?5array?5new?5length?$AA@ 000000018001b5b8     LIBCMT:throw_bad_alloc.obj
 0002:00000628       ??_C@_1DM@KHCHBNEB@?$AAa?$AAp?$AAi?$AA?9?$AAm?$AAs?$AA?9?$AAw?$AAi?$AAn?$AA?9?$AAc?$AAo?$AAr?$AAe?$AA?9?$AAf?$AAi?$AAb?$AAe?$AAr?$AAs?$AA?9?$AAl?$AA1?$AA?9?$AA1?$AA?9?$AA1?$AA?$AA@ 000000018001b628     libvcruntime:winapi_downlevel.obj
 0002:00000668       ??_C@_1DK@LPPGFMPP@?$AAa?$AAp?$AAi?$AA?9?$AAm?$AAs?$AA?9?$AAw?$AAi?$AAn?$AA?9?$AAc?$AAo?$AAr?$AAe?$AA?9?$AAs?$AAy?$AAn?$AAc?$AAh?$AA?9?$AAl?$AA1?$AA?9?$AA2?$AA?9?$AA0?$AA?$AA@ 000000018001b668     libvcruntime:winapi_downlevel.obj
 0002:000006a8       ??_C@_1BC@GDMECMAK@?$AAk?$AAe?$AAr?$AAn?$AAe?$AAl?$AA3?$AA2?$AA?$AA@ 000000018001b6a8     libvcruntime:winapi_downlevel.obj
 0002:000006c0       ??_C@_1BA@PFFKHIOG@?$AAa?$AAp?$AAi?$AA?9?$AAm?$AAs?$AA?9?$AA?$AA@ 000000018001b6c0     libvcruntime:winapi_downlevel.obj
 0002:000006d0       ??_C@_1BA@IAIFMGEF@?$AAe?$AAx?$AAt?$AA?9?$AAm?$AAs?$AA?9?$AA?$AA@ 000000018001b6d0     libvcruntime:winapi_downlevel.obj
 0002:000006e8       ??_C@_08KNHFBNJ@FlsAlloc?$AA@ 000000018001b6e8     libvcruntime:winapi_downlevel.obj
 0002:00000700       ??_C@_07PEJMOBNF@FlsFree?$AA@ 000000018001b700     libvcruntime:winapi_downlevel.obj
 0002:00000710       ??_C@_0M@GDNOONDI@FlsGetValue?$AA@ 000000018001b710     libvcruntime:winapi_downlevel.obj
 0002:00000728       ??_C@_0M@JCPCPOEF@FlsSetValue?$AA@ 000000018001b728     libvcruntime:winapi_downlevel.obj
 0002:00000740       ??_C@_0BM@HCFOFFN@InitializeCriticalSectionEx?$AA@ 000000018001b740     libvcruntime:winapi_downlevel.obj
 0002:00000760       ??_C@_0BM@LDKODKLH@?5Base?5Class?5Descriptor?5at?5?$CI?$AA@ 000000018001b760     libvcruntime:undname.obj
 0002:00000780       ??_C@_0BD@LGICGFMM@?5Base?5Class?5Array?8?$AA@ 000000018001b780     libvcruntime:undname.obj
 0002:00000798       ??_C@_0BN@MECKDCOJ@?5Class?5Hierarchy?5Descriptor?8?$AA@ 000000018001b798     libvcruntime:undname.obj
 0002:000007b8       ??_C@_0BK@CFCOFLF@?5Complete?5Object?5Locator?8?$AA@ 000000018001b7b8     libvcruntime:undname.obj
 0002:00000b08       ??_C@_08EHJDFFNH@__based?$CI?$AA@ 000000018001bb08     libvcruntime:undname.obj
 0002:00000b18       ??_C@_07KOLFKCDI@__cdecl?$AA@ 000000018001bb18     libvcruntime:undname.obj
 0002:00000b20       ??_C@_08GHMPAG@__pascal?$AA@ 000000018001bb20     libvcruntime:undname.obj
 0002:00000b30       ??_C@_09IFJBGAPI@__stdcall?$AA@ 000000018001bb30     libvcruntime:undname.obj
 0002:00000b40       ??_C@_0L@NPHFGOKO@__thiscall?$AA@ 000000018001bb40     libvcruntime:undname.obj
 0002:00000b50       ??_C@_0L@JMKHOMEK@__fastcall?$AA@ 000000018001bb50     libvcruntime:undname.obj
 0002:00000b60       ??_C@_0N@BCKKPABJ@__vectorcall?$AA@ 000000018001bb60     libvcruntime:undname.obj
 0002:00000b70       ??_C@_09HIJEGCPM@__clrcall?$AA@ 000000018001bb70     libvcruntime:undname.obj
 0002:00000b7c       ??_C@_06GHPCKEAG@__eabi?$AA@ 000000018001bb7c     libvcruntime:undname.obj
 0002:00000b88       ??_C@_07JOMMBBKO@__ptr64?$AA@ 000000018001bb88     libvcruntime:undname.obj
 0002:00000b90       ??_C@_0L@PILCLIHE@__restrict?$AA@ 000000018001bb90     libvcruntime:undname.obj
 0002:00000ba0       ??_C@_0M@GFIIJFMG@__unaligned?$AA@ 000000018001bba0     libvcruntime:undname.obj
 0002:00000bb0       ??_C@_09DHDLOLLB@restrict?$CI?$AA@ 000000018001bbb0     libvcruntime:undname.obj
 0002:00000bba       ??_C@_00CNPNBAHC@?$AA@     000000018001bbba     libvcruntime:undname.obj
 0002:00000bbc       ??_C@_04NIHEBCM@?5new?$AA@ 000000018001bbbc     libvcruntime:undname.obj
 0002:00000bc8       ??_C@_07FPCDHGMM@?5delete?$AA@ 000000018001bbc8     libvcruntime:undname.obj
 0002:00000bd0       ??_C@_01NEMOKFLO@?$DN?$AA@ 000000018001bbd0     libvcruntime:undname.obj
 0002:00000bd4       ??_C@_02GPIOPFAK@?$DO?$DO?$AA@ 000000018001bbd4     libvcruntime:undname.obj
 0002:00000bd8       ??_C@_02FODMEDOG@?$DM?$DM?$AA@ 000000018001bbd8     libvcruntime:undname.obj
 0002:00000bdc       ??_C@_01DCLJPIOD@?$CB?$AA@ 000000018001bbdc     libvcruntime:undname.obj
 0002:00000be0       ??_C@_02EGOFBIJA@?$DN?$DN?$AA@ 000000018001bbe0     libvcruntime:undname.obj
 0002:00000be4       ??_C@_02FDNJECIE@?$CB?$DN?$AA@ 000000018001bbe4     libvcruntime:undname.obj
 0002:00000be8       ??_C@_02GPECMEKF@?$FL?$FN?$AA@ 000000018001bbe8     libvcruntime:undname.obj
 0002:00000bf0       ??_C@_08LHJFAFGD@operator?$AA@ 000000018001bbf0     libvcruntime:undname.obj
 0002:00000bfc       ??_C@_02HBOOOICD@?9?$DO?$AA@ 000000018001bbfc     libvcruntime:undname.obj
 0002:00000c00       ??_C@_01NBENCBCI@?$CK?$AA@ 000000018001bc00     libvcruntime:undname.obj
 0002:00000c04       ??_C@_02ECNGHCIF@?$CL?$CL?$AA@ 000000018001bc04     libvcruntime:undname.obj
 0002:00000c08       ??_C@_02BAABKJLB@?9?9?$AA@ 000000018001bc08     libvcruntime:undname.obj
 0002:00000c0c       ??_C@_01JOAMLHOP@?9?$AA@   000000018001bc0c     libvcruntime:undname.obj
 0002:00000c10       ??_C@_01MIFGBAGJ@?$CL?$AA@ 000000018001bc10     libvcruntime:undname.obj
 0002:00000c14       ??_C@_01HNPIGOCE@?$CG?$AA@ 000000018001bc14     libvcruntime:undname.obj
 0002:00000c18       ??_C@_03MNHNFDLC@?9?$DO?$CK?$AA@ 000000018001bc18     libvcruntime:undname.obj
 0002:00000c1c       ??_C@_01KMDKNFGN@?1?$AA@   000000018001bc1c     libvcruntime:undname.obj
 0002:00000c20       ??_C@_01FGNFDNOH@?$CF?$AA@ 000000018001bc20     libvcruntime:undname.obj
 0002:00000c24       ??_C@_01MNNFJEPP@?$DM?$AA@ 000000018001bc24     libvcruntime:undname.obj
 0002:00000c28       ??_C@_02EHCHHCKH@?$DM?$DN?$AA@ 000000018001bc28     libvcruntime:undname.obj
 0002:00000c2c       ??_C@_01PPODPGHN@?$DO?$AA@ 000000018001bc2c     libvcruntime:undname.obj
 0002:00000c30       ??_C@_02EEKDKGMJ@?$DO?$DN?$AA@ 000000018001bc30     libvcruntime:undname.obj
 0002:00000c34       ??_C@_01IHBHIGKO@?0?$AA@   000000018001bc34     libvcruntime:undname.obj
 0002:00000c38       ??_C@_02HCKGKOFO@?$CI?$CJ?$AA@ 000000018001bc38     libvcruntime:undname.obj
 0002:00000c3c       ??_C@_01PJKLJHI@?$HO?$AA@  000000018001bc3c     libvcruntime:undname.obj
 0002:00000c40       ??_C@_01JKBOJNNK@?$FO?$AA@ 000000018001bc40     libvcruntime:undname.obj
 0002:00000c44       ??_C@_01DNKMNLPK@?$HM?$AA@ 000000018001bc44     libvcruntime:undname.obj
 0002:00000c48       ??_C@_02PPKAJPJL@?$CG?$CG?$AA@ 000000018001bc48     libvcruntime:undname.obj
 0002:00000c4c       ??_C@_02NONPIBCD@?$HM?$HM?$AA@ 000000018001bc4c     libvcruntime:undname.obj
 0002:00000c50       ??_C@_02FPIMKNGF@?$CK?$DN?$AA@ 000000018001bc50     libvcruntime:undname.obj
 0002:00000c54       ??_C@_02FOEOMHFC@?$CL?$DN?$AA@ 000000018001bc54     libvcruntime:undname.obj
 0002:00000c58       ??_C@_02FKMDLLOA@?9?$DN?$AA@ 000000018001bc58     libvcruntime:undname.obj
 0002:00000c5c       ??_C@_02FJEHGPIO@?1?$DN?$AA@ 000000018001bc5c     libvcruntime:undname.obj
 0002:00000c60       ??_C@_02FENAOKFI@?$CF?$DN?$AA@ 000000018001bc60     libvcruntime:undname.obj
 0002:00000c64       ??_C@_03IKFCCPFF@?$DO?$DO?$DN?$AA@ 000000018001bc64     libvcruntime:undname.obj
 0002:00000c68       ??_C@_03CDNPDDLA@?$DM?$DM?$DN?$AA@ 000000018001bc68     libvcruntime:undname.obj
 0002:00000c6c       ??_C@_02FGJGFEAB@?$CG?$DN?$AA@ 000000018001bc6c     libvcruntime:undname.obj
 0002:00000c70       ??_C@_02DHLNPPGH@?$HM?$DN?$AA@ 000000018001bc70     libvcruntime:undname.obj
 0002:00000c74       ??_C@_02MHEGNOJ@?$FO?$DN?$AA@ 000000018001bc74     libvcruntime:undname.obj
 0002:00000c78       ??_C@_09IFPLHPGF@?$GAvftable?8?$AA@ 000000018001bc78     libvcruntime:undname.obj
 0002:00000c88       ??_C@_09BLBHBJP@?$GAvbtable?8?$AA@ 000000018001bc88     libvcruntime:undname.obj
 0002:00000c98       ??_C@_07FEEIOKP@?$GAvcall?8?$AA@ 000000018001bc98     libvcruntime:undname.obj
 0002:00000ca0       ??_C@_08LLFFHHDJ@?$GAtypeof?8?$AA@ 000000018001bca0     libvcruntime:undname.obj
 0002:00000cb0       ??_C@_0BF@KDPPACIK@?$GAlocal?5static?5guard?8?$AA@ 000000018001bcb0     libvcruntime:undname.obj
 0002:00000cc8       ??_C@_08OBABFOLI@?$GAstring?8?$AA@ 000000018001bcc8     libvcruntime:undname.obj
 0002:00000cd8       ??_C@_0BD@JDLKDPAB@?$GAvbase?5destructor?8?$AA@ 000000018001bcd8     libvcruntime:undname.obj
 0002:00000cf0       ??_C@_0BN@DEGPLNFK@?$GAvector?5deleting?5destructor?8?$AA@ 000000018001bcf0     libvcruntime:undname.obj
 0002:00000d10       ??_C@_0BO@OBMKPJIG@?$GAdefault?5constructor?5closure?8?$AA@ 000000018001bd10     libvcruntime:undname.obj
 0002:00000d30       ??_C@_0BN@IMDCHIKM@?$GAscalar?5deleting?5destructor?8?$AA@ 000000018001bd30     libvcruntime:undname.obj
 0002:00000d50       ??_C@_0BO@PFGOCPJJ@?$GAvector?5constructor?5iterator?8?$AA@ 000000018001bd50     libvcruntime:undname.obj
 0002:00000d70       ??_C@_0BN@LFPFMEDL@?$GAvector?5destructor?5iterator?8?$AA@ 000000018001bd70     libvcruntime:undname.obj
 0002:00000d90       ??_C@_0CE@IKBNEHA@?$GAvector?5vbase?5constructor?5iterat@ 000000018001bd90     libvcruntime:undname.obj
 0002:00000db8       ??_C@_0BL@NILFHHPC@?$GAvirtual?5displacement?5map?8?$AA@ 000000018001bdb8     libvcruntime:undname.obj
 0002:00000dd8       ??_C@_0CB@JONCMFFK@?$GAeh?5vector?5constructor?5iterator?8@ 000000018001bdd8     libvcruntime:undname.obj
 0002:00000e00       ??_C@_0CA@GCEOPDGL@?$GAeh?5vector?5destructor?5iterator?8?$AA@ 000000018001be00     libvcruntime:undname.obj
 0002:00000e20       ??_C@_0CH@OOJPLCPH@?$GAeh?5vector?5vbase?5constructor?5ite@ 000000018001be20     libvcruntime:undname.obj
 0002:00000e48       ??_C@_0BL@LLKPOHJI@?$GAcopy?5constructor?5closure?8?$AA@ 000000018001be48     libvcruntime:undname.obj
 0002:00000e68       ??_C@_0BA@KBCDOMBN@?$GAudt?5returning?8?$AA@ 000000018001be68     libvcruntime:undname.obj
 0002:00000e78       ??_C@_03KLGMFNMG@?$GAEH?$AA@ 000000018001be78     libvcruntime:undname.obj
 0002:00000e7c       ??_C@_05KHLCHHI@?$GARTTI?$AA@ 000000018001be7c     libvcruntime:undname.obj
 0002:00000e88       ??_C@_0BA@KKLDJDLB@?$GAlocal?5vftable?8?$AA@ 000000018001be88     libvcruntime:undname.obj
 0002:00000e98       ??_C@_0CE@IIHCMGGL@?$GAlocal?5vftable?5constructor?5closu@ 000000018001be98     libvcruntime:undname.obj
 0002:00000ebc       ??_C@_06FHBGPFGH@?5new?$FL?$FN?$AA@ 000000018001bebc     libvcruntime:undname.obj
 0002:00000ec8       ??_C@_09LBNFPBCA@?5delete?$FL?$FN?$AA@ 000000018001bec8     libvcruntime:undname.obj
 0002:00000ed8       ??_C@_0P@HJKNJFNN@?$GAomni?5callsig?8?$AA@ 000000018001bed8     libvcruntime:undname.obj
 0002:00000ee8       ??_C@_0BL@CNOONJFP@?$GAplacement?5delete?5closure?8?$AA@ 000000018001bee8     libvcruntime:undname.obj
 0002:00000f08       ??_C@_0BN@CKNJLHMB@?$GAplacement?5delete?$FL?$FN?5closure?8?$AA@ 000000018001bf08     libvcruntime:undname.obj
 0002:00000f28       ??_C@_0CG@CFDHKGGD@?$GAmanaged?5vector?5constructor?5iter@ 000000018001bf28     libvcruntime:undname.obj
 0002:00000f50       ??_C@_0CF@IMGKMJNO@?$GAmanaged?5vector?5destructor?5itera@ 000000018001bf50     libvcruntime:undname.obj
 0002:00000f78       ??_C@_0CG@HLDDJMAG@?$GAeh?5vector?5copy?5constructor?5iter@ 000000018001bf78     libvcruntime:undname.obj
 0002:00000fa0       ??_C@_0CM@FCBBDIGB@?$GAeh?5vector?5vbase?5copy?5constructo@ 000000018001bfa0     libvcruntime:undname.obj
 0002:00000fd0       ??_C@_0BL@CLIPGLGB@?$GAdynamic?5initializer?5for?5?8?$AA@ 000000018001bfd0     libvcruntime:undname.obj
 0002:00000ff0       ??_C@_0CB@PDBIFEP@?$GAdynamic?5atexit?5destructor?5for?5?8@ 000000018001bff0     libvcruntime:undname.obj
 0002:00001018       ??_C@_0CD@CGAJBKEJ@?$GAvector?5copy?5constructor?5iterato@ 000000018001c018     libvcruntime:undname.obj
 0002:00001040       ??_C@_0CJ@GJELGAMM@?$GAvector?5vbase?5copy?5constructor?5i@ 000000018001c040     libvcruntime:undname.obj
 0002:00001070       ??_C@_0CL@FGIJHLCE@?$GAmanaged?5vector?5copy?5constructor@ 000000018001c070     libvcruntime:undname.obj
 0002:000010a0       ??_C@_0BM@PMGGMLDN@?$GAlocal?5static?5thread?5guard?8?$AA@ 000000018001c0a0     libvcruntime:undname.obj
 0002:000010c0       ??_C@_0N@BDNMDMOL@operator?5?$CC?$CC?5?$AA@ 000000018001c0c0     libvcruntime:undname.obj
 0002:000010d0       ??_C@_0BC@GGEBGALA@operator?5co_await?$AA@ 000000018001c0d0     libvcruntime:undname.obj
 0002:000010e8       ??_C@_0BC@DAFEJGAK@?5Type?5Descriptor?8?$AA@ 000000018001c0e8     libvcruntime:undname.obj
 0002:00001260       ??_C@_1EK@MBDPDCGA@?$AAM?$AAi?$AAc?$AAr?$AAo?$AAs?$AAo?$AAf?$AAt?$AA?5?$AAV?$AAi?$AAs?$AAu?$AAa?$AAl?$AA?5?$AAC?$AA?$CL?$AA?$CL?$AA?5?$AAR?$AAu?$AAn?$AAt?$AAi?$AAm?$AAe?$AA?5?$AAL?$AAi?$AAb@ 000000018001c260     libucrt:assert.obj
 0002:000012b0       ??_C@_1FE@LHBLIKM@?$AAA?$AAs?$AAs?$AAe?$AAr?$AAt?$AAi?$AAo?$AAn?$AA?5?$AAf?$AAa?$AAi?$AAl?$AAe?$AAd?$AA?3?$AA?5?$AA?$CF?$AAT?$AAs?$AA?0?$AA?5?$AAf?$AAi?$AAl?$AAe?$AA?5?$AA?$CF?$AAT?$AAs?$AA?0@ 000000018001c2b0     libucrt:assert.obj
 0002:00001308       ??_C@_1CE@OJBNHDMO@?$AAA?$AAs?$AAs?$AAe?$AAr?$AAt?$AAi?$AAo?$AAn?$AA?5?$AAf?$AAa?$AAi?$AAl?$AAe?$AAd?$AA?$CB?$AA?$AA@ 000000018001c308     libucrt:assert.obj
 0002:00001330       ??_C@_1BE@PHKBBGE@?$AAP?$AAr?$AAo?$AAg?$AAr?$AAa?$AAm?$AA?3?$AA?5?$AA?$AA@ 000000018001c330     libucrt:assert.obj
 0002:00001348       ??_C@_1O@HEMHKNDC@?$AAF?$AAi?$AAl?$AAe?$AA?3?$AA?5?$AA?$AA@ 000000018001c348     libucrt:assert.obj
 0002:00001358       ??_C@_1O@KCAFKHJE@?$AAL?$AAi?$AAn?$AAe?$AA?3?$AA?5?$AA?$AA@ 000000018001c358     libucrt:assert.obj
 0002:00001368       ??_C@_1BK@PEDCIPMA@?$AAE?$AAx?$AAp?$AAr?$AAe?$AAs?$AAs?$AAi?$AAo?$AAn?$AA?3?$AA?5?$AA?$AA@ 000000018001c368     libucrt:assert.obj
 0002:00001390       ??_C@_1OA@EGMLFBHJ@?$AAF?$AAo?$AAr?$AA?5?$AAi?$AAn?$AAf?$AAo?$AAr?$AAm?$AAa?$AAt?$AAi?$AAo?$AAn?$AA?5?$AAo?$AAn?$AA?5?$AAh?$AAo?$AAw?$AA?5?$AAy?$AAo?$AAu?$AAr?$AA?5?$AAp?$AAr?$AAo?$AAg@ 000000018001c390     libucrt:assert.obj
 0002:00001470       ??_C@_1HK@POCJMFGK@?$AA?$CI?$AAP?$AAr?$AAe?$AAs?$AAs?$AA?5?$AAR?$AAe?$AAt?$AAr?$AAy?$AA?5?$AAt?$AAo?$AA?5?$AAd?$AAe?$AAb?$AAu?$AAg?$AA?5?$AAt?$AAh?$AAe?$AA?5?$AAa?$AAp?$AAp?$AAl?$AAi?$AAc@ 000000018001c470     libucrt:assert.obj
 0002:000014f0       ??_C@_17LGKOMLJ@?$AA?4?$AA?4?$AA?4?$AA?$AA@ 000000018001c4f0     libucrt:assert.obj
 0002:000014f8       ??_C@_13LBAGMAIH@?$AA?6?$AA?$AA@ 000000018001c4f8     libucrt:assert.obj
 0002:000014fc       ??_C@_15IABLJNFO@?$AA?6?$AA?6?$AA?$AA@ 000000018001c4fc     libucrt:assert.obj
 0002:00001508       ??_C@_1CO@EAEJAADC@?$AA?$DM?$AAp?$AAr?$AAo?$AAg?$AAr?$AAa?$AAm?$AA?5?$AAn?$AAa?$AAm?$AAe?$AA?5?$AAu?$AAn?$AAk?$AAn?$AAo?$AAw?$AAn?$AA?$DO?$AA?$AA@ 000000018001c508     libucrt:assert.obj
 0002:00001540       standard_lookup_table      000000018001c540     libucrt:output.obj
 0002:000015a0       ??_C@_1O@CEDCILHN@?$AA?$CI?$AAn?$AAu?$AAl?$AAl?$AA?$CJ?$AA?$AA@ 000000018001c5a0     libucrt:output.obj
 0002:000015b0       ??_C@_06OJHGLDPL@?$CInull?$CJ?$AA@ 000000018001c5b0     libucrt:output.obj
 0002:000015c0       __acrt_exception_action_table 000000018001c5c0     libucrt:exception_filter.obj
 0002:00001680       __acrt_signal_action_table_count 000000018001c680     libucrt:exception_filter.obj
 0002:00001688       __acrt_signal_action_first_fpe_index 000000018001c688     libucrt:exception_filter.obj
 0002:00001690       __acrt_signal_action_fpe_count 000000018001c690     libucrt:exception_filter.obj
 0002:00001698       ??_C@_1BI@BGOHAHKC@?$AAm?$AAs?$AAc?$AAo?$AAr?$AAe?$AAe?$AA?4?$AAd?$AAl?$AAl?$AA?$AA@ 000000018001c698     libucrt:exit.obj
 0002:000016b0       ??_C@_0P@MIGLKIOC@CorExitProcess?$AA@ 000000018001c6b0     libucrt:exit.obj
 0002:000017b0       ??_C@_03OEIAHPBN@INF?$AA@  000000018001c7b0     libucrt:cvt.obj
 0002:000017b4       ??_C@_03OJHLLCGB@inf?$AA@  000000018001c7b4     libucrt:cvt.obj
 0002:000017b8       ??_C@_03LKNCIKJB@NAN?$AA@  000000018001c7b8     libucrt:cvt.obj
 0002:000017bc       ??_C@_03LHCJEHON@nan?$AA@  000000018001c7bc     libucrt:cvt.obj
 0002:000017c0       ??_C@_09OFJJIMPC@NAN?$CISNAN?$CJ?$AA@ 000000018001c7c0     libucrt:cvt.obj
 0002:000017d0       ??_C@_09IPFBKMDL@nan?$CIsnan?$CJ?$AA@ 000000018001c7d0     libucrt:cvt.obj
 0002:000017e0       ??_C@_08IKHNHAJ@NAN?$CIIND?$CJ?$AA@ 000000018001c7e0     libucrt:cvt.obj
 0002:000017f0       ??_C@_08OFCDMILK@nan?$CIind?$CJ?$AA@ 000000018001c7f0     libucrt:cvt.obj
 0002:000017fc       ??_C@_05KLBDPFGC@e?$CL000?$AA@ 000000018001c7fc     libucrt:cvt.obj
 0002:00001804       ??_C@_03KOEHGMDN@Sun?$AA@  000000018001c804     libucrt:nlsdata.obj
 0002:00001808       ??_C@_03PDAGKDH@Mon?$AA@   000000018001c808     libucrt:nlsdata.obj
 0002:0000180c       ??_C@_03NAGEINEP@Tue?$AA@  000000018001c80c     libucrt:nlsdata.obj
 0002:00001810       ??_C@_03MHOMLAJA@Wed?$AA@  000000018001c810     libucrt:nlsdata.obj
 0002:00001814       ??_C@_03IOFIKPDN@Thu?$AA@  000000018001c814     libucrt:nlsdata.obj
 0002:00001818       ??_C@_03IDIOELNC@Fri?$AA@  000000018001c818     libucrt:nlsdata.obj
 0002:0000181c       ??_C@_03FEFJNEK@Sat?$AA@   000000018001c81c     libucrt:nlsdata.obj
 0002:00001820       ??_C@_06OOPIFAJ@Sunday?$AA@ 000000018001c820     libucrt:nlsdata.obj
 0002:00001828       ??_C@_06JLEDEDGH@Monday?$AA@ 000000018001c828     libucrt:nlsdata.obj
 0002:00001830       ??_C@_07BAAGCFCM@Tuesday?$AA@ 000000018001c830     libucrt:nlsdata.obj
 0002:00001838       ??_C@_09DLIGFAKA@Wednesday?$AA@ 000000018001c838     libucrt:nlsdata.obj
 0002:00001848       ??_C@_08HACCIKIA@Thursday?$AA@ 000000018001c848     libucrt:nlsdata.obj
 0002:00001854       ??_C@_06JECMNKMI@Friday?$AA@ 000000018001c854     libucrt:nlsdata.obj
 0002:00001860       ??_C@_08INBOOONO@Saturday?$AA@ 000000018001c860     libucrt:nlsdata.obj
 0002:0000186c       ??_C@_03JIHJHPIE@Jan?$AA@  000000018001c86c     libucrt:nlsdata.obj
 0002:00001870       ??_C@_03HJBDCHOM@Feb?$AA@  000000018001c870     libucrt:nlsdata.obj
 0002:00001874       ??_C@_03ODNJBKGA@Mar?$AA@  000000018001c874     libucrt:nlsdata.obj
 0002:00001878       ??_C@_03LEOLGMJP@Apr?$AA@  000000018001c878     libucrt:nlsdata.obj
 0002:0000187c       ??_C@_03CNMDKL@May?$AA@    000000018001c87c     libucrt:nlsdata.obj
 0002:00001880       ??_C@_03IDFGHECI@Jun?$AA@  000000018001c880     libucrt:nlsdata.obj
 0002:00001884       ??_C@_03LBGABGKK@Jul?$AA@  000000018001c884     libucrt:nlsdata.obj
 0002:00001888       ??_C@_03IFJFEIGA@Aug?$AA@  000000018001c888     libucrt:nlsdata.obj
 0002:0000188c       ??_C@_03GGCAPAJC@Sep?$AA@  000000018001c88c     libucrt:nlsdata.obj
 0002:00001890       ??_C@_03BMAOKBAD@Oct?$AA@  000000018001c890     libucrt:nlsdata.obj
 0002:00001894       ??_C@_03JPJOFNIA@Nov?$AA@  000000018001c894     libucrt:nlsdata.obj
 0002:00001898       ??_C@_03MKABNOCG@Dec?$AA@  000000018001c898     libucrt:nlsdata.obj
 0002:000018a0       ??_C@_07CGJPFGJA@January?$AA@ 000000018001c8a0     libucrt:nlsdata.obj
 0002:000018a8       ??_C@_08GNJGEPFN@February?$AA@ 000000018001c8a8     libucrt:nlsdata.obj
 0002:000018b4       ??_C@_05HPCKOFNC@March?$AA@ 000000018001c8b4     libucrt:nlsdata.obj
 0002:000018bc       ??_C@_05DMJDNLEJ@April?$AA@ 000000018001c8bc     libucrt:nlsdata.obj
 0002:000018c4       ??_C@_04CNLMGBGM@June?$AA@ 000000018001c8c4     libucrt:nlsdata.obj
 0002:000018cc       ??_C@_04MIEPOIFP@July?$AA@ 000000018001c8cc     libucrt:nlsdata.obj
 0002:000018d4       ??_C@_06LBBHFDDG@August?$AA@ 000000018001c8d4     libucrt:nlsdata.obj
 0002:000018e0       ??_C@_09BHHEALKD@September?$AA@ 000000018001c8e0     libucrt:nlsdata.obj
 0002:000018f0       ??_C@_07JJNFCEND@October?$AA@ 000000018001c8f0     libucrt:nlsdata.obj
 0002:000018f8       ??_C@_08HCHEGEOA@November?$AA@ 000000018001c8f8     libucrt:nlsdata.obj
 0002:00001908       ??_C@_08EDHMEBNP@December?$AA@ 000000018001c908     libucrt:nlsdata.obj
 0002:00001914       ??_C@_02DEDBPAFC@AM?$AA@   000000018001c914     libucrt:nlsdata.obj
 0002:00001918       ??_C@_02CJNFDJBF@PM?$AA@   000000018001c918     libucrt:nlsdata.obj
 0002:00001920       ??_C@_08BPBNCDIB@MM?1dd?1yy?$AA@ 000000018001c920     libucrt:nlsdata.obj
 0002:00001930       ??_C@_0BE@CKGJFCPC@dddd?0?5MMMM?5dd?0?5yyyy?$AA@ 000000018001c930     libucrt:nlsdata.obj
 0002:00001948       ??_C@_08JCCMCCIL@HH?3mm?3ss?$AA@ 000000018001c948     libucrt:nlsdata.obj
 0002:00001958       ??_C@_17MBGCMIPB@?$AAS?$AAu?$AAn?$AA?$AA@ 000000018001c958     libucrt:nlsdata.obj
 0002:00001960       ??_C@_17KBOMKBF@?$AAM?$AAo?$AAn?$AA?$AA@ 000000018001c960     libucrt:nlsdata.obj
 0002:00001968       ??_C@_17BMKGEGOJ@?$AAT?$AAu?$AAe?$AA?$AA@ 000000018001c968     libucrt:nlsdata.obj
 0002:00001970       ??_C@_17CJEDCEPE@?$AAW?$AAe?$AAd?$AA?$AA@ 000000018001c970     libucrt:nlsdata.obj
 0002:00001978       ??_C@_17PDPHAADD@?$AAT?$AAh?$AAu?$AA?$AA@ 000000018001c978     libucrt:nlsdata.obj
 0002:00001980       ??_C@_17HFOLPPLP@?$AAF?$AAr?$AAi?$AA?$AA@ 000000018001c980     libucrt:nlsdata.obj
 0002:00001988       ??_C@_17GGIBDPIH@?$AAS?$AAa?$AAt?$AA?$AA@ 000000018001c988     libucrt:nlsdata.obj
 0002:00001990       ??_C@_1O@IHNHDHPB@?$AAS?$AAu?$AAn?$AAd?$AAa?$AAy?$AA?$AA@ 000000018001c990     libucrt:nlsdata.obj
 0002:000019a0       ??_C@_1O@MMNBFLIA@?$AAM?$AAo?$AAn?$AAd?$AAa?$AAy?$AA?$AA@ 000000018001c9a0     libucrt:nlsdata.obj
 0002:000019b0       ??_C@_1BA@ENFBFFEK@?$AAT?$AAu?$AAe?$AAs?$AAd?$AAa?$AAy?$AA?$AA@ 000000018001c9b0     libucrt:nlsdata.obj
 0002:000019c0       ??_C@_1BE@EBOGMDOH@?$AAW?$AAe?$AAd?$AAn?$AAe?$AAs?$AAd?$AAa?$AAy?$AA?$AA@ 000000018001c9c0     libucrt:nlsdata.obj
 0002:000019d8       ??_C@_1BC@HHMNLIHE@?$AAT?$AAh?$AAu?$AAr?$AAs?$AAd?$AAa?$AAy?$AA?$AA@ 000000018001c9d8     libucrt:nlsdata.obj
 0002:000019f0       ??_C@_1O@PDICJHAG@?$AAF?$AAr?$AAi?$AAd?$AAa?$AAy?$AA?$AA@ 000000018001c9f0     libucrt:nlsdata.obj
 0002:00001a00       ??_C@_1BC@ENMNNPAJ@?$AAS?$AAa?$AAt?$AAu?$AAr?$AAd?$AAa?$AAy?$AA?$AA@ 000000018001ca00     libucrt:nlsdata.obj
 0002:00001a18       ??_C@_17DKNBKCHM@?$AAJ?$AAa?$AAn?$AA?$AA@ 000000018001ca18     libucrt:nlsdata.obj
 0002:00001a20       ??_C@_17LMDJEKJN@?$AAF?$AAe?$AAb?$AA?$AA@ 000000018001ca20     libucrt:nlsdata.obj
 0002:00001a28       ??_C@_17CKNLEDEC@?$AAM?$AAa?$AAr?$AA?$AA@ 000000018001ca28     libucrt:nlsdata.obj
 0002:00001a30       ??_C@_17LFPOIHDD@?$AAA?$AAp?$AAr?$AA?$AA@ 000000018001ca30     libucrt:nlsdata.obj
 0002:00001a38       ??_C@_17PNNKMEED@?$AAM?$AAa?$AAy?$AA?$AA@ 000000018001ca38     libucrt:nlsdata.obj
 0002:00001a40       ??_C@_17KCJGOCPB@?$AAJ?$AAu?$AAn?$AA?$AA@ 000000018001ca40     libucrt:nlsdata.obj
 0002:00001a48       ??_C@_17IJPCKHK@?$AAJ?$AAu?$AAl?$AA?$AA@ 000000018001ca48     libucrt:nlsdata.obj
 0002:00001a50       ??_C@_17ICPELBCN@?$AAA?$AAu?$AAg?$AA?$AA@ 000000018001ca50     libucrt:nlsdata.obj
 0002:00001a58       ??_C@_17HCHCOKMG@?$AAS?$AAe?$AAp?$AA?$AA@ 000000018001ca58     libucrt:nlsdata.obj
 0002:00001a60       ??_C@_17FNLKOI@?$AAO?$AAc?$AAt?$AA?$AA@ 000000018001ca60     libucrt:nlsdata.obj
 0002:00001a68       ??_C@_17BBDMLCIG@?$AAN?$AAo?$AAv?$AA?$AA@ 000000018001ca68     libucrt:nlsdata.obj
 0002:00001a70       ??_C@_17EGKACKIF@?$AAD?$AAe?$AAc?$AA?$AA@ 000000018001ca70     libucrt:nlsdata.obj
 0002:00001a78       ??_C@_1BA@EFMEIEBA@?$AAJ?$AAa?$AAn?$AAu?$AAa?$AAr?$AAy?$AA?$AA@ 000000018001ca78     libucrt:nlsdata.obj
 0002:00001a88       ??_C@_1BC@JGDDFFAM@?$AAF?$AAe?$AAb?$AAr?$AAu?$AAa?$AAr?$AAy?$AA?$AA@ 000000018001ca88     libucrt:nlsdata.obj
 0002:00001aa0       ??_C@_1M@IKEENEDF@?$AAM?$AAa?$AAr?$AAc?$AAh?$AA?$AA@ 000000018001caa0     libucrt:nlsdata.obj
 0002:00001ab0       ??_C@_1M@GJNLMHFD@?$AAA?$AAp?$AAr?$AAi?$AAl?$AA?$AA@ 000000018001cab0     libucrt:nlsdata.obj
 0002:00001ac0       ??_C@_19EPFLPGAP@?$AAJ?$AAu?$AAn?$AAe?$AA?$AA@ 000000018001cac0     libucrt:nlsdata.obj
 0002:00001ad0       ??_C@_19BIFMLPCD@?$AAJ?$AAu?$AAl?$AAy?$AA?$AA@ 000000018001cad0     libucrt:nlsdata.obj
 0002:00001ae0       ??_C@_1O@PAHLKOAC@?$AAA?$AAu?$AAg?$AAu?$AAs?$AAt?$AA?$AA@ 000000018001cae0     libucrt:nlsdata.obj
 0002:00001af0       ??_C@_1BE@DKAAMBJL@?$AAS?$AAe?$AAp?$AAt?$AAe?$AAm?$AAb?$AAe?$AAr?$AA?$AA@ 000000018001caf0     libucrt:nlsdata.obj
 0002:00001b08       ??_C@_1BA@EPANDLNG@?$AAO?$AAc?$AAt?$AAo?$AAb?$AAe?$AAr?$AA?$AA@ 000000018001cb08     libucrt:nlsdata.obj
 0002:00001b18       ??_C@_1BC@BGLIFPF@?$AAN?$AAo?$AAv?$AAe?$AAm?$AAb?$AAe?$AAr?$AA?$AA@ 000000018001cb18     libucrt:nlsdata.obj
 0002:00001b30       ??_C@_1BC@FEMKIFH@?$AAD?$AAe?$AAc?$AAe?$AAm?$AAb?$AAe?$AAr?$AA?$AA@ 000000018001cb30     libucrt:nlsdata.obj
 0002:00001b44       ??_C@_15ODEHAHHF@?$AAA?$AAM?$AA?$AA@ 000000018001cb44     libucrt:nlsdata.obj
 0002:00001b4c       ??_C@_15CLMNNGEL@?$AAP?$AAM?$AA?$AA@ 000000018001cb4c     libucrt:nlsdata.obj
 0002:00001b58       ??_C@_1BC@IEBCMHCM@?$AAM?$AAM?$AA?1?$AAd?$AAd?$AA?1?$AAy?$AAy?$AA?$AA@ 000000018001cb58     libucrt:nlsdata.obj
 0002:00001b70       ??_C@_1CI@KNAKOEBC@?$AAd?$AAd?$AAd?$AAd?$AA?0?$AA?5?$AAM?$AAM?$AAM?$AAM?$AA?5?$AAd?$AAd?$AA?0?$AA?5?$AAy?$AAy?$AAy?$AAy?$AA?$AA@ 000000018001cb70     libucrt:nlsdata.obj
 0002:00001b98       ??_C@_1BC@GDGBMEMK@?$AAH?$AAH?$AA?3?$AAm?$AAm?$AA?3?$AAs?$AAs?$AA?$AA@ 000000018001cb98     libucrt:nlsdata.obj
 0002:00001bb0       ??_C@_1M@BMHNFIME@?$AAe?$AAn?$AA?9?$AAU?$AAS?$AA?$AA@ 000000018001cbb0     libucrt:nlsdata.obj
 0002:00001bc0       __lc_time_c                000000018001cbc0     libucrt:nlsdata.obj
 0002:00001ea0       ??_C@_1M@HPNHIDJI@?$AAj?$AAa?$AA?9?$AAJ?$AAP?$AA?$AA@ 000000018001cea0     libucrt:mbctype.obj
 0002:00001eb0       ??_C@_1M@BIBDDEMK@?$AAz?$AAh?$AA?9?$AAC?$AAN?$AA?$AA@ 000000018001ceb0     libucrt:mbctype.obj
 0002:00001ec0       ??_C@_1M@JLOOOEGK@?$AAk?$AAo?$AA?9?$AAK?$AAR?$AA?$AA@ 000000018001cec0     libucrt:mbctype.obj
 0002:00001ed0       ??_C@_1M@CLNBBOPM@?$AAz?$AAh?$AA?9?$AAT?$AAW?$AA?$AA@ 000000018001ced0     libucrt:mbctype.obj
 0002:00001f80       ??_C@_1EA@JGEFHKEI@?$AAa?$AAp?$AAi?$AA?9?$AAm?$AAs?$AA?9?$AAw?$AAi?$AAn?$AA?9?$AAc?$AAo?$AAr?$AAe?$AA?9?$AAd?$AAa?$AAt?$AAe?$AAt?$AAi?$AAm?$AAe?$AA?9?$AAl?$AA1?$AA?9?$AA1?$AA?9?$AA1?$AA?$AA@ 000000018001cf80     libucrt:winapi_thunks.obj
 0002:00001fc0       ??_C@_1DI@IJCEHOCB@?$AAa?$AAp?$AAi?$AA?9?$AAm?$AAs?$AA?9?$AAw?$AAi?$AAn?$AA?9?$AAc?$AAo?$AAr?$AAe?$AA?9?$AAf?$AAi?$AAl?$AAe?$AA?9?$AAl?$AA1?$AA?9?$AA2?$AA?9?$AA2?$AA?$AA@ 000000018001cfc0     libucrt:winapi_thunks.obj
 0002:00002000       ??_C@_1EI@MPIAOHOC@?$AAa?$AAp?$AAi?$AA?9?$AAm?$AAs?$AA?9?$AAw?$AAi?$AAn?$AA?9?$AAc?$AAo?$AAr?$AAe?$AA?9?$AAl?$AAo?$AAc?$AAa?$AAl?$AAi?$AAz?$AAa?$AAt?$AAi?$AAo?$AAn?$AA?9?$AAl?$AA1?$AA?9@ 000000018001d000     libucrt:winapi_thunks.obj
 0002:00002050       ??_C@_1FK@FPHCKFIE@?$AAa?$AAp?$AAi?$AA?9?$AAm?$AAs?$AA?9?$AAw?$AAi?$AAn?$AA?9?$AAc?$AAo?$AAr?$AAe?$AA?9?$AAl?$AAo?$AAc?$AAa?$AAl?$AAi?$AAz?$AAa?$AAt?$AAi?$AAo?$AAn?$AA?9?$AAo?$AAb?$AAs@ 000000018001d050     libucrt:winapi_thunks.obj
 0002:000020b0       ??_C@_1EM@DILCGIIO@?$AAa?$AAp?$AAi?$AA?9?$AAm?$AAs?$AA?9?$AAw?$AAi?$AAn?$AA?9?$AAc?$AAo?$AAr?$AAe?$AA?9?$AAp?$AAr?$AAo?$AAc?$AAe?$AAs?$AAs?$AAt?$AAh?$AAr?$AAe?$AAa?$AAd?$AAs?$AA?9?$AAl@ 000000018001d0b0     libucrt:winapi_thunks.obj
 0002:00002100       ??_C@_1DM@LNCGDDPN@?$AAa?$AAp?$AAi?$AA?9?$AAm?$AAs?$AA?9?$AAw?$AAi?$AAn?$AA?9?$AAc?$AAo?$AAr?$AAe?$AA?9?$AAs?$AAt?$AAr?$AAi?$AAn?$AAg?$AA?9?$AAl?$AA1?$AA?9?$AA1?$AA?9?$AA0?$AA?$AA@ 000000018001d100     libucrt:winapi_thunks.obj
 0002:00002140       ??_C@_1DO@FPAPJEMD@?$AAa?$AAp?$AAi?$AA?9?$AAm?$AAs?$AA?9?$AAw?$AAi?$AAn?$AA?9?$AAc?$AAo?$AAr?$AAe?$AA?9?$AAs?$AAy?$AAs?$AAi?$AAn?$AAf?$AAo?$AA?9?$AAl?$AA1?$AA?9?$AA2?$AA?9?$AA1?$AA?$AA@ 000000018001d140     libucrt:winapi_thunks.obj
 0002:00002180       ??_C@_1DK@NDHNAHIO@?$AAa?$AAp?$AAi?$AA?9?$AAm?$AAs?$AA?9?$AAw?$AAi?$AAn?$AA?9?$AAc?$AAo?$AAr?$AAe?$AA?9?$AAw?$AAi?$AAn?$AAr?$AAt?$AA?9?$AAl?$AA1?$AA?9?$AA1?$AA?9?$AA0?$AA?$AA@ 000000018001d180     libucrt:winapi_thunks.obj
 0002:000021c0       ??_C@_1DM@KGHDGBCM@?$AAa?$AAp?$AAi?$AA?9?$AAm?$AAs?$AA?9?$AAw?$AAi?$AAn?$AA?9?$AAc?$AAo?$AAr?$AAe?$AA?9?$AAx?$AAs?$AAt?$AAa?$AAt?$AAe?$AA?9?$AAl?$AA2?$AA?9?$AA1?$AA?9?$AA0?$AA?$AA@ 000000018001d1c0     libucrt:winapi_thunks.obj
 0002:00002200       ??_C@_1EO@IJIOEFOH@?$AAa?$AAp?$AAi?$AA?9?$AAm?$AAs?$AA?9?$AAw?$AAi?$AAn?$AA?9?$AAr?$AAt?$AAc?$AAo?$AAr?$AAe?$AA?9?$AAn?$AAt?$AAu?$AAs?$AAe?$AAr?$AA?9?$AAw?$AAi?$AAn?$AAd?$AAo?$AAw?$AA?9@ 000000018001d200     libucrt:winapi_thunks.obj
 0002:00002250       ??_C@_1FG@HHGEKANL@?$AAa?$AAp?$AAi?$AA?9?$AAm?$AAs?$AA?9?$AAw?$AAi?$AAn?$AA?9?$AAs?$AAe?$AAc?$AAu?$AAr?$AAi?$AAt?$AAy?$AA?9?$AAs?$AAy?$AAs?$AAt?$AAe?$AAm?$AAf?$AAu?$AAn?$AAc?$AAt?$AAi@ 000000018001d250     libucrt:winapi_thunks.obj
 0002:000022b0       ??_C@_1EG@DBIOJECG@?$AAe?$AAx?$AAt?$AA?9?$AAm?$AAs?$AA?9?$AAw?$AAi?$AAn?$AA?9?$AAn?$AAt?$AAu?$AAs?$AAe?$AAr?$AA?9?$AAd?$AAi?$AAa?$AAl?$AAo?$AAg?$AAb?$AAo?$AAx?$AA?9?$AAl?$AA1?$AA?9?$AA1@ 000000018001d2b0     libucrt:winapi_thunks.obj
 0002:00002300       ??_C@_1EO@FIHMJCLF@?$AAe?$AAx?$AAt?$AA?9?$AAm?$AAs?$AA?9?$AAw?$AAi?$AAn?$AA?9?$AAn?$AAt?$AAu?$AAs?$AAe?$AAr?$AA?9?$AAw?$AAi?$AAn?$AAd?$AAo?$AAw?$AAs?$AAt?$AAa?$AAt?$AAi?$AAo?$AAn?$AA?9@ 000000018001d300     libucrt:winapi_thunks.obj
 0002:00002350       ??_C@_1BC@DNHGCMLG@?$AAa?$AAd?$AAv?$AAa?$AAp?$AAi?$AA3?$AA2?$AA?$AA@ 000000018001d350     libucrt:winapi_thunks.obj
 0002:00002368       ??_C@_1M@OAIMIKLP@?$AAn?$AAt?$AAd?$AAl?$AAl?$AA?$AA@ 000000018001d368     libucrt:winapi_thunks.obj
 0002:00002380       ??_C@_1EG@DPGNFKGC@?$AAa?$AAp?$AAi?$AA?9?$AAm?$AAs?$AA?9?$AAw?$AAi?$AAn?$AA?9?$AAa?$AAp?$AAp?$AAm?$AAo?$AAd?$AAe?$AAl?$AA?9?$AAr?$AAu?$AAn?$AAt?$AAi?$AAm?$AAe?$AA?9?$AAl?$AA1?$AA?9?$AA1@ 000000018001d380     libucrt:winapi_thunks.obj
 0002:000023c8       ??_C@_1O@BCCLBEOE@?$AAu?$AAs?$AAe?$AAr?$AA3?$AA2?$AA?$AA@ 000000018001d3c8     libucrt:winapi_thunks.obj
 0002:00002400       ??_C@_0BA@HNOPNCHB@GetActiveWindow?$AA@ 000000018001d400     libucrt:winapi_thunks.obj
 0002:00002418       ??_C@_0BD@HHGDFDBJ@GetLastActivePopup?$AA@ 000000018001d418     libucrt:winapi_thunks.obj
 0002:00002438       ??_C@_0BI@DFKBFLJE@GetProcessWindowStation?$AA@ 000000018001d438     libucrt:winapi_thunks.obj
 0002:00002458       ??_C@_0BK@DEKFELLI@GetUserObjectInformationW?$AA@ 000000018001d458     libucrt:winapi_thunks.obj
 0002:00002488       ??_C@_0O@KKBNKAPF@LCMapStringEx?$AA@ 000000018001d488     libucrt:winapi_thunks.obj
 0002:000024a0       ??_C@_0BB@HBDEELFH@LocaleNameToLCID?$AA@ 000000018001d4a0     libucrt:winapi_thunks.obj
 0002:000024c0       ??_C@_0M@CHKKJDAI@MessageBoxA?$AA@ 000000018001d4c0     libucrt:winapi_thunks.obj
 0002:000024d8       ??_C@_0M@DLDCCGNP@MessageBoxW?$AA@ 000000018001d4d8     libucrt:winapi_thunks.obj
 0002:000024e8       ??_C@_0CF@OJOFEIGO@AppPolicyGetProcessTerminationMe@ 000000018001d4e8     libucrt:winapi_thunks.obj
 0002:00002518       ??_C@_0CE@OICFMIKE@AppPolicyGetShowDeveloperDiagnos@ 000000018001d518     libucrt:winapi_thunks.obj
 0002:00002540       ??_C@_0BL@ODDJNEDA@AppPolicyGetWindowingModel?$AA@ 000000018001d540     libucrt:winapi_thunks.obj
 0002:00002560       _wctype                    000000018001d560     libucrt:ctype.obj
 0002:00002770       __newctype                 000000018001d770     libucrt:ctype.obj
 0002:00002a70       __newclmap                 000000018001da70     libucrt:ctype.obj
 0002:00002bf0       __newcumap                 000000018001dbf0     libucrt:ctype.obj
 0002:00002d70       ?large_power_data@?1??multiply_by_power_of_ten@__crt_strtox@@YA_NAEAUbig_integer@2@I@Z@4QBIB 000000018001dd70     libucrt:cfout.obj
 0002:00003680       ?large_power_indices@?1??multiply_by_power_of_ten@__crt_strtox@@YA_NAEAUbig_integer@2@I@Z@4QBUunpack_index@?1??12@YA_N0I@Z@B 000000018001e680     libucrt:cfout.obj
 0002:00003718       ?small_powers_of_ten@?1??multiply_by_power_of_ten@__crt_strtox@@YA_NAEAUbig_integer@2@I@Z@4QBIB 000000018001e718     libucrt:cfout.obj
 0002:0000373c       ??_C@_01GBGANLPD@0?$AA@    000000018001e73c     libucrt:cfout.obj
 0002:00003740       ??_C@_05DNEBIAHO@1?$CDINF?$AA@ 000000018001e740     libucrt:cfout.obj
 0002:00003748       ??_C@_06IMKFLFPG@1?$CDQNAN?$AA@ 000000018001e748     libucrt:cfout.obj
 0002:00003750       ??_C@_06PGGFOGJG@1?$CDSNAN?$AA@ 000000018001e750     libucrt:cfout.obj
 0002:00003758       ??_C@_05PHHOCPM@1?$CDIND?$AA@ 000000018001e758     libucrt:cfout.obj
 0002:00003760       ??_C@_15PJPFLCCM@?$AAu?$AAk?$AA?$AA@ 000000018001e760     libucrt:get_qualified_locale.obj
 0002:000045b0       ??_C@_15EMKDOKLE@?$AAa?$AAr?$AA?$AA@ 000000018001f5b0     libucrt:lcidtoname_downlevel.obj
 0002:000045b8       ??_C@_15KNPADPLH@?$AAb?$AAg?$AA?$AA@ 000000018001f5b8     libucrt:lcidtoname_downlevel.obj
 0002:000045c0       ??_C@_15EDMHLDMO@?$AAc?$AAa?$AA?$AA@ 000000018001f5c0     libucrt:lcidtoname_downlevel.obj
 0002:000045c8       ??_C@_1O@BPEAJADD@?$AAz?$AAh?$AA?9?$AAC?$AAH?$AAS?$AA?$AA@ 000000018001f5c8     libucrt:lcidtoname_downlevel.obj
 0002:000045d8       ??_C@_15LJNHCMNK@?$AAc?$AAs?$AA?$AA@ 000000018001f5d8     libucrt:lcidtoname_downlevel.obj
 0002:000045e0       ??_C@_15FOMCIDHG@?$AAd?$AAa?$AA?$AA@ 000000018001f5e0     libucrt:lcidtoname_downlevel.obj
 0002:000045e8       ??_C@_15NBKABECB@?$AAd?$AAe?$AA?$AA@ 000000018001f5e8     libucrt:lcidtoname_downlevel.obj
 0002:000045f0       ??_C@_15GHPEIIAO@?$AAe?$AAl?$AA?$AA@ 000000018001f5f0     libucrt:lcidtoname_downlevel.obj
 0002:000045f8       ??_C@_15MNPNEAIF@?$AAe?$AAn?$AA?$AA@ 000000018001f5f8     libucrt:lcidtoname_downlevel.obj
 0002:00004600       ??_C@_15GPIOMPMH@?$AAe?$AAs?$AA?$AA@ 000000018001f600     libucrt:lcidtoname_downlevel.obj
 0002:00004608       ??_C@_15NGLOAKJC@?$AAf?$AAi?$AA?$AA@ 000000018001f608     libucrt:lcidtoname_downlevel.obj
 0002:00004610       ??_C@_15FBKGNKAM@?$AAf?$AAr?$AA?$AA@ 000000018001f610     libucrt:lcidtoname_downlevel.obj
 0002:00004618       ??_C@_15KGGCNEFK@?$AAh?$AAe?$AA?$AA@ 000000018001f618     libucrt:lcidtoname_downlevel.obj
 0002:00004620       ??_C@_15PGHLIDMF@?$AAh?$AAu?$AA?$AA@ 000000018001f620     libucrt:lcidtoname_downlevel.obj
 0002:00004628       ??_C@_15BIEMAPLM@?$AAi?$AAs?$AA?$AA@ 000000018001f628     libucrt:lcidtoname_downlevel.obj
 0002:00004630       ??_C@_15IFJLDHAF@?$AAi?$AAt?$AA?$AA@ 000000018001f630     libucrt:lcidtoname_downlevel.obj
 0002:00004638       ??_C@_15GEMIOCAG@?$AAj?$AAa?$AA?$AA@ 000000018001f638     libucrt:lcidtoname_downlevel.obj
 0002:00004640       ??_C@_15EPELEGJA@?$AAk?$AAo?$AA?$AA@ 000000018001f640     libucrt:lcidtoname_downlevel.obj
 0002:00004648       ??_C@_15NDDHIMN@?$AAn?$AAl?$AA?$AA@ 000000018001f648     libucrt:lcidtoname_downlevel.obj
 0002:00004650       ??_C@_15BPIGNHCD@?$AAn?$AAo?$AA?$AA@ 000000018001f650     libucrt:lcidtoname_downlevel.obj
 0002:00004658       ??_C@_15DEOPBLCG@?$AAp?$AAl?$AA?$AA@ 000000018001f658     libucrt:lcidtoname_downlevel.obj
 0002:00004660       ??_C@_15KBECGEFG@?$AAp?$AAt?$AA?$AA@ 000000018001f660     libucrt:lcidtoname_downlevel.obj
 0002:00004668       ??_C@_15GLJCBFMD@?$AAr?$AAo?$AA?$AA@ 000000018001f668     libucrt:lcidtoname_downlevel.obj
 0002:00004670       ??_C@_15FEDGKCDI@?$AAr?$AAu?$AA?$AA@ 000000018001f670     libucrt:lcidtoname_downlevel.obj
 0002:00004678       ??_C@_15GLKMLLHM@?$AAh?$AAr?$AA?$AA@ 000000018001f678     libucrt:lcidtoname_downlevel.obj
 0002:00004680       ??_C@_15CPKMFBDB@?$AAs?$AAk?$AA?$AA@ 000000018001f680     libucrt:lcidtoname_downlevel.obj
 0002:00004688       ??_C@_15BAAIOGMK@?$AAs?$AAq?$AA?$AA@ 000000018001f688     libucrt:lcidtoname_downlevel.obj
 0002:00004690       ??_C@_15INNPNOHD@?$AAs?$AAv?$AA?$AA@ 000000018001f690     libucrt:lcidtoname_downlevel.obj
 0002:00004698       ??_C@_15CABMMOGH@?$AAt?$AAh?$AA?$AA@ 000000018001f698     libucrt:lcidtoname_downlevel.obj
 0002:000046a0       ??_C@_15BPLIHJJM@?$AAt?$AAr?$AA?$AA@ 000000018001f6a0     libucrt:lcidtoname_downlevel.obj
 0002:000046a8       ??_C@_15NEOEKKDJ@?$AAu?$AAr?$AA?$AA@ 000000018001f6a8     libucrt:lcidtoname_downlevel.obj
 0002:000046b0       ??_C@_15NFICGAJK@?$AAi?$AAd?$AA?$AA@ 000000018001f6b0     libucrt:lcidtoname_downlevel.obj
 0002:000046b8       ??_C@_15HPJPHDM@?$AAb?$AAe?$AA?$AA@ 000000018001f6b8     libucrt:lcidtoname_downlevel.obj
 0002:000046c0       ??_C@_15LCHLGJII@?$AAs?$AAl?$AA?$AA@ 000000018001f6c0     libucrt:lcidtoname_downlevel.obj
 0002:000046c8       ??_C@_15PCFJPHHO@?$AAe?$AAt?$AA?$AA@ 000000018001f6c8     libucrt:lcidtoname_downlevel.obj
 0002:000046d0       ??_C@_15HPFPGODN@?$AAl?$AAv?$AA?$AA@ 000000018001f6d0     libucrt:lcidtoname_downlevel.obj
 0002:000046d8       ??_C@_15NFFGKGLG@?$AAl?$AAt?$AA?$AA@ 000000018001f6d8     libucrt:lcidtoname_downlevel.obj
 0002:000046e0       ??_C@_15BDAKCCHN@?$AAf?$AAa?$AA?$AA@ 000000018001f6e0     libucrt:lcidtoname_downlevel.obj
 0002:000046e8       ??_C@_15NFGIAIAJ@?$AAv?$AAi?$AA?$AA@ 000000018001f6e8     libucrt:lcidtoname_downlevel.obj
 0002:000046f0       ??_C@_15LMKNDMHN@?$AAh?$AAy?$AA?$AA@ 000000018001f6f0     libucrt:lcidtoname_downlevel.obj
 0002:000046f8       ??_C@_15IJBHMCFL@?$AAa?$AAz?$AA?$AA@ 000000018001f6f8     libucrt:lcidtoname_downlevel.obj
 0002:00004700       ??_C@_15EKOFJABL@?$AAe?$AAu?$AA?$AA@ 000000018001f700     libucrt:lcidtoname_downlevel.obj
 0002:00004708       ??_C@_15BGHADCNK@?$AAm?$AAk?$AA?$AA@ 000000018001f708     libucrt:lcidtoname_downlevel.obj
 0002:00004710       ??_C@_15JDNICKHM@?$AAa?$AAf?$AA?$AA@ 000000018001f710     libucrt:lcidtoname_downlevel.obj
 0002:00004718       ??_C@_15KPJEDBKD@?$AAk?$AAa?$AA?$AA@ 000000018001f718     libucrt:lcidtoname_downlevel.obj
 0002:00004720       ??_C@_15PDNFFFEO@?$AAf?$AAo?$AA?$AA@ 000000018001f720     libucrt:lcidtoname_downlevel.obj
 0002:00004728       ??_C@_15OMLEGLOC@?$AAh?$AAi?$AA?$AA@ 000000018001f728     libucrt:lcidtoname_downlevel.obj
 0002:00004730       ??_C@_15IDNNENKK@?$AAm?$AAs?$AA?$AA@ 000000018001f730     libucrt:lcidtoname_downlevel.obj
 0002:00004738       ??_C@_15MACJNBMH@?$AAk?$AAk?$AA?$AA@ 000000018001f738     libucrt:lcidtoname_downlevel.obj
 0002:00004740       ??_C@_15DKDJEOND@?$AAk?$AAy?$AA?$AA@ 000000018001f740     libucrt:lcidtoname_downlevel.obj
 0002:00004748       ??_C@_15DFGDLJBG@?$AAs?$AAw?$AA?$AA@ 000000018001f748     libucrt:lcidtoname_downlevel.obj
 0002:00004750       ??_C@_15BBFAICNG@?$AAu?$AAz?$AA?$AA@ 000000018001f750     libucrt:lcidtoname_downlevel.obj
 0002:00004758       ??_C@_15DKNDCGEA@?$AAt?$AAt?$AA?$AA@ 000000018001f758     libucrt:lcidtoname_downlevel.obj
 0002:00004760       ??_C@_15MGIFMDPL@?$AAp?$AAa?$AA?$AA@ 000000018001f760     libucrt:lcidtoname_downlevel.obj
 0002:00004768       ??_C@_15HCNDBBA@?$AAg?$AAu?$AA?$AA@ 000000018001f768     libucrt:lcidtoname_downlevel.obj
 0002:00004770       ??_C@_15FNBEIBON@?$AAt?$AAa?$AA?$AA@ 000000018001f770     libucrt:lcidtoname_downlevel.obj
 0002:00004778       ??_C@_15NCHGBGLK@?$AAt?$AAe?$AA?$AA@ 000000018001f778     libucrt:lcidtoname_downlevel.obj
 0002:00004780       ??_C@_15PHPHCBPF@?$AAk?$AAn?$AA?$AA@ 000000018001f780     libucrt:lcidtoname_downlevel.obj
 0002:00004788       ??_C@_15DLGBCKMP@?$AAm?$AAr?$AA?$AA@ 000000018001f788     libucrt:lcidtoname_downlevel.obj
 0002:00004790       ??_C@_15EABBLBFF@?$AAs?$AAa?$AA?$AA@ 000000018001f790     libucrt:lcidtoname_downlevel.obj
 0002:00004798       ??_C@_15CBKOMCOI@?$AAm?$AAn?$AA?$AA@ 000000018001f798     libucrt:lcidtoname_downlevel.obj
 0002:000047a0       ??_C@_15CKDMCJAF@?$AAg?$AAl?$AA?$AA@ 000000018001f7a0     libucrt:lcidtoname_downlevel.obj
 0002:000047a8       ??_C@_17CNJFBPG@?$AAk?$AAo?$AAk?$AA?$AA@ 000000018001f7a8     libucrt:lcidtoname_downlevel.obj
 0002:000047b0       ??_C@_17FFBJICPL@?$AAs?$AAy?$AAr?$AA?$AA@ 000000018001f7b0     libucrt:lcidtoname_downlevel.obj
 0002:000047b8       ??_C@_17KPNDCPAF@?$AAd?$AAi?$AAv?$AA?$AA@ 000000018001f7b8     libucrt:lcidtoname_downlevel.obj
 0002:000047c0       ??_C@_11LOCGONAA@?$AA?$AA@ 000000018001f7c0     libucrt:lcidtoname_downlevel.obj
 0002:000047c8       ??_C@_1M@OKAHONE@?$AAa?$AAr?$AA?9?$AAS?$AAA?$AA?$AA@ 000000018001f7c8     libucrt:lcidtoname_downlevel.obj
 0002:000047d8       ??_C@_1M@FFFIGIGK@?$AAb?$AAg?$AA?9?$AAB?$AAG?$AA?$AA@ 000000018001f7d8     libucrt:lcidtoname_downlevel.obj
 0002:000047e8       ??_C@_1M@BJNKEDC@?$AAc?$AAa?$AA?9?$AAE?$AAS?$AA?$AA@ 000000018001f7e8     libucrt:lcidtoname_downlevel.obj
 0002:000047f8       ??_C@_1M@IJJHFJHA@?$AAc?$AAs?$AA?9?$AAC?$AAZ?$AA?$AA@ 000000018001f7f8     libucrt:lcidtoname_downlevel.obj
 0002:00004808       ??_C@_1M@CLPEOBGI@?$AAd?$AAa?$AA?9?$AAD?$AAK?$AA?$AA@ 000000018001f808     libucrt:lcidtoname_downlevel.obj
 0002:00004818       ??_C@_1M@MCMADGCB@?$AAd?$AAe?$AA?9?$AAD?$AAE?$AA?$AA@ 000000018001f818     libucrt:lcidtoname_downlevel.obj
 0002:00004828       ??_C@_1M@OOCKEMAM@?$AAe?$AAl?$AA?9?$AAG?$AAR?$AA?$AA@ 000000018001f828     libucrt:lcidtoname_downlevel.obj
 0002:00004838       ??_C@_1M@DDNJFGID@?$AAf?$AAi?$AA?9?$AAF?$AAI?$AA?$AA@ 000000018001f838     libucrt:lcidtoname_downlevel.obj
 0002:00004848       ??_C@_1M@GLIPPMAC@?$AAf?$AAr?$AA?9?$AAF?$AAR?$AA?$AA@ 000000018001f848     libucrt:lcidtoname_downlevel.obj
 0002:00004858       ??_C@_1M@GFMCHPE@?$AAh?$AAe?$AA?9?$AAI?$AAL?$AA?$AA@ 000000018001f858     libucrt:lcidtoname_downlevel.obj
 0002:00004868       ??_C@_1M@MHLPGNKM@?$AAh?$AAu?$AA?9?$AAH?$AAU?$AA?$AA@ 000000018001f868     libucrt:lcidtoname_downlevel.obj
 0002:00004878       ??_C@_1M@LPDDNNPN@?$AAi?$AAs?$AA?9?$AAI?$AAS?$AA?$AA@ 000000018001f878     libucrt:lcidtoname_downlevel.obj
 0002:00004888       ??_C@_1M@MADIPODN@?$AAi?$AAt?$AA?9?$AAI?$AAT?$AA?$AA@ 000000018001f888     libucrt:lcidtoname_downlevel.obj
 0002:00004898       ??_C@_1M@IHBJJGG@?$AAn?$AAl?$AA?9?$AAN?$AAL?$AA?$AA@ 000000018001f898     libucrt:lcidtoname_downlevel.obj
 0002:000048a8       ??_C@_1M@EANAGDL@?$AAn?$AAb?$AA?9?$AAN?$AAO?$AA?$AA@ 000000018001f8a8     libucrt:lcidtoname_downlevel.obj
 0002:000048b8       ??_C@_1M@NEIEMEGP@?$AAp?$AAl?$AA?9?$AAP?$AAL?$AA?$AA@ 000000018001f8b8     libucrt:lcidtoname_downlevel.obj
 0002:000048c8       ??_C@_1M@BOCFIGEP@?$AAp?$AAt?$AA?9?$AAB?$AAR?$AA?$AA@ 000000018001f8c8     libucrt:lcidtoname_downlevel.obj
 0002:000048d8       ??_C@_1M@IMPFOPBG@?$AAr?$AAo?$AA?9?$AAR?$AAO?$AA?$AA@ 000000018001f8d8     libucrt:lcidtoname_downlevel.obj
 0002:000048e8       ??_C@_1M@IDNNEJMM@?$AAr?$AAu?$AA?9?$AAR?$AAU?$AA?$AA@ 000000018001f8e8     libucrt:lcidtoname_downlevel.obj
 0002:000048f8       ??_C@_1M@LILEEOGM@?$AAh?$AAr?$AA?9?$AAH?$AAR?$AA?$AA@ 000000018001f8f8     libucrt:lcidtoname_downlevel.obj
 0002:00004908       ??_C@_1M@FKIFEHPB@?$AAs?$AAk?$AA?9?$AAS?$AAK?$AA?$AA@ 000000018001f908     libucrt:lcidtoname_downlevel.obj
 0002:00004918       ??_C@_1M@LJMAMNPJ@?$AAs?$AAq?$AA?9?$AAA?$AAL?$AA?$AA@ 000000018001f918     libucrt:lcidtoname_downlevel.obj
 0002:00004928       ??_C@_1M@GIAKDKJK@?$AAs?$AAv?$AA?9?$AAS?$AAE?$AA?$AA@ 000000018001f928     libucrt:lcidtoname_downlevel.obj
 0002:00004938       ??_C@_1M@MKJKIKCL@?$AAt?$AAh?$AA?9?$AAT?$AAH?$AA?$AA@ 000000018001f938     libucrt:lcidtoname_downlevel.obj
 0002:00004948       ??_C@_1M@MFLCCMPB@?$AAt?$AAr?$AA?9?$AAT?$AAR?$AA?$AA@ 000000018001f948     libucrt:lcidtoname_downlevel.obj
 0002:00004958       ??_C@_1M@OIJHDKJN@?$AAu?$AAr?$AA?9?$AAP?$AAK?$AA?$AA@ 000000018001f958     libucrt:lcidtoname_downlevel.obj
 0002:00004968       ??_C@_1M@LHIPCIEK@?$AAi?$AAd?$AA?9?$AAI?$AAD?$AA?$AA@ 000000018001f968     libucrt:lcidtoname_downlevel.obj
 0002:00004978       ??_C@_1M@MFMOBGI@?$AAu?$AAk?$AA?9?$AAU?$AAA?$AA?$AA@ 000000018001f978     libucrt:lcidtoname_downlevel.obj
 0002:00004988       ??_C@_1M@OBGLJIPL@?$AAb?$AAe?$AA?9?$AAB?$AAY?$AA?$AA@ 000000018001f988     libucrt:lcidtoname_downlevel.obj
 0002:00004998       ??_C@_1M@BCFAJEAD@?$AAs?$AAl?$AA?9?$AAS?$AAI?$AA?$AA@ 000000018001f998     libucrt:lcidtoname_downlevel.obj
 0002:000049a8       ??_C@_1M@FKFFEDDN@?$AAe?$AAt?$AA?9?$AAE?$AAE?$AA?$AA@ 000000018001f9a8     libucrt:lcidtoname_downlevel.obj
 0002:000049b8       ??_C@_1M@KGKKAACI@?$AAl?$AAv?$AA?9?$AAL?$AAV?$AA?$AA@ 000000018001f9b8     libucrt:lcidtoname_downlevel.obj
 0002:000049c8       ??_C@_1M@IFGBIJO@?$AAl?$AAt?$AA?9?$AAL?$AAT?$AA?$AA@ 000000018001f9c8     libucrt:lcidtoname_downlevel.obj
 0002:000049d8       ??_C@_1M@FGEAHEDM@?$AAf?$AAa?$AA?9?$AAI?$AAR?$AA?$AA@ 000000018001f9d8     libucrt:lcidtoname_downlevel.obj
 0002:000049e8       ??_C@_1M@KBMAIBFN@?$AAv?$AAi?$AA?9?$AAV?$AAN?$AA?$AA@ 000000018001f9e8     libucrt:lcidtoname_downlevel.obj
 0002:000049f8       ??_C@_1M@GPCBKDJK@?$AAh?$AAy?$AA?9?$AAA?$AAM?$AA?$AA@ 000000018001f9f8     libucrt:lcidtoname_downlevel.obj
 0002:00004a08       ??_C@_1BG@BECMDDJB@?$AAa?$AAz?$AA?9?$AAA?$AAZ?$AA?9?$AAL?$AAa?$AAt?$AAn?$AA?$AA@ 000000018001fa08     libucrt:lcidtoname_downlevel.obj
 0002:00004a20       ??_C@_1M@MAOFCAEA@?$AAe?$AAu?$AA?9?$AAE?$AAS?$AA?$AA@ 000000018001fa20     libucrt:lcidtoname_downlevel.obj
 0002:00004a30       ??_C@_1M@IGHABKPI@?$AAm?$AAk?$AA?9?$AAM?$AAK?$AA?$AA@ 000000018001fa30     libucrt:lcidtoname_downlevel.obj
 0002:00004a40       ??_C@_1M@IAIGNEJG@?$AAt?$AAn?$AA?9?$AAZ?$AAA?$AA?$AA@ 000000018001fa40     libucrt:lcidtoname_downlevel.obj
 0002:00004a50       ??_C@_1M@IIJCOJFA@?$AAx?$AAh?$AA?9?$AAZ?$AAA?$AA?$AA@ 000000018001fa50     libucrt:lcidtoname_downlevel.obj
 0002:00004a60       ??_C@_1M@LGPJHNJH@?$AAz?$AAu?$AA?9?$AAZ?$AAA?$AA?$AA@ 000000018001fa60     libucrt:lcidtoname_downlevel.obj
 0002:00004a70       ??_C@_1M@HOKAOIO@?$AAa?$AAf?$AA?9?$AAZ?$AAA?$AA?$AA@ 000000018001fa70     libucrt:lcidtoname_downlevel.obj
 0002:00004a80       ??_C@_1M@DPCLHLIE@?$AAk?$AAa?$AA?9?$AAG?$AAE?$AA?$AA@ 000000018001fa80     libucrt:lcidtoname_downlevel.obj
 0002:00004a90       ??_C@_1M@BLKMHJBI@?$AAf?$AAo?$AA?9?$AAF?$AAO?$AA?$AA@ 000000018001fa90     libucrt:lcidtoname_downlevel.obj
 0002:00004aa0       ??_C@_1M@LGGJAPPB@?$AAh?$AAi?$AA?9?$AAI?$AAN?$AA?$AA@ 000000018001faa0     libucrt:lcidtoname_downlevel.obj
 0002:00004ab0       ??_C@_1M@FIKPIHFE@?$AAm?$AAt?$AA?9?$AAM?$AAT?$AA?$AA@ 000000018001fab0     libucrt:lcidtoname_downlevel.obj
 0002:00004ac0       ??_C@_1M@HEGGPBFA@?$AAs?$AAe?$AA?9?$AAN?$AAO?$AA?$AA@ 000000018001fac0     libucrt:lcidtoname_downlevel.obj
 0002:00004ad0       ??_C@_1M@EIBJEEPA@?$AAm?$AAs?$AA?9?$AAM?$AAY?$AA?$AA@ 000000018001fad0     libucrt:lcidtoname_downlevel.obj
 0002:00004ae0       ??_C@_1M@FHLBGMPP@?$AAk?$AAk?$AA?9?$AAK?$AAZ?$AA?$AA@ 000000018001fae0     libucrt:lcidtoname_downlevel.obj
 0002:00004af0       ??_C@_1M@NGJJLCGI@?$AAk?$AAy?$AA?9?$AAK?$AAG?$AA?$AA@ 000000018001faf0     libucrt:lcidtoname_downlevel.obj
 0002:00004b00       ??_C@_1M@GIENNBFC@?$AAs?$AAw?$AA?9?$AAK?$AAE?$AA?$AA@ 000000018001fb00     libucrt:lcidtoname_downlevel.obj
 0002:00004b10       ??_C@_1BG@NDGMJIMJ@?$AAu?$AAz?$AA?9?$AAU?$AAZ?$AA?9?$AAL?$AAa?$AAt?$AAn?$AA?$AA@ 000000018001fb10     libucrt:lcidtoname_downlevel.obj
 0002:00004b28       ??_C@_1M@IDCCIHBC@?$AAt?$AAt?$AA?9?$AAR?$AAU?$AA?$AA@ 000000018001fb28     libucrt:lcidtoname_downlevel.obj
 0002:00004b38       ??_C@_1M@LOICPMOJ@?$AAb?$AAn?$AA?9?$AAI?$AAN?$AA?$AA@ 000000018001fb38     libucrt:lcidtoname_downlevel.obj
 0002:00004b48       ??_C@_1M@KPKKNEAH@?$AAp?$AAa?$AA?9?$AAI?$AAN?$AA?$AA@ 000000018001fb48     libucrt:lcidtoname_downlevel.obj
 0002:00004b58       ??_C@_1M@PJGPPBOG@?$AAg?$AAu?$AA?9?$AAI?$AAN?$AA?$AA@ 000000018001fb58     libucrt:lcidtoname_downlevel.obj
 0002:00004b68       ??_C@_1M@KMKMOPHI@?$AAt?$AAa?$AA?9?$AAI?$AAN?$AA?$AA@ 000000018001fb68     libucrt:lcidtoname_downlevel.obj
 0002:00004b78       ??_C@_1M@KFEHEPAC@?$AAt?$AAe?$AA?9?$AAI?$AAN?$AA?$AA@ 000000018001fb78     libucrt:lcidtoname_downlevel.obj
 0002:00004b88       ??_C@_1M@CDCLMGHI@?$AAk?$AAn?$AA?9?$AAI?$AAN?$AA?$AA@ 000000018001fb88     libucrt:lcidtoname_downlevel.obj
 0002:00004b98       ??_C@_1M@MIODLDKF@?$AAm?$AAl?$AA?9?$AAI?$AAN?$AA?$AA@ 000000018001fb98     libucrt:lcidtoname_downlevel.obj
 0002:00004ba8       ??_C@_1M@PBIEACPO@?$AAm?$AAr?$AA?9?$AAI?$AAN?$AA?$AA@ 000000018001fba8     libucrt:lcidtoname_downlevel.obj
 0002:00004bb8       ??_C@_1M@NIDEAGPH@?$AAs?$AAa?$AA?9?$AAI?$AAN?$AA?$AA@ 000000018001fbb8     libucrt:lcidtoname_downlevel.obj
 0002:00004bc8       ??_C@_1M@FHIHCBIO@?$AAm?$AAn?$AA?9?$AAM?$AAN?$AA?$AA@ 000000018001fbc8     libucrt:lcidtoname_downlevel.obj
 0002:00004bd8       ??_C@_1M@JAIJPENP@?$AAc?$AAy?$AA?9?$AAG?$AAB?$AA?$AA@ 000000018001fbd8     libucrt:lcidtoname_downlevel.obj
 0002:00004be8       ??_C@_1M@PHGFBEPN@?$AAg?$AAl?$AA?9?$AAE?$AAS?$AA?$AA@ 000000018001fbe8     libucrt:lcidtoname_downlevel.obj
 0002:00004bf8       ??_C@_1O@KPIPDNCP@?$AAk?$AAo?$AAk?$AA?9?$AAI?$AAN?$AA?$AA@ 000000018001fbf8     libucrt:lcidtoname_downlevel.obj
 0002:00004c08       ??_C@_1O@KNHJLDJA@?$AAs?$AAy?$AAr?$AA?9?$AAS?$AAY?$AA?$AA@ 000000018001fc08     libucrt:lcidtoname_downlevel.obj
 0002:00004c18       ??_C@_1O@MKEKBLAH@?$AAd?$AAi?$AAv?$AA?9?$AAM?$AAV?$AA?$AA@ 000000018001fc18     libucrt:lcidtoname_downlevel.obj
 0002:00004c28       ??_C@_1O@OHDCKDDF@?$AAq?$AAu?$AAz?$AA?9?$AAB?$AAO?$AA?$AA@ 000000018001fc28     libucrt:lcidtoname_downlevel.obj
 0002:00004c38       ??_C@_1M@LEPJNLFD@?$AAn?$AAs?$AA?9?$AAZ?$AAA?$AA?$AA@ 000000018001fc38     libucrt:lcidtoname_downlevel.obj
 0002:00004c48       ??_C@_1M@OMLEIIJB@?$AAm?$AAi?$AA?9?$AAN?$AAZ?$AA?$AA@ 000000018001fc48     libucrt:lcidtoname_downlevel.obj
 0002:00004c58       ??_C@_1M@PMPEAILG@?$AAa?$AAr?$AA?9?$AAI?$AAQ?$AA?$AA@ 000000018001fc58     libucrt:lcidtoname_downlevel.obj
 0002:00004c68       ??_C@_1M@CNKPNOEE@?$AAd?$AAe?$AA?9?$AAC?$AAH?$AA?$AA@ 000000018001fc68     libucrt:lcidtoname_downlevel.obj
 0002:00004c78       ??_C@_1M@LKMGMLKO@?$AAe?$AAn?$AA?9?$AAG?$AAB?$AA?$AA@ 000000018001fc78     libucrt:lcidtoname_downlevel.obj
 0002:00004c88       ??_C@_1M@PGKJFFGL@?$AAe?$AAs?$AA?9?$AAM?$AAX?$AA?$AA@ 000000018001fc88     libucrt:lcidtoname_downlevel.obj
 0002:00004c98       ??_C@_1M@DNNANBDC@?$AAf?$AAr?$AA?9?$AAB?$AAE?$AA?$AA@ 000000018001fc98     libucrt:lcidtoname_downlevel.obj
 0002:00004ca8       ??_C@_1M@HLGMDFHM@?$AAi?$AAt?$AA?9?$AAC?$AAH?$AA?$AA@ 000000018001fca8     libucrt:lcidtoname_downlevel.obj
 0002:00004cb8       ??_C@_1M@CLLBGJH@?$AAn?$AAl?$AA?9?$AAB?$AAE?$AA?$AA@ 000000018001fcb8     libucrt:lcidtoname_downlevel.obj
 0002:00004cc8       ??_C@_1M@BODBOGLF@?$AAn?$AAn?$AA?9?$AAN?$AAO?$AA?$AA@ 000000018001fcc8     libucrt:lcidtoname_downlevel.obj
 0002:00004cd8       ??_C@_1M@HFFAHKAD@?$AAp?$AAt?$AA?9?$AAP?$AAT?$AA?$AA@ 000000018001fcd8     libucrt:lcidtoname_downlevel.obj
 0002:00004ce8       ??_C@_1BG@LNOAKHIE@?$AAs?$AAr?$AA?9?$AAS?$AAP?$AA?9?$AAL?$AAa?$AAt?$AAn?$AA?$AA@ 000000018001fce8     libucrt:lcidtoname_downlevel.obj
 0002:00004d00       ??_C@_1M@HBMHBGAK@?$AAs?$AAv?$AA?9?$AAF?$AAI?$AA?$AA@ 000000018001fd00     libucrt:lcidtoname_downlevel.obj
 0002:00004d10       ??_C@_1BG@DGCJGJBE@?$AAa?$AAz?$AA?9?$AAA?$AAZ?$AA?9?$AAC?$AAy?$AAr?$AAl?$AA?$AA@ 000000018001fd10     libucrt:lcidtoname_downlevel.obj
 0002:00004d28       ??_C@_1M@KEJDAAHB@?$AAs?$AAe?$AA?9?$AAS?$AAE?$AA?$AA@ 000000018001fd28     libucrt:lcidtoname_downlevel.obj
 0002:00004d38       ??_C@_1M@HEIBJJAD@?$AAm?$AAs?$AA?9?$AAB?$AAN?$AA?$AA@ 000000018001fd38     libucrt:lcidtoname_downlevel.obj
 0002:00004d48       ??_C@_1BG@PBGJMCEM@?$AAu?$AAz?$AA?9?$AAU?$AAZ?$AA?9?$AAC?$AAy?$AAr?$AAl?$AA?$AA@ 000000018001fd48     libucrt:lcidtoname_downlevel.obj
 0002:00004d60       ??_C@_1O@LAOBCMDF@?$AAq?$AAu?$AAz?$AA?9?$AAE?$AAC?$AA?$AA@ 000000018001fd60     libucrt:lcidtoname_downlevel.obj
 0002:00004d70       ??_C@_1M@POEEMAIO@?$AAa?$AAr?$AA?9?$AAE?$AAG?$AA?$AA@ 000000018001fd70     libucrt:lcidtoname_downlevel.obj
 0002:00004d80       ??_C@_1M@EFAKDEDL@?$AAz?$AAh?$AA?9?$AAH?$AAK?$AA?$AA@ 000000018001fd80     libucrt:lcidtoname_downlevel.obj
 0002:00004d90       ??_C@_1M@HKKIJHGI@?$AAd?$AAe?$AA?9?$AAA?$AAT?$AA?$AA@ 000000018001fd90     libucrt:lcidtoname_downlevel.obj
 0002:00004da0       ??_C@_1M@KBFBEHJF@?$AAe?$AAn?$AA?9?$AAA?$AAU?$AA?$AA@ 000000018001fda0     libucrt:lcidtoname_downlevel.obj
 0002:00004db0       ??_C@_1M@MNPLFAAH@?$AAe?$AAs?$AA?9?$AAE?$AAS?$AA?$AA@ 000000018001fdb0     libucrt:lcidtoname_downlevel.obj
 0002:00004dc0       ??_C@_1M@HJOOJFMA@?$AAf?$AAr?$AA?9?$AAC?$AAA?$AA?$AA@ 000000018001fdc0     libucrt:lcidtoname_downlevel.obj
 0002:00004dd0       ??_C@_1BG@JPOFPNAB@?$AAs?$AAr?$AA?9?$AAS?$AAP?$AA?9?$AAC?$AAy?$AAr?$AAl?$AA?$AA@ 000000018001fdd0     libucrt:lcidtoname_downlevel.obj
 0002:00004de8       ??_C@_1M@LNFOCMOB@?$AAs?$AAe?$AA?9?$AAF?$AAI?$AA?$AA@ 000000018001fde8     libucrt:lcidtoname_downlevel.obj
 0002:00004df8       ??_C@_1O@MGJBOAMB@?$AAq?$AAu?$AAz?$AA?9?$AAP?$AAE?$AA?$AA@ 000000018001fdf8     libucrt:lcidtoname_downlevel.obj
 0002:00004e08       ??_C@_1M@GJINLBOK@?$AAa?$AAr?$AA?9?$AAL?$AAY?$AA?$AA@ 000000018001fe08     libucrt:lcidtoname_downlevel.obj
 0002:00004e18       ??_C@_1M@GGMNHJNL@?$AAz?$AAh?$AA?9?$AAS?$AAG?$AA?$AA@ 000000018001fe18     libucrt:lcidtoname_downlevel.obj
 0002:00004e28       ??_C@_1M@HOIKODND@?$AAd?$AAe?$AA?9?$AAL?$AAU?$AA?$AA@ 000000018001fe28     libucrt:lcidtoname_downlevel.obj
 0002:00004e38       ??_C@_1M@DDOCCGFG@?$AAe?$AAn?$AA?9?$AAC?$AAA?$AA?$AA@ 000000018001fe38     libucrt:lcidtoname_downlevel.obj
 0002:00004e48       ??_C@_1M@BNOEMJLF@?$AAe?$AAs?$AA?9?$AAG?$AAT?$AA?$AA@ 000000018001fe48     libucrt:lcidtoname_downlevel.obj
 0002:00004e58       ??_C@_1M@EOGNKEK@?$AAf?$AAr?$AA?9?$AAC?$AAH?$AA?$AA@ 000000018001fe58     libucrt:lcidtoname_downlevel.obj
 0002:00004e68       ??_C@_1M@FLIDJFHL@?$AAh?$AAr?$AA?9?$AAB?$AAA?$AA?$AA@ 000000018001fe68     libucrt:lcidtoname_downlevel.obj
 0002:00004e78       ??_C@_1O@FMCELNAJ@?$AAs?$AAm?$AAj?$AA?9?$AAN?$AAO?$AA?$AA@ 000000018001fe78     libucrt:lcidtoname_downlevel.obj
 0002:00004e88       ??_C@_1M@JHGLJMGJ@?$AAa?$AAr?$AA?9?$AAD?$AAZ?$AA?$AA@ 000000018001fe88     libucrt:lcidtoname_downlevel.obj
 0002:00004e98       ??_C@_1M@JKKFDCNP@?$AAz?$AAh?$AA?9?$AAM?$AAO?$AA?$AA@ 000000018001fe98     libucrt:lcidtoname_downlevel.obj
 0002:00004ea8       ??_C@_1M@GEEFALPE@?$AAd?$AAe?$AA?9?$AAL?$AAI?$AA?$AA@ 000000018001fea8     libucrt:lcidtoname_downlevel.obj
 0002:00004eb8       ??_C@_1M@IGEOFBG@?$AAe?$AAn?$AA?9?$AAN?$AAZ?$AA?$AA@ 000000018001feb8     libucrt:lcidtoname_downlevel.obj
 0002:00004ec8       ??_C@_1M@KDBONEHP@?$AAe?$AAs?$AA?9?$AAC?$AAR?$AA?$AA@ 000000018001fec8     libucrt:lcidtoname_downlevel.obj
 0002:00004ed8       ??_C@_1M@FHMDOHNN@?$AAf?$AAr?$AA?9?$AAL?$AAU?$AA?$AA@ 000000018001fed8     libucrt:lcidtoname_downlevel.obj
 0002:00004ee8       ??_C@_1BG@NFKKMAFG@?$AAb?$AAs?$AA?9?$AAB?$AAA?$AA?9?$AAL?$AAa?$AAt?$AAn?$AA?$AA@ 000000018001fee8     libucrt:lcidtoname_downlevel.obj
 0002:00004f00       ??_C@_1O@IMNBEMCI@?$AAs?$AAm?$AAj?$AA?9?$AAS?$AAE?$AA?$AA@ 000000018001ff00     libucrt:lcidtoname_downlevel.obj
 0002:00004f10       ??_C@_1M@DHHMBNDP@?$AAa?$AAr?$AA?9?$AAM?$AAA?$AA?$AA@ 000000018001ff10     libucrt:lcidtoname_downlevel.obj
 0002:00004f20       ??_C@_1M@BNBLJCGH@?$AAe?$AAn?$AA?9?$AAI?$AAE?$AA?$AA@ 000000018001ff20     libucrt:lcidtoname_downlevel.obj
 0002:00004f30       ??_C@_1M@GEPAFMDL@?$AAe?$AAs?$AA?9?$AAP?$AAA?$AA?$AA@ 000000018001ff30     libucrt:lcidtoname_downlevel.obj
 0002:00004f40       ??_C@_1M@OJONDMDL@?$AAf?$AAr?$AA?9?$AAM?$AAC?$AA?$AA@ 000000018001ff40     libucrt:lcidtoname_downlevel.obj
 0002:00004f50       ??_C@_1BG@OBCNFJB@?$AAs?$AAr?$AA?9?$AAB?$AAA?$AA?9?$AAL?$AAa?$AAt?$AAn?$AA?$AA@ 000000018001ff50     libucrt:lcidtoname_downlevel.obj
 0002:00004f68       ??_C@_1O@KEMEEGPO@?$AAs?$AAm?$AAa?$AA?9?$AAN?$AAO?$AA?$AA@ 000000018001ff68     libucrt:lcidtoname_downlevel.obj
 0002:00004f78       ??_C@_1M@ELMGFODK@?$AAa?$AAr?$AA?9?$AAT?$AAN?$AA?$AA@ 000000018001ff78     libucrt:lcidtoname_downlevel.obj
 0002:00004f88       ??_C@_1M@BHDLHFAF@?$AAe?$AAn?$AA?9?$AAZ?$AAA?$AA?$AA@ 000000018001ff88     libucrt:lcidtoname_downlevel.obj
 0002:00004f98       ??_C@_1M@BMGIGLIF@?$AAe?$AAs?$AA?9?$AAD?$AAO?$AA?$AA@ 000000018001ff98     libucrt:lcidtoname_downlevel.obj
 0002:00004fa8       ??_C@_1BG@CMBHIPBE@?$AAs?$AAr?$AA?9?$AAB?$AAA?$AA?9?$AAC?$AAy?$AAr?$AAl?$AA?$AA@ 000000018001ffa8     libucrt:lcidtoname_downlevel.obj
 0002:00004fc0       ??_C@_1O@HEDBLHNP@?$AAs?$AAm?$AAa?$AA?9?$AAS?$AAE?$AA?$AA@ 000000018001ffc0     libucrt:lcidtoname_downlevel.obj
 0002:00004fd0       ??_C@_1M@DAGCADIM@?$AAa?$AAr?$AA?9?$AAO?$AAM?$AA?$AA@ 000000018001ffd0     libucrt:lcidtoname_downlevel.obj
 0002:00004fe0       ??_C@_1M@FODLMICG@?$AAe?$AAn?$AA?9?$AAJ?$AAM?$AA?$AA@ 000000018001ffe0     libucrt:lcidtoname_downlevel.obj
 0002:00004ff0       ??_C@_1M@DNMLCIHB@?$AAe?$AAs?$AA?9?$AAV?$AAE?$AA?$AA@ 000000018001fff0     libucrt:lcidtoname_downlevel.obj
 0002:00005000       ??_C@_1O@EOKHMKJK@?$AAs?$AAm?$AAs?$AA?9?$AAF?$AAI?$AA?$AA@ 0000000180020000     libucrt:lcidtoname_downlevel.obj
 0002:00005010       ??_C@_1M@CAFJMKOF@?$AAa?$AAr?$AA?9?$AAY?$AAE?$AA?$AA@ 0000000180020010     libucrt:lcidtoname_downlevel.obj
 0002:00005020       ??_C@_1M@CBFHIJLI@?$AAe?$AAn?$AA?9?$AAC?$AAB?$AA?$AA@ 0000000180020020     libucrt:lcidtoname_downlevel.obj
 0002:00005030       ??_C@_1M@BGNFLDN@?$AAe?$AAs?$AA?9?$AAC?$AAO?$AA?$AA@ 0000000180020030     libucrt:lcidtoname_downlevel.obj
 0002:00005040       ??_C@_1O@JMPHMAMC@?$AAs?$AAm?$AAn?$AA?9?$AAF?$AAI?$AA?$AA@ 0000000180020040     libucrt:lcidtoname_downlevel.obj
 0002:00005050       ??_C@_1M@JLANABKE@?$AAa?$AAr?$AA?9?$AAS?$AAY?$AA?$AA@ 0000000180020050     libucrt:lcidtoname_downlevel.obj
 0002:00005060       ??_C@_1M@HPKGCFGN@?$AAe?$AAn?$AA?9?$AAB?$AAZ?$AA?$AA@ 0000000180020060     libucrt:lcidtoname_downlevel.obj
 0002:00005070       ??_C@_1M@OLJCMLGM@?$AAe?$AAs?$AA?9?$AAP?$AAE?$AA?$AA@ 0000000180020070     libucrt:lcidtoname_downlevel.obj
 0002:00005080       ??_C@_1M@MKKGFKLE@?$AAa?$AAr?$AA?9?$AAJ?$AAO?$AA?$AA@ 0000000180020080     libucrt:lcidtoname_downlevel.obj
 0002:00005090       ??_C@_1M@EKPGLDNI@?$AAe?$AAn?$AA?9?$AAT?$AAT?$AA?$AA@ 0000000180020090     libucrt:lcidtoname_downlevel.obj
 0002:000050a0       ??_C@_1M@OONGHFHE@?$AAe?$AAs?$AA?9?$AAA?$AAR?$AA?$AA@ 00000001800200a0     libucrt:lcidtoname_downlevel.obj
 0002:000050b0       ??_C@_1M@OOJFGBHE@?$AAa?$AAr?$AA?9?$AAL?$AAB?$AA?$AA@ 00000001800200b0     libucrt:lcidtoname_downlevel.obj
 0002:000050c0       ??_C@_1M@GCEJHNEG@?$AAe?$AAn?$AA?9?$AAZ?$AAW?$AA?$AA@ 00000001800200c0     libucrt:lcidtoname_downlevel.obj
 0002:000050d0       ??_C@_1M@JNOCAHJI@?$AAe?$AAs?$AA?9?$AAE?$AAC?$AA?$AA@ 00000001800200d0     libucrt:lcidtoname_downlevel.obj
 0002:000050e0       ??_C@_1M@JEFHPGGB@?$AAa?$AAr?$AA?9?$AAK?$AAW?$AA?$AA@ 00000001800200e0     libucrt:lcidtoname_downlevel.obj
 0002:000050f0       ??_C@_1M@MLKIBJOJ@?$AAe?$AAn?$AA?9?$AAP?$AAH?$AA?$AA@ 00000001800200f0     libucrt:lcidtoname_downlevel.obj
 0002:00005100       ??_C@_1M@BDNIPEND@?$AAe?$AAs?$AA?9?$AAC?$AAL?$AA?$AA@ 0000000180020100     libucrt:lcidtoname_downlevel.obj
 0002:00005110       ??_C@_1M@MPNMEKBD@?$AAa?$AAr?$AA?9?$AAA?$AAE?$AA?$AA@ 0000000180020110     libucrt:lcidtoname_downlevel.obj
 0002:00005120       ??_C@_1M@KBJALCPI@?$AAe?$AAs?$AA?9?$AAU?$AAY?$AA?$AA@ 0000000180020120     libucrt:lcidtoname_downlevel.obj
 0002:00005130       ??_C@_1M@LLCCOAGA@?$AAa?$AAr?$AA?9?$AAB?$AAH?$AA?$AA@ 0000000180020130     libucrt:lcidtoname_downlevel.obj
 0002:00005140       ??_C@_1M@PBFNCDEL@?$AAe?$AAs?$AA?9?$AAP?$AAY?$AA?$AA@ 0000000180020140     libucrt:lcidtoname_downlevel.obj
 0002:00005150       ??_C@_1M@EDGINPNP@?$AAa?$AAr?$AA?9?$AAQ?$AAA?$AA?$AA@ 0000000180020150     libucrt:lcidtoname_downlevel.obj
 0002:00005160       ??_C@_1M@MKDBIIJI@?$AAe?$AAs?$AA?9?$AAB?$AAO?$AA?$AA@ 0000000180020160     libucrt:lcidtoname_downlevel.obj
 0002:00005170       ??_C@_1M@CPKKEBLD@?$AAe?$AAs?$AA?9?$AAS?$AAV?$AA?$AA@ 0000000180020170     libucrt:lcidtoname_downlevel.obj
 0002:00005180       ??_C@_1M@NDBGMMJL@?$AAe?$AAs?$AA?9?$AAH?$AAN?$AA?$AA@ 0000000180020180     libucrt:lcidtoname_downlevel.obj
 0002:00005190       ??_C@_1M@JIJIBHDP@?$AAe?$AAs?$AA?9?$AAN?$AAI?$AA?$AA@ 0000000180020190     libucrt:lcidtoname_downlevel.obj
 0002:000051a0       ??_C@_1M@CGFMKEEK@?$AAe?$AAs?$AA?9?$AAP?$AAR?$AA?$AA@ 00000001800201a0     libucrt:lcidtoname_downlevel.obj
 0002:000051b0       ??_C@_1O@ICJHKIIK@?$AAz?$AAh?$AA?9?$AAC?$AAH?$AAT?$AA?$AA@ 00000001800201b0     libucrt:lcidtoname_downlevel.obj
 0002:000051c0       ??_C@_15CLNEJCE@?$AAs?$AAr?$AA?$AA@ 00000001800201c0     libucrt:lcidtoname_downlevel.obj
 0002:00006010       ??_C@_1M@KAHEKEIG@?$AAa?$AAf?$AA?9?$AAz?$AAa?$AA?$AA@ 0000000180021010     libucrt:lcidtoname_downlevel.obj
 0002:00006020       ??_C@_1M@GIECOABL@?$AAa?$AAr?$AA?9?$AAa?$AAe?$AA?$AA@ 0000000180021020     libucrt:lcidtoname_downlevel.obj
 0002:00006030       ??_C@_1M@BMLMEKGI@?$AAa?$AAr?$AA?9?$AAb?$AAh?$AA?$AA@ 0000000180021030     libucrt:lcidtoname_downlevel.obj
 0002:00006040       ??_C@_1M@DAPFDGGB@?$AAa?$AAr?$AA?9?$AAd?$AAz?$AA?$AA@ 0000000180021040     libucrt:lcidtoname_downlevel.obj
 0002:00006050       ??_C@_1M@FJNKGKIG@?$AAa?$AAr?$AA?9?$AAe?$AAg?$AA?$AA@ 0000000180021050     libucrt:lcidtoname_downlevel.obj
 0002:00006060       ??_C@_1M@FLGKKCLO@?$AAa?$AAr?$AA?9?$AAi?$AAq?$AA?$AA@ 0000000180021060     libucrt:lcidtoname_downlevel.obj
 0002:00006070       ??_C@_1M@GNDIPALM@?$AAa?$AAr?$AA?9?$AAj?$AAo?$AA?$AA@ 0000000180021070     libucrt:lcidtoname_downlevel.obj
 0002:00006080       ??_C@_1M@DDMJFMGJ@?$AAa?$AAr?$AA?9?$AAk?$AAw?$AA?$AA@ 0000000180021080     libucrt:lcidtoname_downlevel.obj
 0002:00006090       ??_C@_1M@EJALMLHM@?$AAa?$AAr?$AA?9?$AAl?$AAb?$AA?$AA@ 0000000180021090     libucrt:lcidtoname_downlevel.obj
 0002:000060a0       ??_C@_1M@MOBDBLOC@?$AAa?$AAr?$AA?9?$AAl?$AAy?$AA?$AA@ 00000001800210a0     libucrt:lcidtoname_downlevel.obj
 0002:000060b0       ??_C@_1M@JAOCLHDH@?$AAa?$AAr?$AA?9?$AAm?$AAa?$AA?$AA@ 00000001800210b0     libucrt:lcidtoname_downlevel.obj
 0002:000060c0       ??_C@_1M@JHPMKJIE@?$AAa?$AAr?$AA?9?$AAo?$AAm?$AA?$AA@ 00000001800210c0     libucrt:lcidtoname_downlevel.obj
 0002:000060d0       ??_C@_1M@OEPGHFNH@?$AAa?$AAr?$AA?9?$AAq?$AAa?$AA?$AA@ 00000001800210d0     libucrt:lcidtoname_downlevel.obj
 0002:000060e0       ??_C@_1M@KJDONENM@?$AAa?$AAr?$AA?9?$AAs?$AAa?$AA?$AA@ 00000001800210e0     libucrt:lcidtoname_downlevel.obj
 0002:000060f0       ??_C@_1M@DMJDKLKM@?$AAa?$AAr?$AA?9?$AAs?$AAy?$AA?$AA@ 00000001800210f0     libucrt:lcidtoname_downlevel.obj
 0002:00006100       ??_C@_1M@OMFIPEDC@?$AAa?$AAr?$AA?9?$AAt?$AAn?$AA?$AA@ 0000000180021100     libucrt:lcidtoname_downlevel.obj
 0002:00006110       ??_C@_1M@IHMHGAON@?$AAa?$AAr?$AA?9?$AAy?$AAe?$AA?$AA@ 0000000180021110     libucrt:lcidtoname_downlevel.obj
 0002:00006120       ??_C@_1BG@KDCPGJGB@?$AAa?$AAz?$AA?9?$AAa?$AAz?$AA?9?$AAc?$AAy?$AAr?$AAl?$AA?$AA@ 0000000180021120     libucrt:lcidtoname_downlevel.obj
 0002:00006138       ??_C@_1BG@IBCKDDOE@?$AAa?$AAz?$AA?9?$AAa?$AAz?$AA?9?$AAl?$AAa?$AAt?$AAn?$AA?$AA@ 0000000180021138     libucrt:lcidtoname_downlevel.obj
 0002:00006150       ??_C@_1M@EGPFDCPD@?$AAb?$AAe?$AA?9?$AAb?$AAy?$AA?$AA@ 0000000180021150     libucrt:lcidtoname_downlevel.obj
 0002:00006160       ??_C@_1M@PCMGMCGC@?$AAb?$AAg?$AA?9?$AAb?$AAg?$AA?$AA@ 0000000180021160     libucrt:lcidtoname_downlevel.obj
 0002:00006170       ??_C@_1M@BJBMFGOB@?$AAb?$AAn?$AA?9?$AAi?$AAn?$AA?$AA@ 0000000180021170     libucrt:lcidtoname_downlevel.obj
 0002:00006180       ??_C@_1BG@EAKMMACD@?$AAb?$AAs?$AA?9?$AAb?$AAa?$AA?9?$AAl?$AAa?$AAt?$AAn?$AA?$AA@ 0000000180021180     libucrt:lcidtoname_downlevel.obj
 0002:00006198       ??_C@_1M@KGADAODK@?$AAc?$AAa?$AA?9?$AAe?$AAs?$AA?$AA@ 0000000180021198     libucrt:lcidtoname_downlevel.obj
 0002:000061a8       ??_C@_1M@COAJPDHI@?$AAc?$AAs?$AA?9?$AAc?$AAz?$AA?$AA@ 00000001800211a8     libucrt:lcidtoname_downlevel.obj
 0002:000061b8       ??_C@_1M@DHBHFONH@?$AAc?$AAy?$AA?9?$AAg?$AAb?$AA?$AA@ 00000001800211b8     libucrt:lcidtoname_downlevel.obj
 0002:000061c8       ??_C@_1M@IMGKELGA@?$AAd?$AAa?$AA?9?$AAd?$AAk?$AA?$AA@ 00000001800211c8     libucrt:lcidtoname_downlevel.obj
 0002:000061d8       ??_C@_1M@NNDGDNGA@?$AAd?$AAe?$AA?9?$AAa?$AAt?$AA?$AA@ 00000001800211d8     libucrt:lcidtoname_downlevel.obj
 0002:000061e8       ??_C@_1M@IKDBHEEM@?$AAd?$AAe?$AA?9?$AAc?$AAh?$AA?$AA@ 00000001800211e8     libucrt:lcidtoname_downlevel.obj
 0002:000061f8       ??_C@_1M@GFFOJMCJ@?$AAd?$AAe?$AA?9?$AAd?$AAe?$AA?$AA@ 00000001800211f8     libucrt:lcidtoname_downlevel.obj
 0002:00006208       ??_C@_1M@MDNLKBPM@?$AAd?$AAe?$AA?9?$AAl?$AAi?$AA?$AA@ 0000000180021208     libucrt:lcidtoname_downlevel.obj
 0002:00006218       ??_C@_1M@NJBEEJNL@?$AAd?$AAe?$AA?9?$AAl?$AAu?$AA?$AA@ 0000000180021218     libucrt:lcidtoname_downlevel.obj
 0002:00006228       ??_C@_1O@GNNELBAP@?$AAd?$AAi?$AAv?$AA?9?$AAm?$AAv?$AA?$AA@ 0000000180021228     libucrt:lcidtoname_downlevel.obj
 0002:00006238       ??_C@_1M@EJLEOGAE@?$AAe?$AAl?$AA?9?$AAg?$AAr?$AA?$AA@ 0000000180021238     libucrt:lcidtoname_downlevel.obj
 0002:00006248       ??_C@_1M@GMPONJN@?$AAe?$AAn?$AA?9?$AAa?$AAu?$AA?$AA@ 0000000180021248     libucrt:lcidtoname_downlevel.obj
 0002:00006258       ??_C@_1M@NIDIIPGF@?$AAe?$AAn?$AA?9?$AAb?$AAz?$AA?$AA@ 0000000180021258     libucrt:lcidtoname_downlevel.obj
 0002:00006268       ??_C@_1M@JEHMIMFO@?$AAe?$AAn?$AA?9?$AAc?$AAa?$AA?$AA@ 0000000180021268     libucrt:lcidtoname_downlevel.obj
 0002:00006278       ??_C@_1M@IGMJCDLA@?$AAe?$AAn?$AA?9?$AAc?$AAb?$AA?$AA@ 0000000180021278     libucrt:lcidtoname_downlevel.obj
 0002:00006288       ??_C@_1M@BNFIGBKG@?$AAe?$AAn?$AA?9?$AAg?$AAb?$AA?$AA@ 0000000180021288     libucrt:lcidtoname_downlevel.obj
 0002:00006298       ??_C@_1M@LKIFDIGP@?$AAe?$AAn?$AA?9?$AAi?$AAe?$AA?$AA@ 0000000180021298     libucrt:lcidtoname_downlevel.obj
 0002:000062a8       ??_C@_1M@PJKFGCCO@?$AAe?$AAn?$AA?9?$AAj?$AAm?$AA?$AA@ 00000001800212a8     libucrt:lcidtoname_downlevel.obj
 0002:000062b8       ??_C@_1M@KPPKEPBO@?$AAe?$AAn?$AA?9?$AAn?$AAz?$AA?$AA@ 00000001800212b8     libucrt:lcidtoname_downlevel.obj
 0002:000062c8       ??_C@_1M@GMDGLDOB@?$AAe?$AAn?$AA?9?$AAp?$AAh?$AA?$AA@ 00000001800212c8     libucrt:lcidtoname_downlevel.obj
 0002:000062d8       ??_C@_1M@ONGIBJNA@?$AAe?$AAn?$AA?9?$AAt?$AAt?$AA?$AA@ 00000001800212d8     libucrt:lcidtoname_downlevel.obj
 0002:000062e8       ??_C@_1M@LLODPCMM@?$AAe?$AAn?$AA?9?$AAu?$AAs?$AA?$AA@ 00000001800212e8     libucrt:lcidtoname_downlevel.obj
 0002:000062f8       ??_C@_1M@LAKFNPAN@?$AAe?$AAn?$AA?9?$AAz?$AAa?$AA?$AA@ 00000001800212f8     libucrt:lcidtoname_downlevel.obj
 0002:00006308       ??_C@_1M@MFNHNHEO@?$AAe?$AAn?$AA?9?$AAz?$AAw?$AA?$AA@ 0000000180021308     libucrt:lcidtoname_downlevel.obj
 0002:00006318       ??_C@_1M@EJEINPHM@?$AAe?$AAs?$AA?9?$AAa?$AAr?$AA?$AA@ 0000000180021318     libucrt:lcidtoname_downlevel.obj
 0002:00006328       ??_C@_1M@GNKPCCJA@?$AAe?$AAs?$AA?9?$AAb?$AAo?$AA?$AA@ 0000000180021328     libucrt:lcidtoname_downlevel.obj
 0002:00006338       ??_C@_1M@LEEGFONL@?$AAe?$AAs?$AA?9?$AAc?$AAl?$AA?$AA@ 0000000180021338     libucrt:lcidtoname_downlevel.obj
 0002:00006348       ??_C@_1M@KGPDPBDF@?$AAe?$AAs?$AA?9?$AAc?$AAo?$AA?$AA@ 0000000180021348     libucrt:lcidtoname_downlevel.obj
 0002:00006358       ??_C@_1M@EIAHOHH@?$AAe?$AAs?$AA?9?$AAc?$AAr?$AA?$AA@ 0000000180021358     libucrt:lcidtoname_downlevel.obj
 0002:00006368       ??_C@_1M@LLPGMBIN@?$AAe?$AAs?$AA?9?$AAd?$AAo?$AA?$AA@ 0000000180021368     libucrt:lcidtoname_downlevel.obj
 0002:00006378       ??_C@_1M@DKHMKNJA@?$AAe?$AAs?$AA?9?$AAe?$AAc?$AA?$AA@ 0000000180021378     libucrt:lcidtoname_downlevel.obj
 0002:00006388       ??_C@_1M@GKGFPKAP@?$AAe?$AAs?$AA?9?$AAe?$AAs?$AA?$AA@ 0000000180021388     libucrt:lcidtoname_downlevel.obj
 0002:00006398       ??_C@_1M@LKHKGDLN@?$AAe?$AAs?$AA?9?$AAg?$AAt?$AA?$AA@ 0000000180021398     libucrt:lcidtoname_downlevel.obj
 0002:000063a8       ??_C@_1M@HEIIGGJD@?$AAe?$AAs?$AA?9?$AAh?$AAn?$AA?$AA@ 00000001800213a8     libucrt:lcidtoname_downlevel.obj
 0002:000063b8       ??_C@_1M@FBDHPPGD@?$AAe?$AAs?$AA?9?$AAm?$AAx?$AA?$AA@ 00000001800213b8     libucrt:lcidtoname_downlevel.obj
 0002:000063c8       ??_C@_1M@DPAGLNDH@?$AAe?$AAs?$AA?9?$AAn?$AAi?$AA?$AA@ 00000001800213c8     libucrt:lcidtoname_downlevel.obj
 0002:000063d8       ??_C@_1M@MDGOPGDD@?$AAe?$AAs?$AA?9?$AAp?$AAa?$AA?$AA@ 00000001800213d8     libucrt:lcidtoname_downlevel.obj
 0002:000063e8       ??_C@_1M@EMAMGBGE@?$AAe?$AAs?$AA?9?$AAp?$AAe?$AA?$AA@ 00000001800213e8     libucrt:lcidtoname_downlevel.obj
 0002:000063f8       ??_C@_1M@IBMCAOEC@?$AAe?$AAs?$AA?9?$AAp?$AAr?$AA?$AA@ 00000001800213f8     libucrt:lcidtoname_downlevel.obj
 0002:00006408       ??_C@_1M@FGMDIJED@?$AAe?$AAs?$AA?9?$AAp?$AAy?$AA?$AA@ 0000000180021408     libucrt:lcidtoname_downlevel.obj
 0002:00006418       ??_C@_1M@IIDEOLLL@?$AAe?$AAs?$AA?9?$AAs?$AAv?$AA?$AA@ 0000000180021418     libucrt:lcidtoname_downlevel.obj
 0002:00006428       ??_C@_1M@GAOBIPA@?$AAe?$AAs?$AA?9?$AAu?$AAy?$AA?$AA@ 0000000180021428     libucrt:lcidtoname_downlevel.obj
 0002:00006438       ??_C@_1M@JKFFICHJ@?$AAe?$AAs?$AA?9?$AAv?$AAe?$AA?$AA@ 0000000180021438     libucrt:lcidtoname_downlevel.obj
 0002:00006448       ??_C@_1M@PNMLOJDF@?$AAe?$AAt?$AA?9?$AAe?$AAe?$AA?$AA@ 0000000180021448     libucrt:lcidtoname_downlevel.obj
 0002:00006458       ??_C@_1M@GHHLIKEI@?$AAe?$AAu?$AA?9?$AAe?$AAs?$AA?$AA@ 0000000180021458     libucrt:lcidtoname_downlevel.obj
 0002:00006468       ??_C@_1M@PBNONODE@?$AAf?$AAa?$AA?9?$AAi?$AAr?$AA?$AA@ 0000000180021468     libucrt:lcidtoname_downlevel.obj
 0002:00006478       ??_C@_1M@JEEHPMIL@?$AAf?$AAi?$AA?9?$AAf?$AAi?$AA?$AA@ 0000000180021478     libucrt:lcidtoname_downlevel.obj
 0002:00006488       ??_C@_1M@LMDCNDBA@?$AAf?$AAo?$AA?9?$AAf?$AAo?$AA?$AA@ 0000000180021488     libucrt:lcidtoname_downlevel.obj
 0002:00006498       ??_C@_1M@JKEOHLDK@?$AAf?$AAr?$AA?9?$AAb?$AAe?$AA?$AA@ 0000000180021498     libucrt:lcidtoname_downlevel.obj
 0002:000064a8       ??_C@_1M@NOHADPMI@?$AAf?$AAr?$AA?9?$AAc?$AAa?$AA?$AA@ 00000001800214a8     libucrt:lcidtoname_downlevel.obj
 0002:000064b8       ??_C@_1M@KDHIHAEC@?$AAf?$AAr?$AA?9?$AAc?$AAh?$AA?$AA@ 00000001800214b8     libucrt:lcidtoname_downlevel.obj
 0002:000064c8       ??_C@_1M@MMBBFGAK@?$AAf?$AAr?$AA?9?$AAf?$AAr?$AA?$AA@ 00000001800214c8     libucrt:lcidtoname_downlevel.obj
 0002:000064d8       ??_C@_1M@PAFNENNF@?$AAf?$AAr?$AA?9?$AAl?$AAu?$AA?$AA@ 00000001800214d8     libucrt:lcidtoname_downlevel.obj
 0002:000064e8       ??_C@_1M@EOHDJGDD@?$AAf?$AAr?$AA?9?$AAm?$AAc?$AA?$AA@ 00000001800214e8     libucrt:lcidtoname_downlevel.obj
 0002:000064f8       ??_C@_1M@FAPLLOPF@?$AAg?$AAl?$AA?9?$AAe?$AAs?$AA?$AA@ 00000001800214f8     libucrt:lcidtoname_downlevel.obj
 0002:00006508       ??_C@_1M@FOPBFLOO@?$AAg?$AAu?$AA?9?$AAi?$AAn?$AA?$AA@ 0000000180021508     libucrt:lcidtoname_downlevel.obj
 0002:00006518       ??_C@_1M@KBMCINPM@?$AAh?$AAe?$AA?9?$AAi?$AAl?$AA?$AA@ 0000000180021518     libucrt:lcidtoname_downlevel.obj
 0002:00006528       ??_C@_1M@BBPHKFPJ@?$AAh?$AAi?$AA?9?$AAi?$AAn?$AA?$AA@ 0000000180021528     libucrt:lcidtoname_downlevel.obj
 0002:00006538       ??_C@_1M@PMBNDPHD@?$AAh?$AAr?$AA?9?$AAb?$AAa?$AA?$AA@ 0000000180021538     libucrt:lcidtoname_downlevel.obj
 0002:00006548       ??_C@_1M@BPCKOEGE@?$AAh?$AAr?$AA?9?$AAh?$AAr?$AA?$AA@ 0000000180021548     libucrt:lcidtoname_downlevel.obj
 0002:00006558       ??_C@_1M@GACBMHKE@?$AAh?$AAu?$AA?9?$AAh?$AAu?$AA?$AA@ 0000000180021558     libucrt:lcidtoname_downlevel.obj
 0002:00006568       ??_C@_1M@MILPAJJC@?$AAh?$AAy?$AA?9?$AAa?$AAm?$AA?$AA@ 0000000180021568     libucrt:lcidtoname_downlevel.obj
 0002:00006578       ??_C@_1M@BABBICEC@?$AAi?$AAd?$AA?9?$AAi?$AAd?$AA?$AA@ 0000000180021578     libucrt:lcidtoname_downlevel.obj
 0002:00006588       ??_C@_1M@BIKNHHPF@?$AAi?$AAs?$AA?9?$AAi?$AAs?$AA?$AA@ 0000000180021588     libucrt:lcidtoname_downlevel.obj
 0002:00006598       ??_C@_1M@NMPCJPHE@?$AAi?$AAt?$AA?9?$AAc?$AAh?$AA?$AA@ 0000000180021598     libucrt:lcidtoname_downlevel.obj
 0002:000065a8       ??_C@_1M@GHKGFEDF@?$AAi?$AAt?$AA?9?$AAi?$AAt?$AA?$AA@ 00000001800215a8     libucrt:lcidtoname_downlevel.obj
 0002:000065b8       ??_C@_1M@NIEJCJJA@?$AAj?$AAa?$AA?9?$AAj?$AAp?$AA?$AA@ 00000001800215b8     libucrt:lcidtoname_downlevel.obj
 0002:000065c8       ??_C@_1M@JILFNBIM@?$AAk?$AAa?$AA?9?$AAg?$AAe?$AA?$AA@ 00000001800215c8     libucrt:lcidtoname_downlevel.obj
 0002:000065d8       ??_C@_1M@PACPMGPH@?$AAk?$AAk?$AA?9?$AAk?$AAz?$AA?$AA@ 00000001800215d8     libucrt:lcidtoname_downlevel.obj
 0002:000065e8       ??_C@_1M@IELFGMHA@?$AAk?$AAn?$AA?9?$AAi?$AAn?$AA?$AA@ 00000001800215e8     libucrt:lcidtoname_downlevel.obj
 0002:000065f8       ??_C@_1O@IBBJHCH@?$AAk?$AAo?$AAk?$AA?9?$AAi?$AAn?$AA?$AA@ 00000001800215f8     libucrt:lcidtoname_downlevel.obj
 0002:00006608       ??_C@_1M@DMHAEOGC@?$AAk?$AAo?$AA?9?$AAk?$AAr?$AA?$AA@ 0000000180021608     libucrt:lcidtoname_downlevel.obj
 0002:00006618       ??_C@_1M@HBAHBIGA@?$AAk?$AAy?$AA?9?$AAk?$AAg?$AA?$AA@ 0000000180021618     libucrt:lcidtoname_downlevel.obj
 0002:00006628       ??_C@_1M@KPMILCJG@?$AAl?$AAt?$AA?9?$AAl?$AAt?$AA?$AA@ 0000000180021628     libucrt:lcidtoname_downlevel.obj
 0002:00006638       ??_C@_1M@BDEKKCA@?$AAl?$AAv?$AA?9?$AAl?$AAv?$AA?$AA@ 0000000180021638     libucrt:lcidtoname_downlevel.obj
 0002:00006648       ??_C@_1M@ELCKCCJJ@?$AAm?$AAi?$AA?9?$AAn?$AAz?$AA?$AA@ 0000000180021648     libucrt:lcidtoname_downlevel.obj
 0002:00006658       ??_C@_1M@CBOOLAPA@?$AAm?$AAk?$AA?9?$AAm?$AAk?$AA?$AA@ 0000000180021658     libucrt:lcidtoname_downlevel.obj
 0002:00006668       ??_C@_1M@GPHNBJKN@?$AAm?$AAl?$AA?9?$AAi?$AAn?$AA?$AA@ 0000000180021668     libucrt:lcidtoname_downlevel.obj
 0002:00006678       ??_C@_1M@PABJILIG@?$AAm?$AAn?$AA?9?$AAm?$AAn?$AA?$AA@ 0000000180021678     libucrt:lcidtoname_downlevel.obj
 0002:00006688       ??_C@_1M@FGBKKIPG@?$AAm?$AAr?$AA?9?$AAi?$AAn?$AA?$AA@ 0000000180021688     libucrt:lcidtoname_downlevel.obj
 0002:00006698       ??_C@_1M@NDBPDDAL@?$AAm?$AAs?$AA?9?$AAb?$AAn?$AA?$AA@ 0000000180021698     libucrt:lcidtoname_downlevel.obj
 0002:000066a8       ??_C@_1M@OPIHOOPI@?$AAm?$AAs?$AA?9?$AAm?$AAy?$AA?$AA@ 00000001800216a8     libucrt:lcidtoname_downlevel.obj
 0002:000066b8       ??_C@_1M@PPDBCNFM@?$AAm?$AAt?$AA?9?$AAm?$AAt?$AA?$AA@ 00000001800216b8     libucrt:lcidtoname_downlevel.obj
 0002:000066c8       ??_C@_1M@KDJDKMDD@?$AAn?$AAb?$AA?9?$AAn?$AAo?$AA?$AA@ 00000001800216c8     libucrt:lcidtoname_downlevel.obj
 0002:000066d8       ??_C@_1M@KFCFLMJP@?$AAn?$AAl?$AA?9?$AAb?$AAe?$AA?$AA@ 00000001800216d8     libucrt:lcidtoname_downlevel.obj
 0002:000066e8       ??_C@_1M@KPOPDDGO@?$AAn?$AAl?$AA?9?$AAn?$AAl?$AA?$AA@ 00000001800216e8     libucrt:lcidtoname_downlevel.obj
 0002:000066f8       ??_C@_1M@LJKPEMLN@?$AAn?$AAn?$AA?9?$AAn?$AAo?$AA?$AA@ 00000001800216f8     libucrt:lcidtoname_downlevel.obj
 0002:00006708       ??_C@_1M@BDGHHBFL@?$AAn?$AAs?$AA?9?$AAz?$AAa?$AA?$AA@ 0000000180021708     libucrt:lcidtoname_downlevel.obj
 0002:00006718       ??_C@_1M@IDEHOAP@?$AAp?$AAa?$AA?9?$AAi?$AAn?$AA?$AA@ 0000000180021718     libucrt:lcidtoname_downlevel.obj
 0002:00006728       ??_C@_1M@HDBKGOGH@?$AAp?$AAl?$AA?9?$AAp?$AAl?$AA?$AA@ 0000000180021728     libucrt:lcidtoname_downlevel.obj
 0002:00006738       ??_C@_1M@LJLLCMEH@?$AAp?$AAt?$AA?9?$AAb?$AAr?$AA?$AA@ 0000000180021738     libucrt:lcidtoname_downlevel.obj
 0002:00006748       ??_C@_1M@NCMONAAL@?$AAp?$AAt?$AA?9?$AAp?$AAt?$AA?$AA@ 0000000180021748     libucrt:lcidtoname_downlevel.obj
 0002:00006758       ??_C@_1O@EAKMAJDN@?$AAq?$AAu?$AAz?$AA?9?$AAb?$AAo?$AA?$AA@ 0000000180021758     libucrt:lcidtoname_downlevel.obj
 0002:00006768       ??_C@_1O@BHHPIGDN@?$AAq?$AAu?$AAz?$AA?9?$AAe?$AAc?$AA?$AA@ 0000000180021768     libucrt:lcidtoname_downlevel.obj
 0002:00006778       ??_C@_1O@GBAPEKMJ@?$AAq?$AAu?$AAz?$AA?9?$AAp?$AAe?$AA?$AA@ 0000000180021778     libucrt:lcidtoname_downlevel.obj
 0002:00006788       ??_C@_1M@CLGLEFBO@?$AAr?$AAo?$AA?9?$AAr?$AAo?$AA?$AA@ 0000000180021788     libucrt:lcidtoname_downlevel.obj
 0002:00006798       ??_C@_1M@CEEDODME@?$AAr?$AAu?$AA?9?$AAr?$AAu?$AA?$AA@ 0000000180021798     libucrt:lcidtoname_downlevel.obj
 0002:000067a8       ??_C@_1M@HPKKKMPP@?$AAs?$AAa?$AA?9?$AAi?$AAn?$AA?$AA@ 00000001800217a8     libucrt:lcidtoname_downlevel.obj
 0002:000067b8       ??_C@_1M@BKMAIGOJ@?$AAs?$AAe?$AA?9?$AAf?$AAi?$AA?$AA@ 00000001800217b8     libucrt:lcidtoname_downlevel.obj
 0002:000067c8       ??_C@_1M@NDPIFLFI@?$AAs?$AAe?$AA?9?$AAn?$AAo?$AA?$AA@ 00000001800217c8     libucrt:lcidtoname_downlevel.obj
 0002:000067d8       ??_C@_1M@DANKKHJ@?$AAs?$AAe?$AA?9?$AAs?$AAe?$AA?$AA@ 00000001800217d8     libucrt:lcidtoname_downlevel.obj
 0002:000067e8       ??_C@_1M@PNBLONPJ@?$AAs?$AAk?$AA?9?$AAs?$AAk?$AA?$AA@ 00000001800217e8     libucrt:lcidtoname_downlevel.obj
 0002:000067f8       ??_C@_1M@LFMODOAL@?$AAs?$AAl?$AA?9?$AAs?$AAi?$AA?$AA@ 00000001800217f8     libucrt:lcidtoname_downlevel.obj
 0002:00006808       ??_C@_1O@DFKOMPG@?$AAs?$AAm?$AAa?$AA?9?$AAn?$AAo?$AA?$AA@ 0000000180021808     libucrt:lcidtoname_downlevel.obj
 0002:00006818       ??_C@_1O@NDKPBNNH@?$AAs?$AAm?$AAa?$AA?9?$AAs?$AAe?$AA?$AA@ 0000000180021818     libucrt:lcidtoname_downlevel.obj
 0002:00006828       ??_C@_1O@PLLKBHAB@?$AAs?$AAm?$AAj?$AA?9?$AAn?$AAo?$AA?$AA@ 0000000180021828     libucrt:lcidtoname_downlevel.obj
 0002:00006838       ??_C@_1O@CLEPOGCA@?$AAs?$AAm?$AAj?$AA?9?$AAs?$AAe?$AA?$AA@ 0000000180021838     libucrt:lcidtoname_downlevel.obj
 0002:00006848       ??_C@_1O@DLGJGKMK@?$AAs?$AAm?$AAn?$AA?9?$AAf?$AAi?$AA?$AA@ 0000000180021848     libucrt:lcidtoname_downlevel.obj
 0002:00006858       ??_C@_1O@OJDJGAJC@?$AAs?$AAm?$AAs?$AA?9?$AAf?$AAi?$AA?$AA@ 0000000180021858     libucrt:lcidtoname_downlevel.obj
 0002:00006868       ??_C@_1M@BOFOGHPB@?$AAs?$AAq?$AA?9?$AAa?$AAl?$AA?$AA@ 0000000180021868     libucrt:lcidtoname_downlevel.obj
 0002:00006878       ??_C@_1BG@LJBBIPGB@?$AAs?$AAr?$AA?9?$AAb?$AAa?$AA?9?$AAc?$AAy?$AAr?$AAl?$AA?$AA@ 0000000180021878     libucrt:lcidtoname_downlevel.obj
 0002:00006890       ??_C@_1BG@JLBENFOE@?$AAs?$AAr?$AA?9?$AAb?$AAa?$AA?9?$AAl?$AAa?$AAt?$AAn?$AA?$AA@ 0000000180021890     libucrt:lcidtoname_downlevel.obj
 0002:000068a8       ??_C@_1BG@KODPNHE@?$AAs?$AAr?$AA?9?$AAs?$AAp?$AA?9?$AAc?$AAy?$AAr?$AAl?$AA?$AA@ 00000001800218a8     libucrt:lcidtoname_downlevel.obj
 0002:000068c0       ??_C@_1BG@CIOGKHPB@?$AAs?$AAr?$AA?9?$AAs?$AAp?$AA?9?$AAl?$AAa?$AAt?$AAn?$AA?$AA@ 00000001800218c0     libucrt:lcidtoname_downlevel.obj
 0002:000068d8       ??_C@_1M@NGFJLMAC@?$AAs?$AAv?$AA?9?$AAf?$AAi?$AA?$AA@ 00000001800218d8     libucrt:lcidtoname_downlevel.obj
 0002:000068e8       ??_C@_1M@MPJEJAJC@?$AAs?$AAv?$AA?9?$AAs?$AAe?$AA?$AA@ 00000001800218e8     libucrt:lcidtoname_downlevel.obj
 0002:000068f8       ??_C@_1M@MPNDHLFK@?$AAs?$AAw?$AA?9?$AAk?$AAe?$AA?$AA@ 00000001800218f8     libucrt:lcidtoname_downlevel.obj
 0002:00006908       ??_C@_1O@KOHBJJI@?$AAs?$AAy?$AAr?$AA?9?$AAs?$AAy?$AA?$AA@ 0000000180021908     libucrt:lcidtoname_downlevel.obj
 0002:00006918       ??_C@_1M@LDCEFHA@?$AAt?$AAa?$AA?9?$AAi?$AAn?$AA?$AA@ 0000000180021918     libucrt:lcidtoname_downlevel.obj
 0002:00006928       ??_C@_1M@CNJOFAK@?$AAt?$AAe?$AA?9?$AAi?$AAn?$AA?$AA@ 0000000180021928     libucrt:lcidtoname_downlevel.obj
 0002:00006938       ??_C@_1M@GNAECACD@?$AAt?$AAh?$AA?9?$AAt?$AAh?$AA?$AA@ 0000000180021938     libucrt:lcidtoname_downlevel.obj
 0002:00006948       ??_C@_1M@CHBIHOJO@?$AAt?$AAn?$AA?9?$AAz?$AAa?$AA?$AA@ 0000000180021948     libucrt:lcidtoname_downlevel.obj
 0002:00006958       ??_C@_1M@GCCMIGPJ@?$AAt?$AAr?$AA?9?$AAt?$AAr?$AA?$AA@ 0000000180021958     libucrt:lcidtoname_downlevel.obj
 0002:00006968       ??_C@_1M@CELMCNBK@?$AAt?$AAt?$AA?9?$AAr?$AAu?$AA?$AA@ 0000000180021968     libucrt:lcidtoname_downlevel.obj
 0002:00006978       ??_C@_1M@KLMCELGA@?$AAu?$AAk?$AA?9?$AAu?$AAa?$AA?$AA@ 0000000180021978     libucrt:lcidtoname_downlevel.obj
 0002:00006988       ??_C@_1M@EPAJJAJF@?$AAu?$AAr?$AA?9?$AAp?$AAk?$AA?$AA@ 0000000180021988     libucrt:lcidtoname_downlevel.obj
 0002:00006998       ??_C@_1BG@GEGPMCDJ@?$AAu?$AAz?$AA?9?$AAu?$AAz?$AA?9?$AAc?$AAy?$AAr?$AAl?$AA?$AA@ 0000000180021998     libucrt:lcidtoname_downlevel.obj
 0002:000069b0       ??_C@_1BG@EGGKJILM@?$AAu?$AAz?$AA?9?$AAu?$AAz?$AA?9?$AAl?$AAa?$AAt?$AAn?$AA?$AA@ 00000001800219b0     libucrt:lcidtoname_downlevel.obj
 0002:000069c8       ??_C@_1M@GFOCLFF@?$AAv?$AAi?$AA?9?$AAv?$AAn?$AA?$AA@ 00000001800219c8     libucrt:lcidtoname_downlevel.obj
 0002:000069d8       ??_C@_1M@CPAMEDFI@?$AAx?$AAh?$AA?9?$AAz?$AAa?$AA?$AA@ 00000001800219d8     libucrt:lcidtoname_downlevel.obj
 0002:000069e8       ??_C@_1O@EBKIFIGN@?$AAz?$AAh?$AA?9?$AAc?$AAh?$AAs?$AA?$AA@ 00000001800219e8     libucrt:lcidtoname_downlevel.obj
 0002:000069f8       ??_C@_1O@NMHPGANE@?$AAz?$AAh?$AA?9?$AAc?$AAh?$AAt?$AA?$AA@ 00000001800219f8     libucrt:lcidtoname_downlevel.obj
 0002:00006a08       ??_C@_1M@LPINJOMC@?$AAz?$AAh?$AA?9?$AAc?$AAn?$AA?$AA@ 0000000180021a08     libucrt:lcidtoname_downlevel.obj
 0002:00006a18       ??_C@_1M@OCJEJODD@?$AAz?$AAh?$AA?9?$AAh?$AAk?$AA?$AA@ 0000000180021a18     libucrt:lcidtoname_downlevel.obj
 0002:00006a28       ??_C@_1M@DNDLJINH@?$AAz?$AAh?$AA?9?$AAm?$AAo?$AA?$AA@ 0000000180021a28     libucrt:lcidtoname_downlevel.obj
 0002:00006a38       ??_C@_1M@MBFDNDND@?$AAz?$AAh?$AA?9?$AAs?$AAg?$AA?$AA@ 0000000180021a38     libucrt:lcidtoname_downlevel.obj
 0002:00006a48       ??_C@_1M@IMEPLEPE@?$AAz?$AAh?$AA?9?$AAt?$AAw?$AA?$AA@ 0000000180021a48     libucrt:lcidtoname_downlevel.obj
 0002:00006a58       ??_C@_1M@BBGHNHJP@?$AAz?$AAu?$AA?9?$AAz?$AAa?$AA?$AA@ 0000000180021a58     libucrt:lcidtoname_downlevel.obj
 0002:00006a68       __real@3ff0000000000000    0000000180021a68     libucrt:ceil.obj
 0002:00006cc0       ??_C@_1BA@BALFACEM@?$AAC?$AAO?$AAN?$AAO?$AAU?$AAT?$AA$?$AA?$AA@ 0000000180021cc0     libucrt:initcon.obj
 0002:00006cd0       __log10_256_lead           0000000180021cd0     libucrt:log10_256_lead_tail_table.obj
 0002:000074e0       __log10_256_tail           00000001800224e0     libucrt:log10_256_lead_tail_table.obj
 0002:00007cf0       __log_F_inv_qword          0000000180022cf0     libucrt:log_f_inv_qword_table.obj
 0002:00008500       ??_C@_05HGHHAHAP@log10?$AA@ 0000000180023500     libucrt:log_special.obj
 0002:00008520       ??_C@_1JO@JIMAIMGE@?$AAC?$AA?3?$AA?2?$AAU?$AAs?$AAe?$AAr?$AAs?$AA?2?$AAL?$AAe?$AAn?$AAo?$AAv?$AAo?$AA?2?$AAD?$AAe?$AAs?$AAk?$AAt?$AAo?$AAp?$AA?2?$AAE?$AAl?$AAe?$AAc?$AAt?$AAr?$AAo?$AAn@ 0000000180023520     ffi.obj
 0002:000085c0       ??_C@_1GA@PFOOBIAG@?$AAl?$AAe?$AAn?$AAg?$AAt?$AAh?$AA?5?$AA?$DM?$AA?$DN?$AA?5?$AAi?$AAm?$AAp?$AA?3?$AA?3?$AAk?$AAM?$AAa?$AAx?$AAL?$AAe?$AAn?$AAg?$AAt?$AAh?$AA?5?$AA?$CG?$AA?$CG?$AA?5?$AA?$CC?$AAt?$AAo@ 00000001800235c0     ffi.obj
 0002:00008620       ??_C@_06KHGDIILE@dlopen?$AA@ 0000000180023620     ffi.obj
 0002:00008628       ??_C@_07HNLAOBEA@dlclose?$AA@ 0000000180023628     ffi.obj
 0002:00008630       ??_C@_05HDGDMABL@dlsym?$AA@ 0000000180023630     ffi.obj
 0002:00008638       ??_C@_07MGPFHKHO@dlerror?$AA@ 0000000180023638     ffi.obj
 0002:00008640       ??_C@_06NDPGNMM@_errno?$AA@ 0000000180023640     ffi.obj
 0002:00008648       ??_C@_0BA@BOIHMNDD@StaticFunctions?$AA@ 0000000180023648     ffi.obj
 0002:00008658       ??_C@_06MEIGBDJG@3?40?411?$AA@ 0000000180023658     ffi.obj
 0002:00008660       ??_C@_07CPCPJPKL@version?$AA@ 0000000180023660     ffi.obj
 0002:00008668       ??_C@_0N@NBHPAHKM@ffi_prep_cif?$AA@ 0000000180023668     ffi.obj
 0002:00008678       ??_C@_0BB@PLIKCKHK@ffi_prep_cif_var?$AA@ 0000000180023678     ffi.obj
 0002:00008690       ??_C@_08BGHAICED@ffi_call?$AA@ 0000000180023690     ffi.obj
 0002:000086a0       ??_C@_0P@IDJHAKII@ffi_call_async?$AA@ 00000001800236a0     ffi.obj
 0002:000086b0       ??_C@_06DCIPPAEM@FFI_OK?$AA@ 00000001800236b0     ffi.obj
 0002:000086b8       ??_C@_0BA@IJCDEOKH@FFI_BAD_TYPEDEF?$AA@ 00000001800236b8     ffi.obj
 0002:000086c8       ??_C@_0M@HMIOGDGG@FFI_BAD_ABI?$AA@ 00000001800236c8     ffi.obj
 0002:000086d8       ??_C@_0BA@ELLEFFKB@FFI_DEFAULT_ABI?$AA@ 00000001800236d8     ffi.obj
 0002:000086e8       ??_C@_0O@HECBJFOB@FFI_FIRST_ABI?$AA@ 00000001800236e8     ffi.obj
 0002:000086f8       ??_C@_0N@EEFKFOLP@FFI_LAST_ABI?$AA@ 00000001800236f8     ffi.obj
 0002:00008708       ??_C@_09GFHJJNNH@FFI_WIN64?$AA@ 0000000180023708     ffi.obj
 0002:00008718       ??_C@_09JHNCKAH@RTLD_LAZY?$AA@ 0000000180023718     ffi.obj
 0002:00008728       ??_C@_08MMOIFOJA@RTLD_NOW?$AA@ 0000000180023728     ffi.obj
 0002:00008738       ??_C@_0L@ECLFLMDM@RTLD_LOCAL?$AA@ 0000000180023738     ffi.obj
 0002:00008748       ??_C@_0M@CIOPDONK@RTLD_GLOBAL?$AA@ 0000000180023748     ffi.obj
 0002:00008758       ??_C@_09EKPFEEBD@RTLD_NEXT?$AA@ 0000000180023758     ffi.obj
 0002:00008768       ??_C@_0N@BMDKOFEE@RTLD_DEFAULT?$AA@ 0000000180023768     ffi.obj
 0002:00008778       ??_C@_0N@LDLPBE@FFI_ARG_SIZE?$AA@ 0000000180023778     ffi.obj
 0002:00008788       ??_C@_0O@EJOMENGB@FFI_SARG_SIZE?$AA@ 0000000180023788     ffi.obj
 0002:00008798       ??_C@_0O@GJJCKACF@FFI_TYPE_SIZE?$AA@ 0000000180023798     ffi.obj
 0002:000087a8       ??_C@_0N@KJODLBFL@FFI_CIF_SIZE?$AA@ 00000001800237a8     ffi.obj
 0002:000087b8       ??_C@_08DLIJIKML@HAS_OBJC?$AA@ 00000001800237b8     ffi.obj
 0002:000087c4       ??_C@_04GKJNKENE@void?$AA@ 00000001800237c4     ffi.obj
 0002:000087cc       ??_C@_05BOGOCLFF@uint8?$AA@ 00000001800237cc     ffi.obj
 0002:000087d4       ??_C@_04DCGBOBJJ@int8?$AA@ 00000001800237d4     ffi.obj
 0002:000087dc       ??_C@_06JNNCGBKK@uint16?$AA@ 00000001800237dc     ffi.obj
 0002:000087e4       ??_C@_05PCMOAPL@int16?$AA@ 00000001800237e4     ffi.obj
 0002:000087ec       ??_C@_06PKDKHAMA@uint32?$AA@ 00000001800237ec     ffi.obj
 0002:000087f4       ??_C@_05GIMEPBJB@int32?$AA@ 00000001800237f4     ffi.obj
 0002:000087fc       ??_C@_06KKKLBFKN@uint64?$AA@ 00000001800237fc     ffi.obj
 0002:00008804       ??_C@_05DIFFJEPM@int64?$AA@ 0000000180023804     ffi.obj
 0002:0000880c       ??_C@_05GBMOKKDM@uchar?$AA@ 000000018002380c     ffi.obj
 0002:00008814       ??_C@_04ENMBGAPA@char?$AA@ 0000000180023814     ffi.obj
 0002:0000881c       ??_C@_06IHFEHLHH@ushort?$AA@ 000000018002381c     ffi.obj
 0002:00008824       ??_C@_05BFKKPKCG@short?$AA@ 0000000180023824     ffi.obj
 0002:0000882c       ??_C@_04EHNLIFAM@uint?$AA@ 000000018002382c     ffi.obj
 0002:00008834       ??_C@_03JBIPMCLC@int?$AA@  0000000180023834     ffi.obj
 0002:00008838       ??_C@_05KNFBNCOH@float?$AA@ 0000000180023838     ffi.obj
 0002:00008840       ??_C@_06BNJCAIGJ@double?$AA@ 0000000180023840     ffi.obj
 0002:00008848       ??_C@_07PFMCDPMA@pointer?$AA@ 0000000180023848     ffi.obj
 0002:00008850       ??_C@_09CGIDHHPL@ulonglong?$AA@ 0000000180023850     ffi.obj
 0002:00008860       ??_C@_08DDGAEFPP@longlong?$AA@ 0000000180023860     ffi.obj
 0002:00008870       ??_C@_09EPMAHDDO@FFI_TYPES?$AA@ 0000000180023870     ffi.obj
 0002:00008880       ??_C@_0CF@IOKPAGAF@ffi_prep_cif?$CI?$CJ?5requires?55?5argume@ 0000000180023880     ffi.obj
 0002:000088a8       ??_C@_0CI@GLBDJBBI@prepCif?$CI?$CJ?3?5Buffer?5required?5as?5fi@ 00000001800238a8     ffi.obj
 0002:000088d0       ??_C@_0CL@JAEBPJKK@prepCifVar?$CI?$CJ?3?5Buffer?5required?5as@ 00000001800238d0     ffi.obj
 0002:00008900       ??_C@_0CB@MGALBCIB@ffi_call?$CI?$CJ?5requires?54?5arguments?$CB@ 0000000180023900     ffi.obj
 0002:00008928       ??_C@_0CH@GNFHOGOK@ffi_call_async?$CI?$CJ?5requires?55?5argu@ 0000000180023928     ffi.obj
 0002:00008950       ??_C@_0O@EMAMNEKD@?4?4?2src?2ffi?4cc?$AA@ 0000000180023950     ffi.obj
 0002:00008960       ??_C@_0N@JPIAKLE@ffi_bindings?$AA@ 0000000180023960     ffi.obj
 0002:00008970       ??_C@_0DA@KGNPNPE@ffi?5fatal?3?5callback?5has?5been?5gar@ 0000000180023970     callback_info.obj
 0002:000089a0       ??_C@_0BG@FKAPLCHH@Not?5enough?5arguments?4?$AA@ 00000001800239a0     callback_info.obj
 0002:000089b8       ??_C@_0CD@PPEAHEKO@ffi_closure_alloc?$CI?$CJ?5Returned?5Err@ 00000001800239b8     callback_info.obj
 0002:000089e0       ??_C@_0CC@JEGCEPCG@ffi_prep_closure?$CI?$CJ?5Returned?5Erro@ 00000001800239e0     callback_info.obj
 0002:00008a08       ??_C@_08HNHIOOFI@Callback?$AA@ 0000000180023a08     callback_info.obj
 0002:00008a18       ??_C@_0BC@KBDMBKEH@deque?$DMT?$DO?5too?5long?$AA@ 0000000180023a18     callback_info.obj
 0002:00008a30       ??_C@_0BA@OIIBEHIA@Win32?5error?5?$CFlu?$AA@ 0000000180023a30     win32-dlfcn.obj
 0002:00008a40       ffi_type_sint16            0000000180023a40     libffi:types.obj
 0002:00008a58       ffi_type_void              0000000180023a58     libffi:types.obj
 0002:00008a70       ffi_type_sint32            0000000180023a70     libffi:types.obj
 0002:00008a88       ffi_type_uint16            0000000180023a88     libffi:types.obj
 0002:00008aa0       ffi_type_pointer           0000000180023aa0     libffi:types.obj
 0002:00008ab8       ffi_type_uint64            0000000180023ab8     libffi:types.obj
 0002:00008ad0       ffi_type_uint8             0000000180023ad0     libffi:types.obj
 0002:00008ae8       ffi_type_sint8             0000000180023ae8     libffi:types.obj
 0002:00008b00       ffi_type_sint64            0000000180023b00     libffi:types.obj
 0002:00008b18       ffi_type_uint32            0000000180023b18     libffi:types.obj
 0002:00008b30       ffi_type_float             0000000180023b30     libffi:types.obj
 0002:00008b48       ffi_type_double            0000000180023b48     libffi:types.obj
 0002:00008bc0       _load_config_used          0000000180023bc0     LIBCMT:loadcfg.obj
 0002:00008c60       ??_R4exception@std@@6B@    0000000180023c60     libcpmt:xthrow.obj
 0002:00008c88       ??_R3exception@std@@8      0000000180023c88     libcpmt:xthrow.obj
 0002:00008ca0       ??_R2exception@std@@8      0000000180023ca0     libcpmt:xthrow.obj
 0002:00008cb0       ??_R1A@?0A@EA@exception@std@@8 0000000180023cb0     libcpmt:xthrow.obj
 0002:00008cd8       ??_R4bad_alloc@std@@6B@    0000000180023cd8     libcpmt:xthrow.obj
 0002:00008d00       ??_R3bad_alloc@std@@8      0000000180023d00     libcpmt:xthrow.obj
 0002:00008d18       ??_R2bad_alloc@std@@8      0000000180023d18     libcpmt:xthrow.obj
 0002:00008d30       ??_R1A@?0A@EA@bad_alloc@std@@8 0000000180023d30     libcpmt:xthrow.obj
 0002:00008d58       ??_R4logic_error@std@@6B@  0000000180023d58     libcpmt:xthrow.obj
 0002:00008d80       ??_R3logic_error@std@@8    0000000180023d80     libcpmt:xthrow.obj
 0002:00008d98       ??_R2logic_error@std@@8    0000000180023d98     libcpmt:xthrow.obj
 0002:00008db0       ??_R1A@?0A@EA@logic_error@std@@8 0000000180023db0     libcpmt:xthrow.obj
 0002:00008dd8       ??_R4length_error@std@@6B@ 0000000180023dd8     libcpmt:xthrow.obj
 0002:00008e00       ??_R3length_error@std@@8   0000000180023e00     libcpmt:xthrow.obj
 0002:00008e18       ??_R2length_error@std@@8   0000000180023e18     libcpmt:xthrow.obj
 0002:00008e38       ??_R1A@?0A@EA@length_error@std@@8 0000000180023e38     libcpmt:xthrow.obj
 0002:00008e60       ??_R4type_info@@6B@        0000000180023e60     LIBCMT:std_type_info_static.obj
 0002:00008e88       ??_R3type_info@@8          0000000180023e88     LIBCMT:std_type_info_static.obj
 0002:00008ea0       ??_R2type_info@@8          0000000180023ea0     LIBCMT:std_type_info_static.obj
 0002:00008eb0       ??_R1A@?0A@EA@type_info@@8 0000000180023eb0     LIBCMT:std_type_info_static.obj
 0002:00008ed8       ??_R4bad_array_new_length@std@@6B@ 0000000180023ed8     LIBCMT:throw_bad_alloc.obj
 0002:00008f00       ??_R3bad_array_new_length@std@@8 0000000180023f00     LIBCMT:throw_bad_alloc.obj
 0002:00008f18       ??_R2bad_array_new_length@std@@8 0000000180023f18     LIBCMT:throw_bad_alloc.obj
 0002:00008f38       ??_R1A@?0A@EA@bad_array_new_length@std@@8 0000000180023f38     LIBCMT:throw_bad_alloc.obj
 0002:000092e0       __rtc_iaa                  00000001800242e0     LIBCMT:_initsect_.obj
 0002:000092e8       __rtc_izz                  00000001800242e8     LIBCMT:_initsect_.obj
 0002:000092f0       __rtc_taa                  00000001800242f0     LIBCMT:_initsect_.obj
 0002:000092f8       __rtc_tzz                  00000001800242f8     LIBCMT:_initsect_.obj
 0002:0000a808       _TI2?AVbad_alloc@std@@     0000000180025808     libcpmt:xthrow.obj
 0002:0000a828       _CTA2?AVbad_alloc@std@@    0000000180025828     libcpmt:xthrow.obj
 0002:0000a840       _CT??_R0?AVbad_alloc@std@@@8??0bad_alloc@std@@QEAA@AEBV01@@Z24 0000000180025840     libcpmt:xthrow.obj
 0002:0000a868       _CT??_R0?AVexception@std@@@8??0exception@std@@QEAA@AEBV01@@Z24 0000000180025868     libcpmt:xthrow.obj
 0002:0000a890       _CT??_R0?AVlogic_error@std@@@8??0logic_error@std@@QEAA@AEBV01@@Z24 0000000180025890     libcpmt:xthrow.obj
 0002:0000a8b8       _TI3?AVlength_error@std@@  00000001800258b8     libcpmt:xthrow.obj
 0002:0000a8d8       _CTA3?AVlength_error@std@@ 00000001800258d8     libcpmt:xthrow.obj
 0002:0000a8f8       _CT??_R0?AVlength_error@std@@@8??0length_error@std@@QEAA@AEBV01@@Z24 00000001800258f8     libcpmt:xthrow.obj
 0002:0000a920       _TI3?AVbad_array_new_length@std@@ 0000000180025920     LIBCMT:throw_bad_alloc.obj
 0002:0000a940       _CTA3?AVbad_array_new_length@std@@ 0000000180025940     LIBCMT:throw_bad_alloc.obj
 0002:0000a960       _CT??_R0?AVbad_array_new_length@std@@@8??0bad_array_new_length@std@@QEAA@AEBV01@@Z24 0000000180025960     LIBCMT:throw_bad_alloc.obj
 0002:0000a9ec       __IMPORT_DESCRIPTOR_KERNEL32 00000001800259ec     kernel32:KERNEL32.dll
 0002:0000aa00       __IMPORT_DESCRIPTOR_node   0000000180025a00     iojs:node.dll
 0002:0000aa14       __NULL_IMPORT_DESCRIPTOR   0000000180025a14     kernel32:KERNEL32.dll
 0003:00000000       __scrt_native_dllmain_reason 0000000180028000     LIBCMT:utility.obj
 0003:00000010       __security_cookie_complement 0000000180028010     LIBCMT:gs_cookie.obj
 0003:00000018       __security_cookie          0000000180028018     LIBCMT:gs_cookie.obj
 0003:00000020       __memcpy_nt_iters          0000000180028020     LIBCMT:_cpu_disp_.obj
 0003:00000028       __isa_available            0000000180028028     LIBCMT:_cpu_disp_.obj
 0003:0000002c       __isa_enabled              000000018002802c     LIBCMT:_cpu_disp_.obj
 0003:00000048       __abort_behavior           0000000180028048     libucrt:abort.obj
 0003:00000050       _iob                       0000000180028050     libucrt:_file.obj
 0003:00000160       __acrt_initial_locale_data 0000000180028160     libucrt:nlsdata.obj
 0003:000002b8       __acrt_initial_locale_pointers 00000001800282b8     libucrt:nlsdata.obj
 0003:000002c8       __acrt_wide_c_locale_string 00000001800282c8     libucrt:nlsdata.obj
 0003:000002d0       __badioinfo                00000001800282d0     libucrt:ioinit.obj
 0003:00000620       __acrt_initial_multibyte_data 0000000180028620     libucrt:mbctype.obj
 0003:00000848       _pwctype                   0000000180028848     libucrt:ctype.obj
 0003:00000850       __globallocalestatus       0000000180028850     libucrt:glstatus.obj
 0003:00000854       __acrt_lconv_static_decimal 0000000180028854     libucrt:localeconv.obj
 0003:00000858       __acrt_lconv_static_W_decimal 0000000180028858     libucrt:localeconv.obj
 0003:00000860       __acrt_lconv_c             0000000180028860     libucrt:localeconv.obj
 0003:00000914       _fltused                   0000000180028914     LIBCMT:fltused.obj
 0003:00000960       ??_R0?AVbad_alloc@std@@@8  0000000180028960     libcpmt:xthrow.obj
 0003:00000988       ??_R0?AVexception@std@@@8  0000000180028988     libcpmt:xthrow.obj
 0003:000009b0       ??_R0?AVlogic_error@std@@@8 00000001800289b0     libcpmt:xthrow.obj
 0003:000009d8       ??_R0?AVlength_error@std@@@8 00000001800289d8     libcpmt:xthrow.obj
 0003:00000a00       ??_R0?AVtype_info@@@8      0000000180028a00     LIBCMT:std_type_info_static.obj
 0003:00000a20       ??_R0?AVbad_array_new_length@std@@@8 0000000180028a20     LIBCMT:throw_bad_alloc.obj
 0003:00000a50       __scrt_current_native_startup_state 0000000180028a50     LIBCMT:utility.obj
 0003:00000a58       __scrt_native_startup_lock 0000000180028a58     LIBCMT:utility.obj
 0003:00001010       __favor                    0000000180029010     LIBCMT:_cpu_disp_.obj
 0003:00001014       __scrt_debugger_hook_flag  0000000180029014     LIBCMT:utility_desktop.obj
 0003:00001020       ?__type_info_root_node@@3U__type_info_node@@A 0000000180029020     LIBCMT:tncleanup.obj
 0003:00001030       ?_OptionsStorage@?1??__local_stdio_scanf_options@@9@4_KA 0000000180029030     LIBCMT:default_local_stdio_options.obj
 0003:00001128       __pPurecall                0000000180029128     libvcruntime:purevirt_data.obj
 0003:00001130       ?pArgList@UnDecorator@@0PEAVReplicator@@EA 0000000180029130     libvcruntime:undname.obj
 0003:00001138       ?pZNameList@UnDecorator@@0PEAVReplicator@@EA 0000000180029138     libvcruntime:undname.obj
 0003:00001140       ?pTemplateArgList@UnDecorator@@0PEAVReplicator@@EA 0000000180029140     libvcruntime:undname.obj
 0003:00001148       ?gName@UnDecorator@@0PEBDEB 0000000180029148     libvcruntime:undname.obj
 0003:00001150       ?name@UnDecorator@@0PEBDEB 0000000180029150     libvcruntime:undname.obj
 0003:00001158       ?outputString@UnDecorator@@0PEADEA 0000000180029158     libvcruntime:undname.obj
 0003:00001160       ?maxStringLength@UnDecorator@@0HA 0000000180029160     libvcruntime:undname.obj
 0003:00001164       ?disableFlags@UnDecorator@@0KA 0000000180029164     libvcruntime:undname.obj
 0003:00001168       ?fExplicitTemplateParams@UnDecorator@@0_NA 0000000180029168     libvcruntime:undname.obj
 0003:00001169       ?fGetTemplateArgumentList@UnDecorator@@0_NA 0000000180029169     libvcruntime:undname.obj
 0003:00001170       ?m_pGetParameter@UnDecorator@@0P6APEADJ@ZEA 0000000180029170     libvcruntime:undname.obj
 0003:000011c0       ?c_exit_complete@?1???R<lambda_6e4b09c48022b2350581041d5f6b0c4c>@@QEBA@XZ@4_NA 00000001800291c0     libucrt:exit.obj
 0003:000012d8       _environ_table             00000001800292d8     libucrt:environment_initialization.obj
 0003:000012e0       _wenviron_table            00000001800292e0     libucrt:environment_initialization.obj
 0003:000012e8       __dcrt_initial_wide_environment 00000001800292e8     libucrt:environment_initialization.obj
 0003:000012f0       __dcrt_initial_narrow_environment 00000001800292f0     libucrt:environment_initialization.obj
 0003:000012f8       __acrt_atexit_table        00000001800292f8     libucrt:onexit.obj
 0003:00001310       __acrt_at_quick_exit_table 0000000180029310     libucrt:onexit.obj
 0003:00001330       _nstream                   0000000180029330     libucrt:_file.obj
 0003:00001338       __piob                     0000000180029338     libucrt:_file.obj
 0003:00001340       _cflush                    0000000180029340     libucrt:_file.obj
 0003:00001370       __acrt_stdout_buffer       0000000180029370     libucrt:_sftbuf.obj
 0003:00001378       __acrt_stderr_buffer       0000000180029378     libucrt:_sftbuf.obj
 0003:00001380       __acrt_locale_changed_data 0000000180029380     libucrt:wsetlocale.obj
 0003:00001388       __acrt_current_locale_data 0000000180029388     libucrt:nlsdata.obj
 0003:00001390       __pioinfo                  0000000180029390     libucrt:ioinit.obj
 0003:00001790       _nhandle                   0000000180029790     libucrt:ioinit.obj
 0003:000019e0       _mbctype                   00000001800299e0     libucrt:mbctype.obj
 0003:000019e8       _mbcasemap                 00000001800299e8     libucrt:mbctype.obj
 0003:000019f0       __acrt_current_multibyte_data 00000001800299f0     libucrt:mbctype.obj
 0003:00001a00       __argc                     0000000180029a00     libucrt:argv_data.obj
 0003:00001a08       __argv                     0000000180029a08     libucrt:argv_data.obj
 0003:00001a10       __wargv                    0000000180029a10     libucrt:argv_data.obj
 0003:00001a18       _acmdln                    0000000180029a18     libucrt:argv_data.obj
 0003:00001a20       _wcmdln                    0000000180029a20     libucrt:argv_data.obj
 0003:00001a28       _pgmptr                    0000000180029a28     libucrt:argv_data.obj
 0003:00001be0       __acrt_heap                0000000180029be0     libucrt:heap_handle.obj
 0003:00001bf4       __acrt_lconv_static_null   0000000180029bf4     libucrt:localeconv.obj
 0003:00001bf8       __acrt_lconv_static_W_null 0000000180029bf8     libucrt:localeconv.obj
 0003:00001bfc       __fma3_is_available        0000000180029bfc     libucrt:fma3_available.obj
 0003:00001c00       __use_fma3_lib             0000000180029c00     libucrt:fma3_available.obj
 0003:00001c10       ?g_threadID@CallbackInfo@@0KA 0000000180029c10     callback_info.obj
 0003:00001c18       ?g_queue_mutex@CallbackInfo@@0U_RTL_CRITICAL_SECTION@@A 0000000180029c18     callback_info.obj
 0003:00001c40       ?g_async@CallbackInfo@@0Uuv_async_s@@A 0000000180029c40     callback_info.obj
 0003:00001d20       ?g_queue@CallbackInfo@@0V?$queue@PEAVThreadedCallbackInvokation@@V?$deque@PEAVThreadedCallbackInvokation@@V?$allocator@PEAVThreadedCallbackInvokation@@@std@@@std@@@std@@A 0000000180029d20     callback_info.obj
 0003:00002108       ?_OptionsStorage@?1??__local_stdio_printf_options@@9@4_KA 000000018002a108     win32-dlfcn.obj
 0003:00002150       __dyn_tls_init_callback    000000018002a150     <common>
 0003:00002158       __scrt_ucrt_dll_is_in_use  000000018002a158     <common>
 0003:00002160       _pDestructExceptionObject  000000018002a160     <common>

 entry point at        0001:0000733c

 Static symbols

 0000:fffd1000       .debug$S                   0000000180000000     iojs:node.dll
 0000:fffd1000       .debug$S                   0000000180000000     kernel32:KERNEL32.dll
 0000:fffd1000       .debug$S                   0000000180000000     kernel32:KERNEL32.dll
 0000:fffd1000       .debug$S                   0000000180000000     kernel32:KERNEL32.dll
 0000:fffd1000       .debug$S                   0000000180000000     kernel32:KERNEL32.dll
 0000:fffd1000       .debug$S                   0000000180000000     kernel32:KERNEL32.dll
 0000:fffd1000       .debug$S                   0000000180000000     kernel32:KERNEL32.dll
 0000:fffd1000       .debug$S                   0000000180000000     kernel32:KERNEL32.dll
 0000:fffd1000       .debug$S                   0000000180000000     kernel32:KERNEL32.dll
 0000:fffd1000       .debug$S                   0000000180000000     kernel32:KERNEL32.dll
 0000:fffd1000       .debug$S                   0000000180000000     kernel32:KERNEL32.dll
 0000:fffd1000       .debug$S                   0000000180000000     kernel32:KERNEL32.dll
 0000:fffd1000       .debug$S                   0000000180000000     kernel32:KERNEL32.dll
 0000:fffd1000       .debug$S                   0000000180000000     kernel32:KERNEL32.dll
 0000:fffd1000       .debug$S                   0000000180000000     kernel32:KERNEL32.dll
 0000:fffd1000       .debug$S                   0000000180000000     kernel32:KERNEL32.dll
 0000:fffd1000       .debug$S                   0000000180000000     kernel32:KERNEL32.dll
 0000:fffd1000       .debug$S                   0000000180000000     kernel32:KERNEL32.dll
 0000:fffd1000       .debug$S                   0000000180000000     kernel32:KERNEL32.dll
 0000:fffd1000       .debug$S                   0000000180000000     kernel32:KERNEL32.dll
 0000:fffd1000       .debug$S                   0000000180000000     kernel32:KERNEL32.dll
 0000:fffd1000       .debug$S                   0000000180000000     kernel32:KERNEL32.dll
 0000:fffd1000       .debug$S                   0000000180000000     kernel32:KERNEL32.dll
 0000:fffd1000       .debug$S                   0000000180000000     kernel32:KERNEL32.dll
 0000:fffd1000       .debug$S                   0000000180000000     kernel32:KERNEL32.dll
 0000:fffd1000       .debug$S                   0000000180000000     kernel32:KERNEL32.dll
 0000:fffd1000       .debug$S                   0000000180000000     kernel32:KERNEL32.dll
 0000:fffd1000       .debug$S                   0000000180000000     kernel32:KERNEL32.dll
 0000:fffd1000       .debug$S                   0000000180000000     kernel32:KERNEL32.dll
 0000:fffd1000       .debug$S                   0000000180000000     kernel32:KERNEL32.dll
 0000:fffd1000       .debug$S                   0000000180000000     kernel32:KERNEL32.dll
 0000:fffd1000       .debug$S                   0000000180000000     kernel32:KERNEL32.dll
 0000:fffd1000       .debug$S                   0000000180000000     kernel32:KERNEL32.dll
 0000:fffd1000       .debug$S                   0000000180000000     kernel32:KERNEL32.dll
 0000:fffd1000       .debug$S                   0000000180000000     kernel32:KERNEL32.dll
 0000:fffd1000       .debug$S                   0000000180000000     kernel32:KERNEL32.dll
 0000:fffd1000       .debug$S                   0000000180000000     kernel32:KERNEL32.dll
 0000:fffd1000       .debug$S                   0000000180000000     kernel32:KERNEL32.dll
 0000:fffd1000       .debug$S                   0000000180000000     kernel32:KERNEL32.dll
 0000:fffd1000       .debug$S                   0000000180000000     kernel32:KERNEL32.dll
 0000:fffd1000       .debug$S                   0000000180000000     kernel32:KERNEL32.dll
 0000:fffd1000       .debug$S                   0000000180000000     kernel32:KERNEL32.dll
 0000:fffd1000       .debug$S                   0000000180000000     kernel32:KERNEL32.dll
 0000:fffd1000       .debug$S                   0000000180000000     kernel32:KERNEL32.dll
 0000:fffd1000       .debug$S                   0000000180000000     kernel32:KERNEL32.dll
 0000:fffd1000       .debug$S                   0000000180000000     kernel32:KERNEL32.dll
 0000:fffd1000       .debug$S                   0000000180000000     kernel32:KERNEL32.dll
 0000:fffd1000       .debug$S                   0000000180000000     kernel32:KERNEL32.dll
 0000:fffd1000       .debug$S                   0000000180000000     kernel32:KERNEL32.dll
 0000:fffd1000       .debug$S                   0000000180000000     kernel32:KERNEL32.dll
 0000:fffd1000       .debug$S                   0000000180000000     kernel32:KERNEL32.dll
 0000:fffd1000       .debug$S                   0000000180000000     ffi_bindings.exp
 0000:fffd1000       .debug$S                   0000000180000000     kernel32:KERNEL32.dll
 0000:fffd1000       .debug$S                   0000000180000000     kernel32:KERNEL32.dll
 0000:fffd1000       .debug$S                   0000000180000000     kernel32:KERNEL32.dll
 0000:fffd1000       .debug$S                   0000000180000000     kernel32:KERNEL32.dll
 0000:fffd1000       .debug$S                   0000000180000000     kernel32:KERNEL32.dll
 0000:fffd1000       .debug$S                   0000000180000000     kernel32:KERNEL32.dll
 0000:fffd1000       .debug$S                   0000000180000000     kernel32:KERNEL32.dll
 0000:fffd1000       .debug$S                   0000000180000000     kernel32:KERNEL32.dll
 0000:fffd1000       .debug$S                   0000000180000000     kernel32:KERNEL32.dll
 0000:fffd1000       .debug$S                   0000000180000000     kernel32:KERNEL32.dll
 0000:fffd1000       .debug$S                   0000000180000000     kernel32:KERNEL32.dll
 0000:fffd1000       .debug$S                   0000000180000000     kernel32:KERNEL32.dll
 0000:fffd1000       .debug$S                   0000000180000000     kernel32:KERNEL32.dll
 0000:fffd1000       .debug$S                   0000000180000000     kernel32:KERNEL32.dll
 0000:fffd1000       .debug$S                   0000000180000000     kernel32:KERNEL32.dll
 0000:fffd1000       .debug$S                   0000000180000000     kernel32:KERNEL32.dll
 0000:fffd1000       .debug$S                   0000000180000000     kernel32:KERNEL32.dll
 0000:fffd1000       .debug$S                   0000000180000000     kernel32:KERNEL32.dll
 0000:fffd1000       .debug$S                   0000000180000000     kernel32:KERNEL32.dll
 0000:fffd1000       .debug$S                   0000000180000000     kernel32:KERNEL32.dll
 0000:fffd1000       .debug$S                   0000000180000000     kernel32:KERNEL32.dll
 0000:fffd1000       .debug$S                   0000000180000000     kernel32:KERNEL32.dll
 0000:fffd1000       .debug$S                   0000000180000000     kernel32:KERNEL32.dll
 0000:fffd1000       .debug$S                   0000000180000000     kernel32:KERNEL32.dll
 0000:fffd1000       .debug$S                   0000000180000000     kernel32:KERNEL32.dll
 0000:fffd1000       .debug$S                   0000000180000000     kernel32:KERNEL32.dll
 0000:fffd1000       .debug$S                   0000000180000000     kernel32:KERNEL32.dll
 0000:fffd1000       .debug$S                   0000000180000000     kernel32:KERNEL32.dll
 0000:fffd1000       .debug$S                   0000000180000000     kernel32:KERNEL32.dll
 0000:fffd1000       .debug$S                   0000000180000000     kernel32:KERNEL32.dll
 0000:fffd1000       .debug$S                   0000000180000000     kernel32:KERNEL32.dll
 0000:fffd1000       .debug$S                   0000000180000000     kernel32:KERNEL32.dll
 0000:fffd1000       .debug$S                   0000000180000000     kernel32:KERNEL32.dll
 0000:fffd1000       .debug$S                   0000000180000000     kernel32:KERNEL32.dll
 0000:fffd1000       .debug$S                   0000000180000000     kernel32:KERNEL32.dll
 0000:fffd1000       .debug$S                   0000000180000000     kernel32:KERNEL32.dll
 0000:fffd1000       .debug$S                   0000000180000000     kernel32:KERNEL32.dll
 0000:fffd1000       .debug$S                   0000000180000000     kernel32:KERNEL32.dll
 0000:fffd1000       .debug$S                   0000000180000000     kernel32:KERNEL32.dll
 0000:fffd1000       .debug$S                   0000000180000000     kernel32:KERNEL32.dll
 0000:fffd1000       .debug$S                   0000000180000000     kernel32:KERNEL32.dll
 0000:fffd1000       .debug$S                   0000000180000000     kernel32:KERNEL32.dll
 0000:fffd1000       .debug$S                   0000000180000000     iojs:node.dll
 0000:fffd1000       .debug$S                   0000000180000000     iojs:node.dll
 0000:fffd1000       .debug$S                   0000000180000000     iojs:node.dll
 0000:fffd1000       .debug$S                   0000000180000000     iojs:node.dll
 0000:fffd1000       .debug$S                   0000000180000000     iojs:node.dll
 0000:fffd1000       .debug$S                   0000000180000000     iojs:node.dll
 0000:fffd1000       .debug$S                   0000000180000000     iojs:node.dll
 0000:fffd1000       .debug$S                   0000000180000000     iojs:node.dll
 0000:fffd1000       .debug$S                   0000000180000000     iojs:node.dll
 0000:fffd1000       .debug$S                   0000000180000000     iojs:node.dll
 0000:fffd1000       .debug$S                   0000000180000000     iojs:node.dll
 0000:fffd1000       .debug$S                   0000000180000000     iojs:node.dll
 0000:fffd1000       .debug$S                   0000000180000000     iojs:node.dll
 0000:fffd1000       .debug$S                   0000000180000000     iojs:node.dll
 0000:fffd1000       .debug$S                   0000000180000000     iojs:node.dll
 0000:fffd1000       .debug$S                   0000000180000000     iojs:node.dll
 0000:fffd1000       .debug$S                   0000000180000000     iojs:node.dll
 0000:fffd1000       .debug$S                   0000000180000000     iojs:node.dll
 0000:fffd1000       .debug$S                   0000000180000000     iojs:node.dll
 0000:fffd1000       .debug$S                   0000000180000000     iojs:node.dll
 0000:fffd1000       .debug$S                   0000000180000000     iojs:node.dll
 0000:fffd1000       .debug$S                   0000000180000000     iojs:node.dll
 0000:fffd1000       .debug$S                   0000000180000000     iojs:node.dll
 0000:fffd1000       .debug$S                   0000000180000000     iojs:node.dll
 0000:fffd1000       .debug$S                   0000000180000000     iojs:node.dll
 0000:fffd1000       .debug$S                   0000000180000000     iojs:node.dll
 0000:fffd1000       .debug$S                   0000000180000000     iojs:node.dll
 0000:fffd1000       .debug$S                   0000000180000000     iojs:node.dll
 0000:fffd1000       .debug$S                   0000000180000000     iojs:node.dll
 0000:fffd1000       .debug$S                   0000000180000000     iojs:node.dll
 0000:fffd1000       .debug$S                   0000000180000000     iojs:node.dll
 0000:fffd1000       .debug$S                   0000000180000000     iojs:node.dll
 0000:fffd1000       .debug$S                   0000000180000000     iojs:node.dll
 0000:fffd1000       .debug$S                   0000000180000000     iojs:node.dll
 0000:fffd1000       .debug$S                   0000000180000000     iojs:node.dll
 0000:fffd1000       .debug$S                   0000000180000000     iojs:node.dll
 0000:fffd1000       .debug$S                   0000000180000000     iojs:node.dll
 0000:fffd1000       .debug$S                   0000000180000000     iojs:node.dll
 0000:fffd1000       .debug$S                   0000000180000000     iojs:node.dll
 0000:fffd1000       .debug$S                   0000000180000000     iojs:node.dll
 0000:fffd1000       .debug$S                   0000000180000000     iojs:node.dll
 0000:fffd1000       .debug$S                   0000000180000000     iojs:node.dll
 0000:fffd1000       .debug$S                   0000000180000000     iojs:node.dll
 0000:fffd1000       .debug$S                   0000000180000000     iojs:node.dll
 0000:fffd1000       .debug$S                   0000000180000000     iojs:node.dll
 0000:fffd1000       .debug$S                   0000000180000000     iojs:node.dll
 0000:fffd1000       .debug$S                   0000000180000000     iojs:node.dll
 0000:fffd1000       .debug$S                   0000000180000000     iojs:node.dll
 0000:fffd1000       .debug$S                   0000000180000000     kernel32:KERNEL32.dll
 0000:fffd1000       .debug$S                   0000000180000000     iojs:node.dll
 0000:fffd1000       .debug$S                   0000000180000000     iojs:node.dll
 0000:fffd1000       .debug$S                   0000000180000000     iojs:node.dll
 0000:fffd1000       .debug$S                   0000000180000000     iojs:node.dll
 0000:fffd1000       .debug$S                   0000000180000000     iojs:node.dll
 0000:fffd1000       .debug$S                   0000000180000000     iojs:node.dll
 0000:fffd1000       .debug$S                   0000000180000000     iojs:node.dll
 0000:fffd1000       .debug$S                   0000000180000000     iojs:node.dll
 0000:fffd1000       .debug$S                   0000000180000000     iojs:node.dll
 0000:fffd1000       .debug$S                   0000000180000000     iojs:node.dll
 0000:fffd1000       .debug$S                   0000000180000000     iojs:node.dll
 0000:fffd1000       .debug$S                   0000000180000000     iojs:node.dll
 0000:fffd1000       .debug$S                   0000000180000000     iojs:node.dll
 0000:fffd1000       .debug$S                   0000000180000000     iojs:node.dll
 0000:fffd1000       .debug$S                   0000000180000000     iojs:node.dll
 0000:fffd1000       .debug$S                   0000000180000000     iojs:node.dll
 0000:fffd1000       .debug$S                   0000000180000000     iojs:node.dll
 0000:fffd1000       .debug$S                   0000000180000000     iojs:node.dll
 0001:00000000       ??__E?g_queue@CallbackInfo@@0V?$queue@PEAVThreadedCallbackInvokation@@V?$deque@PEAVThreadedCallbackInvokation@@V?$allocator@PEAVThreadedCallbackInvokation@@@std@@@std@@@std@@A@@YAXXZ 0000000180001000 f   callback_info.obj
 0001:00000080       ?FunctionCallbackWrapper@imp@Nan@@YAXAEBV?$FunctionCallbackInfo@VValue@v8@@@v8@@@Z 0000000180001080 f   ffi.obj
 0001:00003170       _register_ffi_bindings     0000000180004170 f   ffi.obj
 0001:00003f40       UTF8toWCHAR                0000000180004f40 f   win32-dlfcn.obj
 0001:00004170       initialize_aggregate       0000000180005170 f   libffi:prep_cif.obj
 0001:00004480       $LN33                      0000000180005480     libffi:ffi.obj
 0001:00004580       $LN26                      0000000180005580     libffi:ffi.obj
 0001:000048e0       win32munmap                00000001800058e0 f   libffi:closures.obj
 0001:00004980       init_mparams               0000000180005980 f   libffi:closures.obj
 0001:00004a50       mmap_alloc                 0000000180005a50 f   libffi:closures.obj
 0001:00004b30       init_top                   0000000180005b30 f   libffi:closures.obj
 0001:00004b70       prepend_alloc              0000000180005b70 f   libffi:closures.obj
 0001:00004fc0       add_segment                0000000180005fc0 f   libffi:closures.obj
 0001:00005300       sys_alloc                  0000000180006300 f   libffi:closures.obj
 0001:000055b0       release_unused_segments    00000001800065b0 f   libffi:closures.obj
 0001:00005920       sys_trim                   0000000180006920 f   libffi:closures.obj
 0001:00005a80       tmalloc_small              0000000180006a80 f   libffi:closures.obj
 0001:00005d30       dlmalloc                   0000000180006d30 f   libffi:closures.obj
 0001:00006090       dlfree                     0000000180007090 f   libffi:closures.obj
 0001:00006b90       $$000000                   0000000180007b90     LIBCMT:_amdsecgs_.obj
 0001:00007000       ?dllmain_crt_dispatch@@YAHQEAUHINSTANCE__@@KQEAX@Z 0000000180008000 f   LIBCMT:dll_dllmain.obj
 0001:00007050       ?dllmain_crt_process_attach@@YAHQEAUHINSTANCE__@@QEAX@Z 0000000180008050 f   LIBCMT:dll_dllmain.obj
 0001:00007164       ?dllmain_crt_process_detach@@YAH_N@Z 0000000180008164 f   LIBCMT:dll_dllmain.obj
 0001:000071f0       ?dllmain_dispatch@@YAHQEAUHINSTANCE__@@KQEAX@Z 00000001800081f0 f   LIBCMT:dll_dllmain.obj
 0001:000072e8       ?dllmain_raw@@YAHQEAUHINSTANCE__@@KQEAX@Z 00000001800082e8 f   LIBCMT:dll_dllmain.obj
 0001:00007380       $$000000                   0000000180008380     LIBCMT:_chkstk_.obj
 0001:000075c8       capture_current_context    00000001800085c8 f   LIBCMT:gs_report.obj
 0001:00007638       capture_previous_context   0000000180008638 f   LIBCMT:gs_report.obj
 0001:00007c50       $$000000                   0000000180008c50     libvcruntime:memcpy.obj
 0001:00007cf7       MoveSmall                  0000000180008cf7     libvcruntime:memcpy.obj
 0001:000084b0       $$000000                   00000001800094b0     libvcruntime:memset.obj
 0001:0000859c       MsetTab                    000000018000959c     libvcruntime:memset.obj
 0001:00008898       ?try_get_function@@YAPEAXW4function_id@?A0x37284e77@@QEBDQEBW4module_id@2@2@Z 0000000180009898 f   libvcruntime:winapi_downlevel.obj
 0001:00008d00       $$000000                   0000000180009d00     libvcruntime:_jmpuwind_.obj
 0001:00008e84       ??$common_assert_to_message_box@_W@@YAXQEB_W0IQEAX@Z 0000000180009e84 f   libucrt:assert.obj
 0001:00008f48       ??$common_assert_to_message_box_build_string@_W@@YAXQEA_W_KQEB_W2IQEAX@Z 0000000180009f48 f   libucrt:assert.obj
 0001:00009708       ??$common_assert_to_stderr@_W@@YAXQEB_W0I@Z 000000018000a708 f   libucrt:assert.obj
 0001:00009878       ?get_assert_format@@YAPEB_W_W@Z 000000018000a878 f   libucrt:assert.obj
 0001:00009c48       ??$?RV<lambda_0d412022a4b28cc8a401ea49574e8ae6>@@AEAV<lambda_a775ed57af18ba8e4d5dc780aa9068fe>@@V<lambda_975a71a6baa488a08f4e15f6b0339b9e>@@@?$__crt_seh_guarded_call@H@@QEAAH$$QEAV<lambda_0d412022a4b28cc8a401ea49574e8ae6>@@AEAV<lambda_a775ed57af18ba8e4d5dc780aa9068fe>@@$$QEAV<lambda_975a71a6baa488a08f4e15f6b0339b9e>@@@Z 000000018000ac48 f   libucrt:output.obj
 0001:00009c88       ??$common_vsprintf@Vstandard_base@__crt_stdio_output@@D@@YAH_KQEAD0QEBDQEAU__crt_locale_pointers@@1@Z 000000018000ac88 f   libucrt:output.obj
 0001:00009e54       ??$common_vsprintf@Vstandard_base@__crt_stdio_output@@_W@@YAH_KQEA_W0QEB_WQEAU__crt_locale_pointers@@QEAD@Z 000000018000ae54 f   libucrt:output.obj
 0001:0000a5bc       ??R<lambda_a775ed57af18ba8e4d5dc780aa9068fe>@@QEBAHXZ 000000018000b5bc f   libucrt:output.obj
 0001:0000d24c       ??$?RV<lambda_d80eeec6fff315bfe5c115232f3240e3>@@AEAV<lambda_6e4b09c48022b2350581041d5f6b0c4c>@@V<lambda_2358e3775559c9db80273638284d5e45>@@@?$__crt_seh_guarded_call@X@@QEAAX$$QEAV<lambda_d80eeec6fff315bfe5c115232f3240e3>@@AEAV<lambda_6e4b09c48022b2350581041d5f6b0c4c>@@$$QEAV<lambda_2358e3775559c9db80273638284d5e45>@@@Z 000000018000e24c f   libucrt:exit.obj
 0001:0000d284       ??R<lambda_6e4b09c48022b2350581041d5f6b0c4c>@@QEBA@XZ 000000018000e284 f   libucrt:exit.obj
 0001:0000d35c       ?atexit_exception_filter@@YAHK@Z 000000018000e35c f   libucrt:exit.obj
 0001:0000d368       ?common_exit@@YAXHW4_crt_exit_cleanup_mode@@W4_crt_exit_return_mode@@@Z 000000018000e368 f   libucrt:exit.obj
 0001:0000d424       ?exit_or_terminate_process@@YAXI@Z 000000018000e424 f   libucrt:exit.obj
 0001:0000d470       ?try_cor_exit_process@@YAXI@Z 000000018000e470 f   libucrt:exit.obj
 0001:0000d4f8       ??$parse_command_line@D@@YAXPEADPEAPEAD0PEA_K2@Z 000000018000e4f8 f   libucrt:argv_parsing.obj
 0001:0000d89c       ??$common_initialize_environment_nolock@D@@YAHXZ 000000018000e89c f   libucrt:environment_initialization.obj
 0001:0000d908       ??$create_environment@D@@YAQEAPEADQEAD@Z 000000018000e908 f   libucrt:environment_initialization.obj
 0001:0000da14       ??$free_environment@_W@@YAXQEAPEA_W@Z 000000018000ea14 f   libucrt:environment_initialization.obj
 0001:0000da14       ??$free_environment@D@@YAXQEAPEAD@Z 000000018000ea14 f   libucrt:environment_initialization.obj
 0001:0000da58       ??$uninitialize_environment_internal@D@@YAXAEAPEAPEAD@Z 000000018000ea58 f   libucrt:environment_initialization.obj
 0001:0000da74       ??$uninitialize_environment_internal@_W@@YAXAEAPEAPEA_W@Z 000000018000ea74 f   libucrt:environment_initialization.obj
 0001:0000dad0       ??$?RV<lambda_7777bce6b2f8c936911f934f8298dc43>@@AEAV<lambda_f03950bc5685219e0bcd2087efbe011e>@@V<lambda_3883c3dff614d5e0c5f61bb1ac94921c>@@@?$__crt_seh_guarded_call@H@@QEAAH$$QEAV<lambda_7777bce6b2f8c936911f934f8298dc43>@@AEAV<lambda_f03950bc5685219e0bcd2087efbe011e>@@$$QEAV<lambda_3883c3dff614d5e0c5f61bb1ac94921c>@@@Z 000000018000ead0 f   libucrt:onexit.obj
 0001:0000db0c       ??$?RV<lambda_8369fcb7c4df1e85de37618bd2b85f07>@@AEAV<lambda_a10e4b102d4a2c3aac6f4f48bbdf488f>@@V<lambda_5b7707bd6d7a0c4713179f36c7fd995d>@@@?$__crt_seh_guarded_call@H@@QEAAH$$QEAV<lambda_8369fcb7c4df1e85de37618bd2b85f07>@@AEAV<lambda_a10e4b102d4a2c3aac6f4f48bbdf488f>@@$$QEAV<lambda_5b7707bd6d7a0c4713179f36c7fd995d>@@@Z 000000018000eb0c f   libucrt:onexit.obj
 0001:0000db48       ??R<lambda_a10e4b102d4a2c3aac6f4f48bbdf488f>@@QEBAHXZ 000000018000eb48 f   libucrt:onexit.obj
 0001:0000dd0c       ??R<lambda_f03950bc5685219e0bcd2087efbe011e>@@QEBAHXZ 000000018000ed0c f   libucrt:onexit.obj
 0001:0000df2c       initialize_global_variables 000000018000ef2c f   libucrt:initialization.obj
 0001:0000df40       initialize_c               000000018000ef40 f   libucrt:initialization.obj
 0001:0000df64       uninitialize_environment   000000018000ef64 f   libucrt:initialization.obj
 0001:0000df74       initialize_global_state_isolation 000000018000ef74 f   libucrt:initialization.obj
 0001:0000df74       initialize_environment     000000018000ef74 f   libucrt:initialization.obj
 0001:0000df74       uninitialize_global_state_isolation 000000018000ef74 f   libucrt:initialization.obj
 0001:0000df74       uninitialize_c             000000018000ef74 f   libucrt:initialization.obj
 0001:0000df74       report_memory_leaks        000000018000ef74 f   libucrt:initialization.obj
 0001:0000df78       initialize_pointers        000000018000ef78 f   libucrt:initialization.obj
 0001:0000dfcc       uninitialize_vcruntime     000000018000efcc f   libucrt:initialization.obj
 0001:0000dfd4       uninitialize_allocated_memory 000000018000efd4 f   libucrt:initialization.obj
 0001:0000ed08       ??$?RV<lambda_0ae27a3a962d80f24befdcbee591983d>@@AEAV<lambda_8d0ee55de4b1038c4002e0adecdf1839>@@V<lambda_dc504788e8f1664fe9b84e20bfb512f2>@@@?$__crt_seh_guarded_call@X@@QEAAX$$QEAV<lambda_0ae27a3a962d80f24befdcbee591983d>@@AEAV<lambda_8d0ee55de4b1038c4002e0adecdf1839>@@$$QEAV<lambda_dc504788e8f1664fe9b84e20bfb512f2>@@@Z 000000018000fd08 f   libucrt:per_thread_data.obj
 0001:0000ed48       ??$?RV<lambda_2d41944a1d46af3157314b8a01080d33>@@AEAV<lambda_8f455de75cd7d7f24b4096f044d8b9e6>@@V<lambda_aa500f224e6afead328df44964fe2772>@@@?$__crt_seh_guarded_call@X@@QEAAX$$QEAV<lambda_2d41944a1d46af3157314b8a01080d33>@@AEAV<lambda_8f455de75cd7d7f24b4096f044d8b9e6>@@$$QEAV<lambda_aa500f224e6afead328df44964fe2772>@@@Z 000000018000fd48 f   libucrt:per_thread_data.obj
 0001:0000ed88       ??$?RV<lambda_aa87e3671a710a21b5dc78c0bdf72e11>@@AEAV<lambda_92619d2358a28f41a33ba319515a20b9>@@V<lambda_6992ecaafeb10aed2b74cb1fae11a551>@@@?$__crt_seh_guarded_call@X@@QEAAX$$QEAV<lambda_aa87e3671a710a21b5dc78c0bdf72e11>@@AEAV<lambda_92619d2358a28f41a33ba319515a20b9>@@$$QEAV<lambda_6992ecaafeb10aed2b74cb1fae11a551>@@@Z 000000018000fd88 f   libucrt:per_thread_data.obj
 0001:0000edd0       ??$?RV<lambda_f2e299630e499de9f9a165e60fcd3db5>@@AEAV<lambda_2ae9d31cdba2644fcbeaf08da7c24588>@@V<lambda_40d01ff24d0e7b3814fdbdcee8eab3c7>@@@?$__crt_seh_guarded_call@X@@QEAAX$$QEAV<lambda_f2e299630e499de9f9a165e60fcd3db5>@@AEAV<lambda_2ae9d31cdba2644fcbeaf08da7c24588>@@$$QEAV<lambda_40d01ff24d0e7b3814fdbdcee8eab3c7>@@@Z 000000018000fdd0 f   libucrt:per_thread_data.obj
 0001:0000ee30       ?construct_ptd_array@@YAXQEAU__acrt_ptd@@@Z 000000018000fe30 f   libucrt:per_thread_data.obj
 0001:0000ef00       ?destroy_fls@@YAXPEAX@Z    000000018000ff00 f   libucrt:per_thread_data.obj
 0001:0000ef20       ?destroy_ptd_array@@YAXQEAU__acrt_ptd@@@Z 000000018000ff20 f   libucrt:per_thread_data.obj
 0001:0000f018       ?replace_current_thread_locale_nolock@@YAXQEAU__acrt_ptd@@QEAU__crt_locale_data@@@Z 0000000180010018 f   libucrt:per_thread_data.obj
 0001:0000f370       ??$common_xtox@K_W@@YAHKQEA_W_KI_N@Z 0000000180010370 f   libucrt:xtoa.obj
 0001:0000f418       ??$common_xtox_s@K_W@@YAHKQEA_W_KI_N@Z 0000000180010418 f   libucrt:xtoa.obj
 0001:0000f92c       ??$?RV<lambda_842d9ff0dc9ef11c61343bbaebe7f885>@@AEAV<lambda_c5860995281e5c4ce005b3de8f5874ee>@@V<lambda_d90129c13df834fdcbf8d2b88dafcf2d>@@@?$__crt_seh_guarded_call@X@@QEAAX$$QEAV<lambda_842d9ff0dc9ef11c61343bbaebe7f885>@@AEAV<lambda_c5860995281e5c4ce005b3de8f5874ee>@@$$QEAV<lambda_d90129c13df834fdcbf8d2b88dafcf2d>@@@Z 000000018001092c f   libucrt:fflush.obj
 0001:0000f9c8       ??$?RV<lambda_886d6c58226a84441f68b9f2b8217b83>@@AEAV<lambda_ab61a845afdef5b7c387490eaf3616ee>@@V<lambda_f7f22ab5edc0698d5f6905b0d3f44752>@@@?$__crt_seh_guarded_call@X@@QEAAX$$QEAV<lambda_886d6c58226a84441f68b9f2b8217b83>@@AEAV<lambda_ab61a845afdef5b7c387490eaf3616ee>@@$$QEAV<lambda_f7f22ab5edc0698d5f6905b0d3f44752>@@@Z 00000001800109c8 f   libucrt:fflush.obj
 0001:0000fab0       ??$?RV<lambda_c376a267cfb53b6959b3b692ec76b120>@@AEAV<lambda_9a32fed5bf61b6b509b2d3f6003082a1>@@V<lambda_572fbb9fa0ab338edf41edfd4b5fcc8d>@@@?$__crt_seh_guarded_call@H@@QEAAH$$QEAV<lambda_c376a267cfb53b6959b3b692ec76b120>@@AEAV<lambda_9a32fed5bf61b6b509b2d3f6003082a1>@@$$QEAV<lambda_572fbb9fa0ab338edf41edfd4b5fcc8d>@@@Z 0000000180010ab0 f   libucrt:fflush.obj
 0001:0000faf0       ?common_flush_all@@YAH_N@Z 0000000180010af0 f   libucrt:fflush.obj
 0001:0000fc88       ??$?RV<lambda_84ec643ea9557e2f7dc01bb0e9624395>@@AEAV<lambda_ca71763b3c0644891230e4f79ea54fa6>@@V<lambda_439a761618c59b0600e24586724d733b>@@@?$__crt_seh_guarded_call@H@@QEAAH$$QEAV<lambda_84ec643ea9557e2f7dc01bb0e9624395>@@AEAV<lambda_ca71763b3c0644891230e4f79ea54fa6>@@$$QEAV<lambda_439a761618c59b0600e24586724d733b>@@@Z 0000000180010c88 f   libucrt:setvbuf.obj
 0001:0000fcc8       ??R<lambda_ca71763b3c0644891230e4f79ea54fa6>@@QEBAHXZ 0000000180010cc8 f   libucrt:setvbuf.obj
 0001:0000fe54       ??$?RV<lambda_450d765d439847d4c735a33c368b5fc0>@@AEAV<lambda_44731a7d0e6d81c3e6aa82d741081786>@@V<lambda_601a2a7da3b7a96e9554ac7215c4b07c>@@@?$__crt_seh_guarded_call@P6AXH@Z@@QEAAP6AXH@Z$$QEAV<lambda_450d765d439847d4c735a33c368b5fc0>@@AEAV<lambda_44731a7d0e6d81c3e6aa82d741081786>@@$$QEAV<lambda_601a2a7da3b7a96e9554ac7215c4b07c>@@@Z 0000000180010e54 f   libucrt:signal.obj
 0001:000101d4       ?internal_isupper_l@@YA_NHQEAU__crt_locale_pointers@@@Z 00000001800111d4 f   libucrt:tolower_toupper.obj
 0001:00010ac0       ?fp_format_a@@YAHQEBNPEAD_KQEAD2H_NIQEAU__crt_locale_pointers@@@Z 0000000180011ac0 f   libucrt:cvt.obj
 0001:00010e1c       ?fp_format_e@@YAHQEBNQEAD_K12H_NIQEAU__crt_locale_pointers@@@Z 0000000180011e1c f   libucrt:cvt.obj
 0001:00010eec       ?fp_format_e_internal@@YAHQEAD_KH_NIQEAU_strflt@@2QEAU__crt_locale_pointers@@@Z 0000000180011eec f   libucrt:cvt.obj
 0001:000110c0       ?fp_format_f_internal@@YAHQEAD_KHQEAU_strflt@@_NQEAU__crt_locale_pointers@@@Z 00000001800120c0 f   libucrt:cvt.obj
 0001:00011208       ?fp_format_g@@YAHQEBNQEAD_K12H_NIQEAU__crt_locale_pointers@@@Z 0000000180012208 f   libucrt:cvt.obj
 0001:0001133c       ?fp_format_nan_or_infinity@@YAHW4__acrt_fp_class@@_NPEAD_K1@Z 000000018001233c f   libucrt:cvt.obj
 0001:0001199c       ??$?RV<lambda_410d79af7f07d98d83a3f525b3859a53>@@AEAV<lambda_3e16ef9562a7dcce91392c22ab16ea36>@@V<lambda_38119f0e861e05405d8a144b9b982f0a>@@@?$__crt_seh_guarded_call@X@@QEAAX$$QEAV<lambda_410d79af7f07d98d83a3f525b3859a53>@@AEAV<lambda_3e16ef9562a7dcce91392c22ab16ea36>@@$$QEAV<lambda_38119f0e861e05405d8a144b9b982f0a>@@@Z 000000018001299c f   libucrt:wsetlocale.obj
 0001:00011a48       ?initialize_inherited_file_handles_nolock@@YAXXZ 0000000180012a48 f   libucrt:ioinit.obj
 0001:00011b34       ?initialize_stdio_handles_nolock@@YAXXZ 0000000180012b34 f   libucrt:ioinit.obj
 0001:00011e60       ?<lambda_invoker_cdecl>@<lambda_c2303d2482d7c3675ea2e24c4cfb6115>@@CAHPEBX0@Z 0000000180012e60 f   libucrt:argv_wildcards.obj
 0001:00011e74       ??$common_expand_argv_wildcards@D@@YAHQEAPEADQEAPEAPEAD@Z 0000000180012e74 f   libucrt:argv_wildcards.obj
 0001:00012080       ??$copy_and_add_argument_to_buffer@D@@YAHQEBD0_KAEAV?$argument_list@D@?A0x5f5c8891@@@Z 0000000180013080 f   libucrt:argv_wildcards.obj
 0001:00012218       ??$expand_argument_wildcards@D@@YAHQEAD0AEAV?$argument_list@D@?A0x5f5c8891@@@Z 0000000180013218 f   libucrt:argv_wildcards.obj
 0001:000123cc       ??$?RV<lambda_efdfa57d1f175319df784efa44bb7b81>@@AEAV<lambda_5f0a4c1567f8adc6734073e5d1e1b35c>@@V<lambda_2e8a7d3640ea6ccb4c2413664c2db6fd>@@@?$__crt_seh_guarded_call@X@@QEAAX$$QEAV<lambda_efdfa57d1f175319df784efa44bb7b81>@@AEAV<lambda_5f0a4c1567f8adc6734073e5d1e1b35c>@@$$QEAV<lambda_2e8a7d3640ea6ccb4c2413664c2db6fd>@@@Z 00000001800133cc f   libucrt:mbctype.obj
 0001:000125a0       ?getSystemCP@@YAHH@Z       00000001800135a0 f   libucrt:mbctype.obj
 0001:00012620       ?setSBCS@@YAXPEAU__crt_multibyte_data@@@Z 0000000180013620 f   libucrt:mbctype.obj
 0001:000126b0       ?setSBUpLow@@YAXPEAU__crt_multibyte_data@@@Z 00000001800136b0 f   libucrt:mbctype.obj
 0001:00012894       ?setmbcp_internal@@YAHH_NQEAU__acrt_ptd@@QEAPEAU__crt_multibyte_data@@@Z 0000000180013894 f   libucrt:mbctype.obj
 0001:00012a58       ?update_thread_multibyte_data_internal@@YAPEAU__crt_multibyte_data@@QEAU__acrt_ptd@@QEAU1@@Z 0000000180013a58 f   libucrt:mbctype.obj
 0001:00012e2c       ?x_ismbbtype_l@@YAHPEAU__crt_locale_pointers@@IHH@Z 0000000180013e2c f   libucrt:ismbbyte.obj
 0001:00013084       ?try_get_function@@YAPEAXW4function_id@?A0x391cf84c@@QEBDQEBW4module_id@2@2@Z 0000000180014084 f   libucrt:winapi_thunks.obj
 0001:000140b4       ??$?RV<lambda_a37b2b86f63e897a80ea819b0eb08c01>@@AEAV<lambda_38ce7e780aa69e748d6df282ebc68efe>@@V<lambda_99fb1378e971ab6e7edea83e3a7a83a2>@@@?$__crt_seh_guarded_call@H@@QEAAH$$QEAV<lambda_a37b2b86f63e897a80ea819b0eb08c01>@@AEAV<lambda_38ce7e780aa69e748d6df282ebc68efe>@@$$QEAV<lambda_99fb1378e971ab6e7edea83e3a7a83a2>@@@Z 00000001800150b4 f   libucrt:commit.obj
 0001:000141d4       ?write_double_translated_ansi_nolock@@YA?AUwrite_result@?A0x17268360@@HQEBDI@Z 00000001800151d4 f   libucrt:write.obj
 0001:00014438       ?write_requires_double_translation_nolock@@YA_NH@Z 0000000180015438 f   libucrt:write.obj
 0001:000144dc       ?write_text_ansi_nolock@@YA?AUwrite_result@?A0x17268360@@HQEBDI@Z 00000001800154dc f   libucrt:write.obj
 0001:000145e0       ?write_text_utf16le_nolock@@YA?AUwrite_result@?A0x17268360@@HQEBDI@Z 00000001800155e0 f   libucrt:write.obj
 0001:000146fc       ?write_text_utf8_nolock@@YA?AUwrite_result@?A0x17268360@@HQEBDI@Z 00000001800156fc f   libucrt:write.obj
 0001:00014c44       ?__acrt_LCMapStringA_stat@@YAHPEAU__crt_locale_pointers@@PEB_WKPEBDHPEADHHH@Z 0000000180015c44 f   libucrt:lcmapstringa.obj
 0001:000168a4       memcpy_s                   00000001800178a4 f   libucrt:cfout.obj
 0001:0001692c       ??$write_buffer_nolock@D@@YA_NDV__crt_stdio_stream@@@Z 000000018001792c f   libucrt:_flsbuf.obj
 0001:00016a0c       ??$write_buffer_nolock@_W@@YA_N_WV__crt_stdio_stream@@@Z 0000000180017a0c f   libucrt:_flsbuf.obj
 0001:00016e9c       ?free_crt_array_internal@@YAXQEAPEBX_K@Z 0000000180017e9c f   libucrt:inittime.obj
 0001:000174d0       ?shortsort@@YAXPEAD0_KP6AHPEBX2@Z@Z 00000001800184d0 f   libucrt:qsort.obj
 0001:00017af4       ?initialize_multibyte@@YAHXZ 0000000180018af4 f   libucrt:multibyte_initializer.obj
 0001:00017bcc       ?GetTableIndexFromLocaleName@@YAHPEB_W@Z 0000000180018bcc f   libucrt:lcidtoname_downlevel.obj
 0001:00017db0       ??$common_lseek@_J@@YA_JH_JH@Z 0000000180018db0 f   libucrt:lseek.obj
 0001:00017eb4       ??$common_lseek_nolock@_J@@YA_JH_JH@Z 0000000180018eb4 f   libucrt:lseek.obj
 0001:00018140       $$000000                   0000000180019140     libucrt:log10.obj
 0001:00018750       ??$?RV<lambda_751a882b2c74d4b022dec766aa51a29a>@@AEAV<lambda_628dfdc04ba53c8bfc02c9951375f3f5>@@V<lambda_f6c7be5f7998530c34de24c7437d6b54>@@@?$__crt_seh_guarded_call@H@@QEAAH$$QEAV<lambda_751a882b2c74d4b022dec766aa51a29a>@@AEAV<lambda_628dfdc04ba53c8bfc02c9951375f3f5>@@$$QEAV<lambda_f6c7be5f7998530c34de24c7437d6b54>@@@Z 0000000180019750 f   libucrt:close.obj
 0001:00018e14       _call_matherr              0000000180019e14 f   libucrt:libm_error.obj
 0001:00018e7c       _exception_enabled         0000000180019e7c f   libucrt:libm_error.obj
 0001:00019110       _log_special_common        000000018001a110 f   libucrt:log_special.obj
 0001:000191b0       $$000000                   000000018001a1b0     libucrt:fpsr.obj
 0001:000198e0       $$000000                   000000018001a8e0     libvcruntime:memcmp.obj
 0001:000199c0       $$000000                   000000018001a9c0     LIBCMT:_guard_dispatch_.obj
 0001:000199e0       __scrt_is_nonwritable_in_current_image$filt$0 000000018001a9e0 f   LIBCMT:utility.obj
 0001:000199f8       ?fin$0@?0??dllmain_crt_process_attach@@YAHQEAUHINSTANCE__@@QEAX@Z@4HA 000000018001a9f8 f   LIBCMT:dll_dllmain.obj
 0001:00019a0f       ?fin$0@?0??dllmain_crt_process_detach@@YAH_N@Z@4HA 000000018001aa0f f   LIBCMT:dll_dllmain.obj
 0001:00019a2b       ?filt$0@?0??dllmain_dispatch@@YAHQEAUHINSTANCE__@@KQEAX@Z@4HA 000000018001aa2b f   LIBCMT:dll_dllmain.obj
 0001:00019a61       _query_new_handler$fin$0   000000018001aa61 f   libucrt:new_handler.obj
 0001:00019a77       ?filt$0@?0???R<lambda_6e4b09c48022b2350581041d5f6b0c4c>@@QEBA@XZ@4HA 000000018001aa77 f   libucrt:exit.obj
 0001:00019a92       ?fin$0@?0???$?RV<lambda_aa87e3671a710a21b5dc78c0bdf72e11>@@AEAV<lambda_92619d2358a28f41a33ba319515a20b9>@@V<lambda_6992ecaafeb10aed2b74cb1fae11a551>@@@?$__crt_seh_guarded_call@X@@QEAAX$$QEAV<lambda_aa87e3671a710a21b5dc78c0bdf72e11>@@AEAV<lambda_92619d2358a28f41a33ba319515a20b9>@@$$QEAV<lambda_6992ecaafeb10aed2b74cb1fae11a551>@@@Z@4HA 000000018001aa92 f   libucrt:per_thread_data.obj
 0001:00019a92       ?fin$0@?0???$?RV<lambda_8369fcb7c4df1e85de37618bd2b85f07>@@AEAV<lambda_a10e4b102d4a2c3aac6f4f48bbdf488f>@@V<lambda_5b7707bd6d7a0c4713179f36c7fd995d>@@@?$__crt_seh_guarded_call@H@@QEAAH$$QEAV<lambda_8369fcb7c4df1e85de37618bd2b85f07>@@AEAV<lambda_a10e4b102d4a2c3aac6f4f48bbdf488f>@@$$QEAV<lambda_5b7707bd6d7a0c4713179f36c7fd995d>@@@Z@4HA 000000018001aa92 f   libucrt:onexit.obj
 0001:00019a92       ?fin$0@?0???$?RV<lambda_efdfa57d1f175319df784efa44bb7b81>@@AEAV<lambda_5f0a4c1567f8adc6734073e5d1e1b35c>@@V<lambda_2e8a7d3640ea6ccb4c2413664c2db6fd>@@@?$__crt_seh_guarded_call@X@@QEAAX$$QEAV<lambda_efdfa57d1f175319df784efa44bb7b81>@@AEAV<lambda_5f0a4c1567f8adc6734073e5d1e1b35c>@@$$QEAV<lambda_2e8a7d3640ea6ccb4c2413664c2db6fd>@@@Z@4HA 000000018001aa92 f   libucrt:mbctype.obj
 0001:00019a92       ?fin$0@?0???$?RV<lambda_2d41944a1d46af3157314b8a01080d33>@@AEAV<lambda_8f455de75cd7d7f24b4096f044d8b9e6>@@V<lambda_aa500f224e6afead328df44964fe2772>@@@?$__crt_seh_guarded_call@X@@QEAAX$$QEAV<lambda_2d41944a1d46af3157314b8a01080d33>@@AEAV<lambda_8f455de75cd7d7f24b4096f044d8b9e6>@@$$QEAV<lambda_aa500f224e6afead328df44964fe2772>@@@Z@4HA 000000018001aa92 f   libucrt:per_thread_data.obj
 0001:00019a92       ?fin$0@?0???$?RV<lambda_d80eeec6fff315bfe5c115232f3240e3>@@AEAV<lambda_6e4b09c48022b2350581041d5f6b0c4c>@@V<lambda_2358e3775559c9db80273638284d5e45>@@@?$__crt_seh_guarded_call@X@@QEAAX$$QEAV<lambda_d80eeec6fff315bfe5c115232f3240e3>@@AEAV<lambda_6e4b09c48022b2350581041d5f6b0c4c>@@$$QEAV<lambda_2358e3775559c9db80273638284d5e45>@@@Z@4HA 000000018001aa92 f   libucrt:exit.obj
 0001:00019a92       ?fin$0@?0???$?RV<lambda_450d765d439847d4c735a33c368b5fc0>@@AEAV<lambda_44731a7d0e6d81c3e6aa82d741081786>@@V<lambda_601a2a7da3b7a96e9554ac7215c4b07c>@@@?$__crt_seh_guarded_call@P6AXH@Z@@QEAAP6AXH@Z$$QEAV<lambda_450d765d439847d4c735a33c368b5fc0>@@AEAV<lambda_44731a7d0e6d81c3e6aa82d741081786>@@$$QEAV<lambda_601a2a7da3b7a96e9554ac7215c4b07c>@@@Z@4HA 000000018001aa92 f   libucrt:signal.obj
 0001:00019a92       ?fin$0@?0???$?RV<lambda_f2e299630e499de9f9a165e60fcd3db5>@@AEAV<lambda_2ae9d31cdba2644fcbeaf08da7c24588>@@V<lambda_40d01ff24d0e7b3814fdbdcee8eab3c7>@@@?$__crt_seh_guarded_call@X@@QEAAX$$QEAV<lambda_f2e299630e499de9f9a165e60fcd3db5>@@AEAV<lambda_2ae9d31cdba2644fcbeaf08da7c24588>@@$$QEAV<lambda_40d01ff24d0e7b3814fdbdcee8eab3c7>@@@Z@4HA 000000018001aa92 f   libucrt:per_thread_data.obj
 0001:00019a92       ?fin$0@?0???$?RV<lambda_7777bce6b2f8c936911f934f8298dc43>@@AEAV<lambda_f03950bc5685219e0bcd2087efbe011e>@@V<lambda_3883c3dff614d5e0c5f61bb1ac94921c>@@@?$__crt_seh_guarded_call@H@@QEAAH$$QEAV<lambda_7777bce6b2f8c936911f934f8298dc43>@@AEAV<lambda_f03950bc5685219e0bcd2087efbe011e>@@$$QEAV<lambda_3883c3dff614d5e0c5f61bb1ac94921c>@@@Z@4HA 000000018001aa92 f   libucrt:onexit.obj
 0001:00019a92       ?fin$0@?0???$?RV<lambda_0ae27a3a962d80f24befdcbee591983d>@@AEAV<lambda_8d0ee55de4b1038c4002e0adecdf1839>@@V<lambda_dc504788e8f1664fe9b84e20bfb512f2>@@@?$__crt_seh_guarded_call@X@@QEAAX$$QEAV<lambda_0ae27a3a962d80f24befdcbee591983d>@@AEAV<lambda_8d0ee55de4b1038c4002e0adecdf1839>@@$$QEAV<lambda_dc504788e8f1664fe9b84e20bfb512f2>@@@Z@4HA 000000018001aa92 f   libucrt:per_thread_data.obj
 0001:00019aac       ?fin$0@?0???$?RV<lambda_842d9ff0dc9ef11c61343bbaebe7f885>@@AEAV<lambda_c5860995281e5c4ce005b3de8f5874ee>@@V<lambda_d90129c13df834fdcbf8d2b88dafcf2d>@@@?$__crt_seh_guarded_call@X@@QEAAX$$QEAV<lambda_842d9ff0dc9ef11c61343bbaebe7f885>@@AEAV<lambda_c5860995281e5c4ce005b3de8f5874ee>@@$$QEAV<lambda_d90129c13df834fdcbf8d2b88dafcf2d>@@@Z@4HA 000000018001aaac f   libucrt:fflush.obj
 0001:00019aac       ?fin$0@?0???$?RV<lambda_0d412022a4b28cc8a401ea49574e8ae6>@@AEAV<lambda_a775ed57af18ba8e4d5dc780aa9068fe>@@V<lambda_975a71a6baa488a08f4e15f6b0339b9e>@@@?$__crt_seh_guarded_call@H@@QEAAH$$QEAV<lambda_0d412022a4b28cc8a401ea49574e8ae6>@@AEAV<lambda_a775ed57af18ba8e4d5dc780aa9068fe>@@$$QEAV<lambda_975a71a6baa488a08f4e15f6b0339b9e>@@@Z@4HA 000000018001aaac f   libucrt:output.obj
 0001:00019aac       ?fin$0@?0???$?RV<lambda_84ec643ea9557e2f7dc01bb0e9624395>@@AEAV<lambda_ca71763b3c0644891230e4f79ea54fa6>@@V<lambda_439a761618c59b0600e24586724d733b>@@@?$__crt_seh_guarded_call@H@@QEAAH$$QEAV<lambda_84ec643ea9557e2f7dc01bb0e9624395>@@AEAV<lambda_ca71763b3c0644891230e4f79ea54fa6>@@$$QEAV<lambda_439a761618c59b0600e24586724d733b>@@@Z@4HA 000000018001aaac f   libucrt:setvbuf.obj
 0001:00019aac       ?fin$0@?0???$?RV<lambda_c376a267cfb53b6959b3b692ec76b120>@@AEAV<lambda_9a32fed5bf61b6b509b2d3f6003082a1>@@V<lambda_572fbb9fa0ab338edf41edfd4b5fcc8d>@@@?$__crt_seh_guarded_call@H@@QEAAH$$QEAV<lambda_c376a267cfb53b6959b3b692ec76b120>@@AEAV<lambda_9a32fed5bf61b6b509b2d3f6003082a1>@@$$QEAV<lambda_572fbb9fa0ab338edf41edfd4b5fcc8d>@@@Z@4HA 000000018001aaac f   libucrt:fflush.obj
 0001:00019ac7       ?fin$0@?0???$?RV<lambda_886d6c58226a84441f68b9f2b8217b83>@@AEAV<lambda_ab61a845afdef5b7c387490eaf3616ee>@@V<lambda_f7f22ab5edc0698d5f6905b0d3f44752>@@@?$__crt_seh_guarded_call@X@@QEAAX$$QEAV<lambda_886d6c58226a84441f68b9f2b8217b83>@@AEAV<lambda_ab61a845afdef5b7c387490eaf3616ee>@@$$QEAV<lambda_f7f22ab5edc0698d5f6905b0d3f44752>@@@Z@4HA 000000018001aac7 f   libucrt:fflush.obj
 0001:00019ae4       raise$fin$0                000000018001aae4 f   libucrt:signal.obj
 0001:00019b05       ?fin$0@?0???$?RV<lambda_410d79af7f07d98d83a3f525b3859a53>@@AEAV<lambda_3e16ef9562a7dcce91392c22ab16ea36>@@V<lambda_38119f0e861e05405d8a144b9b982f0a>@@@?$__crt_seh_guarded_call@X@@QEAAX$$QEAV<lambda_410d79af7f07d98d83a3f525b3859a53>@@AEAV<lambda_3e16ef9562a7dcce91392c22ab16ea36>@@$$QEAV<lambda_38119f0e861e05405d8a144b9b982f0a>@@@Z@4HA 000000018001ab05 f   libucrt:wsetlocale.obj
 0001:00019b1f       __acrt_lowio_ensure_fh_exists$fin$0 000000018001ab1f f   libucrt:osfinfo.obj
 0001:00019b1f       __acrt_initialize_lowio$fin$0 000000018001ab1f f   libucrt:ioinit.obj
 0001:00019b38       ?fin$0@?0??update_thread_multibyte_data_internal@@YAPEAU__crt_multibyte_data@@QEAU__acrt_ptd@@QEAU1@@Z@4HA 000000018001ab38 f   libucrt:mbctype.obj
 0001:00019b51       __acrt_update_thread_locale_data$fin$0 000000018001ab51 f   libucrt:locale_refcounting.obj
 0001:00019b6a       _fcloseall$fin$0           000000018001ab6a f   libucrt:closeall.obj
 0001:00019b83       _write$fin$0               000000018001ab83 f   libucrt:write.obj
 0001:00019b83       ?fin$0@?0???$common_lseek@_J@@YA_JH_JH@Z@4HA 000000018001ab83 f   libucrt:lseek.obj
 0001:00019b9a       fclose$fin$0               000000018001ab9a f   libucrt:fclose.obj
 0001:00019bb2       ?fin$0@?0???$?RV<lambda_a37b2b86f63e897a80ea819b0eb08c01>@@AEAV<lambda_38ce7e780aa69e748d6df282ebc68efe>@@V<lambda_99fb1378e971ab6e7edea83e3a7a83a2>@@@?$__crt_seh_guarded_call@H@@QEAAH$$QEAV<lambda_a37b2b86f63e897a80ea819b0eb08c01>@@AEAV<lambda_38ce7e780aa69e748d6df282ebc68efe>@@$$QEAV<lambda_99fb1378e971ab6e7edea83e3a7a83a2>@@@Z@4HA 000000018001abb2 f   libucrt:commit.obj
 0001:00019bb2       ?fin$0@?0???$?RV<lambda_751a882b2c74d4b022dec766aa51a29a>@@AEAV<lambda_628dfdc04ba53c8bfc02c9951375f3f5>@@V<lambda_f6c7be5f7998530c34de24c7437d6b54>@@@?$__crt_seh_guarded_call@H@@QEAAH$$QEAV<lambda_751a882b2c74d4b022dec766aa51a29a>@@AEAV<lambda_628dfdc04ba53c8bfc02c9951375f3f5>@@$$QEAV<lambda_f6c7be5f7998530c34de24c7437d6b54>@@@Z@4HA 000000018001abb2 f   libucrt:close.obj
 0001:00019bcc       _ctrlfp$filt$0             000000018001abcc f   libucrt:fpctrl.obj
 0001:00019c00       _IsNonwritableInCurrentImage$filt$0 000000018001ac00 f   LIBCMT:pesect.obj
 0001:00019c20       ??__F?g_queue@CallbackInfo@@0V?$queue@PEAVThreadedCallbackInvokation@@V?$deque@PEAVThreadedCallbackInvokation@@V?$allocator@PEAVThreadedCallbackInvokation@@@std@@@std@@@std@@A@@YAXXZ 000000018001ac20 f   callback_info.obj
 0002:00000470       ??g_queue$initializer$@CallbackInfo@@0P6AXXZEA@@3P6AXXZEA 000000018001b470     callback_info.obj
 0002:00000590       GS_ExceptionPointers       000000018001b590     LIBCMT:gs_report.obj
 0002:000005d0       ?ExceptionTemplate@?1??_CxxThrowException@@9@4UEHExceptionRecord@@B 000000018001b5d0     libvcruntime:throw.obj
 0002:00000610       ?module_names@?A0x37284e77@@3QBQEB_WB 000000018001b610     libvcruntime:winapi_downlevel.obj
 0002:000006e0       ?candidate_modules@?1??try_get_FlsAlloc@@YAP6AKP6AXPEAX@Z@ZXZ@4QBW4module_id@?A0x37284e77@@B 000000018001b6e0     libvcruntime:winapi_downlevel.obj
 0002:000006f8       ?candidate_modules@?1??try_get_FlsFree@@YAP6AHK@ZXZ@4QBW4module_id@?A0x37284e77@@B 000000018001b6f8     libvcruntime:winapi_downlevel.obj
 0002:00000708       ?candidate_modules@?1??try_get_FlsGetValue@@YAP6APEAXK@ZXZ@4QBW4module_id@?A0x37284e77@@B 000000018001b708     libvcruntime:winapi_downlevel.obj
 0002:00000720       ?candidate_modules@?1??try_get_FlsSetValue@@YAP6AHKPEAX@ZXZ@4QBW4module_id@?A0x37284e77@@B 000000018001b720     libvcruntime:winapi_downlevel.obj
 0002:00000738       ?candidate_modules@?1??try_get_InitializeCriticalSectionEx@@YAP6AHPEAU_RTL_CRITICAL_SECTION@@KK@ZXZ@4QBW4module_id@?A0x37284e77@@B 000000018001b738     libvcruntime:winapi_downlevel.obj
 0002:000007e0       ?tokenTable@@3QBQEBDB      000000018001b7e0     libvcruntime:undname.obj
 0002:00000850       ?nameTable@@3QBQEBDB       000000018001b850     libvcruntime:undname.obj
 0002:00000ae0       ?rttiTable@@3QBQEBDB       000000018001bae0     libvcruntime:undname.obj
 0002:00001100       ?errtable@@3QBUerrentry@?A0x31fdb9ec@@B 000000018001c100     libucrt:errno.obj
 0002:000016c0       __acrt_initializers        000000018001c6c0     libucrt:initialization.obj
 0002:00001e80       ?_mb_locale_names@@3QBQEB_WB 000000018001ce80     libucrt:mbctype.obj
 0002:00001ee0       ?module_names@?A0x391cf84c@@3QBQEB_WB 000000018001cee0     libucrt:winapi_thunks.obj
 0002:000023d8       ?candidate_modules@?1??try_get_FlsAlloc@@YAP6AKP6AXPEAX@Z@ZXZ@4QBW4module_id@?A0x391cf84c@@B 000000018001d3d8     libucrt:winapi_thunks.obj
 0002:000023e0       ?candidate_modules@?1??try_get_FlsFree@@YAP6AHK@ZXZ@4QBW4module_id@?A0x391cf84c@@B 000000018001d3e0     libucrt:winapi_thunks.obj
 0002:000023e8       ?candidate_modules@?1??try_get_FlsGetValue@@YAP6APEAXK@ZXZ@4QBW4module_id@?A0x391cf84c@@B 000000018001d3e8     libucrt:winapi_thunks.obj
 0002:000023f0       ?candidate_modules@?1??try_get_FlsSetValue@@YAP6AHKPEAX@ZXZ@4QBW4module_id@?A0x391cf84c@@B 000000018001d3f0     libucrt:winapi_thunks.obj
 0002:000023f8       ?candidate_modules@?1??try_get_GetActiveWindow@@YAP6APEAUHWND__@@XZXZ@4QBW4module_id@?A0x391cf84c@@B 000000018001d3f8     libucrt:winapi_thunks.obj
 0002:00002410       ?candidate_modules@?1??try_get_GetLastActivePopup@@YAP6APEAUHWND__@@PEAU2@@ZXZ@4QBW4module_id@?A0x391cf84c@@B 000000018001d410     libucrt:winapi_thunks.obj
 0002:00002430       ?candidate_modules@?1??try_get_GetProcessWindowStation@@YAP6APEAUHWINSTA__@@XZXZ@4QBW4module_id@?A0x391cf84c@@B 000000018001d430     libucrt:winapi_thunks.obj
 0002:00002450       ?candidate_modules@?1??try_get_GetUserObjectInformationW@@YAP6AHPEAXH0KPEAK@ZXZ@4QBW4module_id@?A0x391cf84c@@B 000000018001d450     libucrt:winapi_thunks.obj
 0002:00002478       ?candidate_modules@?1??try_get_InitializeCriticalSectionEx@@YAP6AHPEAU_RTL_CRITICAL_SECTION@@KK@ZXZ@4QBW4module_id@?A0x391cf84c@@B 000000018001d478     libucrt:winapi_thunks.obj
 0002:00002480       ?candidate_modules@?1??try_get_LCMapStringEx@@YAP6AHPEB_WK0HPEA_WHPEAU_nlsversioninfo@@PEAX_J@ZXZ@4QBW4module_id@?A0x391cf84c@@B 000000018001d480     libucrt:winapi_thunks.obj
 0002:00002498       ?candidate_modules@?1??try_get_LocaleNameToLCID@@YAP6AKPEB_WK@ZXZ@4QBW4module_id@?A0x391cf84c@@B 000000018001d498     libucrt:winapi_thunks.obj
 0002:000024b8       ?candidate_modules@?1??try_get_MessageBoxA@@YAP6AHPEAUHWND__@@PEBD1I@ZXZ@4QBW4module_id@?A0x391cf84c@@B 000000018001d4b8     libucrt:winapi_thunks.obj
 0002:000024d0       ?candidate_modules@?1??try_get_MessageBoxW@@YAP6AHPEAUHWND__@@PEB_W1I@ZXZ@4QBW4module_id@?A0x391cf84c@@B 000000018001d4d0     libucrt:winapi_thunks.obj
 0002:000024e4       ?candidate_modules@?1??try_get_AppPolicyGetProcessTerminationMethod@@YAP6AJPEAXPEAW4AppPolicyProcessTerminationMethod@@@ZXZ@4QBW4module_id@?A0x391cf84c@@B 000000018001d4e4     libucrt:winapi_thunks.obj
 0002:00002510       ?candidate_modules@?1??try_get_AppPolicyGetShowDeveloperDiagnostic@@YAP6AJPEAXPEAW4AppPolicyShowDeveloperDiagnostic@@@ZXZ@4QBW4module_id@?A0x391cf84c@@B 000000018001d510     libucrt:winapi_thunks.obj
 0002:0000253c       ?candidate_modules@?1??try_get_AppPolicyGetWindowingModel@@YAP6AJPEAXPEAW4AppPolicyWindowingModel@@@ZXZ@4QBW4module_id@?A0x391cf84c@@B 000000018001d53c     libucrt:winapi_thunks.obj
 0002:00003770       ?LcidToLocaleNameTable@?A0x881e4c05@@3QBULcidToLocaleName@1@B 000000018001e770     libucrt:lcidtoname_downlevel.obj
 0002:000051d0       ?LocaleNameToIndexTable@?A0x881e4c05@@3QBULocaleNameIndex@1@B 00000001800201d0     libucrt:lcidtoname_downlevel.obj
 0002:00006a70       __real_ninf                0000000180021a70     libucrt:log10.obj
 0002:00006a80       __real_inf                 0000000180021a80     libucrt:log10.obj
 0002:00006a90       __real_neg_qnan            0000000180021a90     libucrt:log10.obj
 0002:00006aa0       __real_qnanbit             0000000180021aa0     libucrt:log10.obj
 0002:00006ab0       __int_1023                 0000000180021ab0     libucrt:log10.obj
 0002:00006ac0       __mask_001                 0000000180021ac0     libucrt:log10.obj
 0002:00006ad0       __mask_mant                0000000180021ad0     libucrt:log10.obj
 0002:00006ae0       __mask_mant_top8           0000000180021ae0     libucrt:log10.obj
 0002:00006af0       __mask_mant9               0000000180021af0     libucrt:log10.obj
 0002:00006b00       __real_log10_e             0000000180021b00     libucrt:log10.obj
 0002:00006b10       __real_log10_e_lead        0000000180021b10     libucrt:log10.obj
 0002:00006b20       __real_log10_e_tail        0000000180021b20     libucrt:log10.obj
 0002:00006b30       __real_log10_2_lead        0000000180021b30     libucrt:log10.obj
 0002:00006b40       __real_log10_2_tail        0000000180021b40     libucrt:log10.obj
 0002:00006b50       __real_two                 0000000180021b50     libucrt:log10.obj
 0002:00006b60       __real_one                 0000000180021b60     libucrt:log10.obj
 0002:00006b70       __real_half                0000000180021b70     libucrt:log10.obj
 0002:00006b80       __mask_100                 0000000180021b80     libucrt:log10.obj
 0002:00006b90       __real_1_over_512          0000000180021b90     libucrt:log10.obj
 0002:00006ba0       __real_1_over_2            0000000180021ba0     libucrt:log10.obj
 0002:00006bb0       __real_1_over_3            0000000180021bb0     libucrt:log10.obj
 0002:00006bc0       __real_1_over_4            0000000180021bc0     libucrt:log10.obj
 0002:00006bd0       __real_1_over_5            0000000180021bd0     libucrt:log10.obj
 0002:00006be0       __real_1_over_6            0000000180021be0     libucrt:log10.obj
 0002:00006bf0       __real_neg_1023            0000000180021bf0     libucrt:log10.obj
 0002:00006c00       __mask_2045                0000000180021c00     libucrt:log10.obj
 0002:00006c10       __real_threshold           0000000180021c10     libucrt:log10.obj
 0002:00006c20       __real_near_one_lt         0000000180021c20     libucrt:log10.obj
 0002:00006c30       __real_near_one_gt         0000000180021c30     libucrt:log10.obj
 0002:00006c40       __real_min_norm            0000000180021c40     libucrt:log10.obj
 0002:00006c50       __real_notsign             0000000180021c50     libucrt:log10.obj
 0002:00006c60       __real_ca1                 0000000180021c60     libucrt:log10.obj
 0002:00006c70       __real_ca2                 0000000180021c70     libucrt:log10.obj
 0002:00006c80       __real_ca3                 0000000180021c80     libucrt:log10.obj
 0002:00006c90       __real_ca4                 0000000180021c90     libucrt:log10.obj
 0002:00006ca0       __mask_lower               0000000180021ca0     libucrt:log10.obj
 0002:00006cb0       __flag_x_zero              0000000180021cb0     libucrt:log10.obj
 0002:00006cb4       __flag_x_neg               0000000180021cb4     libucrt:log10.obj
 0002:00006cb8       __flag_x_nan               0000000180021cb8     libucrt:log10.obj
 0002:00008510       __real@433fffffffffffff    0000000180023510     libucrt:fpsr.obj
 0002:00008518       __real@c33fffffffffffff    0000000180023518     libucrt:fpsr.obj
 0002:00009300       $unwind$?FunctionCallbackWrapper@imp@Nan@@YAXAEBV?$FunctionCallbackInfo@VValue@v8@@@v8@@@Z 0000000180024300     ffi.obj
 0002:00009310       $unwind$??$To@VUint32@v8@@@imp@Nan@@YA?AV?$Local@VUint32@v8@@@v8@@V?$Local@VInteger@v8@@@3@@Z 0000000180024310     ffi.obj
 0002:0000931c       $unwind$?New@?$Factory@VFunctionTemplate@v8@@@imp@Nan@@SA?AV?$Local@VFunctionTemplate@v8@@@v8@@P6AXAEBV?$FunctionCallbackInfo@VValue@v8@@@3@@ZV?$Local@VValue@v8@@@5@V?$Local@VSignature@v8@@@5@@Z 000000018002431c     ffi.obj
 0002:00009330       $chain$0$?New@?$Factory@VFunctionTemplate@v8@@@imp@Nan@@SA?AV?$Local@VFunctionTemplate@v8@@@v8@@P6AXAEBV?$FunctionCallbackInfo@VValue@v8@@@3@@ZV?$Local@VValue@v8@@@5@V?$Local@VSignature@v8@@@5@@Z 0000000180024330     ffi.obj
 0002:00009344       $chain$1$?New@?$Factory@VFunctionTemplate@v8@@@imp@Nan@@SA?AV?$Local@VFunctionTemplate@v8@@@v8@@P6AXAEBV?$FunctionCallbackInfo@VValue@v8@@@3@@ZV?$Local@VValue@v8@@@5@V?$Local@VSignature@v8@@@5@@Z 0000000180024344     ffi.obj
 0002:00009358       $chain$2$?New@?$Factory@VFunctionTemplate@v8@@@imp@Nan@@SA?AV?$Local@VFunctionTemplate@v8@@@v8@@P6AXAEBV?$FunctionCallbackInfo@VValue@v8@@@3@@ZV?$Local@VValue@v8@@@5@V?$Local@VSignature@v8@@@5@@Z 0000000180024358     ffi.obj
 0002:00009368       $chain$3$?New@?$Factory@VFunctionTemplate@v8@@@imp@Nan@@SA?AV?$Local@VFunctionTemplate@v8@@@v8@@P6AXAEBV?$FunctionCallbackInfo@VValue@v8@@@3@@ZV?$Local@VValue@v8@@@5@V?$Local@VSignature@v8@@@5@@Z 0000000180024368     ffi.obj
 0002:00009378       $unwind$?ThrowError@Nan@@YAXPEBD@Z 0000000180024378     ffi.obj
 0002:00009380       $unwind$?Call@Callback@Nan@@QEBA?AV?$Local@VValue@v8@@@v8@@HQEAV34@@Z 0000000180024380     ffi.obj
 0002:00009394       $unwind$?WrapPointer@@YA?AV?$Local@VValue@v8@@@v8@@PEAD_K@Z 0000000180024394     ffi.obj
 0002:000093a4       $unwind$?WrapPointer@@YA?AV?$Local@VValue@v8@@@v8@@PEAD@Z 00000001800243a4     ffi.obj
 0002:000093a4       $unwind$?type_case_a@?$output_processor@DV?$string_output_adapter@D@__crt_stdio_output@@V?$standard_base@DV?$string_output_adapter@D@__crt_stdio_output@@@2@@__crt_stdio_output@@AEAA_NXZ 00000001800243a4     libucrt:output.obj
 0002:000093b0       $unwind$??$uninitialize_environment_internal@D@@YAXAEAPEAPEAD@Z 00000001800243b0     libucrt:environment_initialization.obj
 0002:000093b0       $unwind$?_Xlen@?$deque@PEAVThreadedCallbackInvokation@@V?$allocator@PEAVThreadedCallbackInvokation@@@std@@@std@@IEBAXXZ 00000001800243b0     callback_info.obj
 0002:000093b0       $unwind$__acrt_initialize_heap 00000001800243b0     libucrt:heap_handle.obj
 0002:000093b0       $unwind$_msize_base        00000001800243b0     libucrt:msize.obj
 0002:000093b0       $unwind$?WatcherCallback@CallbackInfo@@SAXPEAUuv_async_s@@H@Z 00000001800243b0     callback_info.obj
 0002:000093b0       $unwind$__vcrt_initialize  00000001800243b0     libvcruntime:initialization.obj
 0002:000093b0       $unwind$??__E?g_queue@CallbackInfo@@0V?$queue@PEAVThreadedCallbackInvokation@@V?$deque@PEAVThreadedCallbackInvokation@@V?$allocator@PEAVThreadedCallbackInvokation@@@std@@@std@@@std@@A@@YAXXZ 00000001800243b0     callback_info.obj
 0002:000093b0       $unwind$??$uninitialize_environment_internal@_W@@YAXAEAPEAPEA_W@Z 00000001800243b0     libucrt:environment_initialization.obj
 0002:000093b0       $unwind$__vcrt_uninitialize 00000001800243b0     libvcruntime:initialization.obj
 0002:000093b0       $unwind$__vcrt_uninitialize_critical 00000001800243b0     libvcruntime:initialization.obj
 0002:000093b0       $unwind$?initialize_multibyte@@YAHXZ 00000001800243b0     libucrt:multibyte_initializer.obj
 0002:000093b0       $unwind$__vcrt_thread_attach 00000001800243b0     libvcruntime:initialization.obj
 0002:000093b0       $unwind$__vcrt_thread_detach 00000001800243b0     libvcruntime:initialization.obj
 0002:000093b0       $unwind$__vcrt_initialize_ptd 00000001800243b0     libvcruntime:per_thread_data.obj
 0002:000093b0       $unwind$_errno             00000001800243b0     libucrt:errno.obj
 0002:000093b0       $unwind$??__F?g_queue@CallbackInfo@@0V?$queue@PEAVThreadedCallbackInvokation@@V?$deque@PEAVThreadedCallbackInvokation@@V?$allocator@PEAVThreadedCallbackInvokation@@@std@@@std@@@std@@A@@YAXXZ 00000001800243b0     callback_info.obj
 0002:000093b0       $unwind$?state_case_size@?$output_processor@_WV?$stream_output_adapter@_W@__crt_stdio_output@@V?$standard_base@_WV?$stream_output_adapter@_W@__crt_stdio_output@@@2@@__crt_stdio_output@@AEAA_NXZ 00000001800243b0     libucrt:output.obj
 0002:000093b0       $unwind$__vcrt_uninitialize_ptd 00000001800243b0     libvcruntime:per_thread_data.obj
 0002:000093b0       $unwind$__doserrno         00000001800243b0     libucrt:errno.obj
 0002:000093b0       $unwind$__dcrt_uninitialize_environments_nolock 00000001800243b0     libucrt:environment_initialization.obj
 0002:000093b0       $unwind$__scrt_dllmain_crt_thread_detach 00000001800243b0     LIBCMT:utility.obj
 0002:000093b0       $unwind$__vcrt_freefls     00000001800243b0     libvcruntime:per_thread_data.obj
 0002:000093b0       $unwind$__GSHandlerCheck   00000001800243b0     LIBCMT:_gshandler_.obj
 0002:000093b0       $unwind$__scrt_dllmain_crt_thread_attach 00000001800243b0     LIBCMT:utility.obj
 0002:000093b0       $unwind$tolower            00000001800243b0     libucrt:tolower_toupper.obj
 0002:000093b0       $unwind$__acrt_initialize_multibyte 00000001800243b0     libucrt:mbctype.obj
 0002:000093b0       $unwind$_statfp            00000001800243b0     libucrt:fpctrl.obj
 0002:000093b0       $unwind$_get_osfhandle     00000001800243b0     libucrt:osfinfo.obj
 0002:000093b0       $unwind$__scrt_dllmain_uninitialize_critical 00000001800243b0     LIBCMT:utility.obj
 0002:000093b0       $unwind$__scrt_dllmain_uninitialize_c 00000001800243b0     LIBCMT:utility.obj
 0002:000093b0       $unwind$_invoke_watson     00000001800243b0     libucrt:invalid_parameter.obj
 0002:000093b0       $unwind$__report_rangecheckfailure 00000001800243b0     LIBCMT:gs_report.obj
 0002:000093b0       $unwind$_set_error_mode    00000001800243b0     libucrt:set_error_mode.obj
 0002:000093b0       $unwind$__scrt_dllmain_after_initialize_c 00000001800243b0     LIBCMT:utility.obj
 0002:000093b0       $unwind$__acrt_update_thread_multibyte_data 00000001800243b0     libucrt:mbctype.obj
 0002:000093b0       $unwind$?node_ffi_errno@@YAHXZ 00000001800243b0     ffi.obj
 0002:000093b0       $unwind$dlerror            00000001800243b0     win32-dlfcn.obj
 0002:000093b0       $unwind$__scrt_dllmain_before_initialize_c 00000001800243b0     LIBCMT:utility.obj
 0002:000093b0       $unwind$abort              00000001800243b0     libucrt:abort.obj
 0002:000093b0       $unwind$dlopen             00000001800243b0     win32-dlfcn.obj
 0002:000093b0       $unwind$ffi_prep_cif       00000001800243b0     libffi:prep_cif.obj
 0002:000093b0       $unwind$dlfree             00000001800243b0     libffi:closures.obj
 0002:000093b0       $unwind$__dcrt_terminate_console_output 00000001800243b0     libucrt:initcon.obj
 0002:000093b0       $unwind$_set_errno_from_matherr 00000001800243b0     libucrt:fpexcept.obj
 0002:000093b0       $unwind$_isatty            00000001800243b0     libucrt:isatty.obj
 0002:000093b0       $unwind$__acrt_uninitialize_critical 00000001800243b0     libucrt:initialization.obj
 0002:000093b0       $unwind$__acrt_uninitialize_ptd 00000001800243b0     libucrt:per_thread_data.obj
 0002:000093b0       $unwind$__pctype_func      00000001800243b0     libucrt:ctype.obj
 0002:000093b0       $unwind$__scrt_initialize_default_local_stdio_options 00000001800243b0     LIBCMT:default_local_stdio_options.obj
 0002:000093b0       $unwind$__acrt_initialize_ptd 00000001800243b0     libucrt:per_thread_data.obj
 0002:000093b0       $unwind$__acrt_thread_attach 00000001800243b0     libucrt:initialization.obj
 0002:000093b0       $unwind$__scrt_acquire_startup_lock 00000001800243b0     LIBCMT:utility.obj
 0002:000093b0       $unwind$?state_case_normal_tchar@?$output_processor@DV?$string_output_adapter@D@__crt_stdio_output@@V?$standard_base@DV?$string_output_adapter@D@__crt_stdio_output@@@2@@__crt_stdio_output@@AEAA_ND@Z 00000001800243b0     libucrt:output.obj
 0002:000093b0       $unwind$__acrt_thread_detach 00000001800243b0     libucrt:initialization.obj
 0002:000093b0       $unwind$?state_case_size@?$output_processor@_WV?$string_output_adapter@_W@__crt_stdio_output@@V?$standard_base@_WV?$string_output_adapter@_W@__crt_stdio_output@@@2@@__crt_stdio_output@@AEAA_NXZ 00000001800243b0     libucrt:output.obj
 0002:000093b0       $unwind$__acrt_DownlevelLocaleNameToLCID 00000001800243b0     libucrt:lcidtoname_downlevel.obj
 0002:000093b0       $unwind$?state_case_size@?$output_processor@DV?$string_output_adapter@D@__crt_stdio_output@@V?$standard_base@DV?$string_output_adapter@D@__crt_stdio_output@@@2@@__crt_stdio_output@@AEAA_NXZ 00000001800243b0     libucrt:output.obj
 0002:000093b0       $unwind$atexit             00000001800243b0     LIBCMT:utility.obj
 0002:000093b0       $unwind$initialize_c       00000001800243b0     libucrt:initialization.obj
 0002:000093b0       $unwind$_fileno            00000001800243b0     libucrt:fileno.obj
 0002:000093b0       $unwind$__acrt_release_locale_ref 00000001800243b0     libucrt:locale_refcounting.obj
 0002:000093b0       $unwind$uninitialize_environment 00000001800243b0     libucrt:initialization.obj
 0002:000093b0       $unwind$__acrt_initialize_command_line 00000001800243b0     libucrt:argv_data.obj
 0002:000093b0       $unwind$?dllmain_crt_dispatch@@YAHQEAUHINSTANCE__@@KQEAX@Z 00000001800243b0     LIBCMT:dll_dllmain.obj
 0002:000093b8       $unwind$?InitializeStaticFunctions@FFI@@SAXV?$Local@VObject@v8@@@v8@@@Z 00000001800243b8     ffi.obj
 0002:000093c8       $unwind$?InitializeBindings@FFI@@SAXV?$Local@VObject@v8@@@v8@@@Z 00000001800243c8     ffi.obj
 0002:000093dc       $unwind$?FFIPrepCifVar@FFI@@KAXAEBV?$FunctionCallbackInfo@VValue@v8@@@Nan@@@Z 00000001800243dc     ffi.obj
 0002:000093dc       $unwind$?FFIPrepCif@FFI@@KAXAEBV?$FunctionCallbackInfo@VValue@v8@@@Nan@@@Z 00000001800243dc     ffi.obj
 0002:000093e8       $chain$2$?FFIPrepCif@FFI@@KAXAEBV?$FunctionCallbackInfo@VValue@v8@@@Nan@@@Z 00000001800243e8     ffi.obj
 0002:00009404       $chain$3$?FFIPrepCif@FFI@@KAXAEBV?$FunctionCallbackInfo@VValue@v8@@@Nan@@@Z 0000000180024404     ffi.obj
 0002:00009414       $chain$2$?FFIPrepCifVar@FFI@@KAXAEBV?$FunctionCallbackInfo@VValue@v8@@@Nan@@@Z 0000000180024414     ffi.obj
 0002:00009430       $chain$3$?FFIPrepCifVar@FFI@@KAXAEBV?$FunctionCallbackInfo@VValue@v8@@@Nan@@@Z 0000000180024430     ffi.obj
 0002:00009440       $unwind$?FFICall@FFI@@KAXAEBV?$FunctionCallbackInfo@VValue@v8@@@Nan@@@Z 0000000180024440     ffi.obj
 0002:00009454       $unwind$?FFICallAsync@FFI@@KAXAEBV?$FunctionCallbackInfo@VValue@v8@@@Nan@@@Z 0000000180024454     ffi.obj
 0002:0000946c       $unwind$?FinishAsyncFFICall@FFI@@KAXPEAUuv_work_s@@@Z 000000018002446c     ffi.obj
 0002:00009480       $unwind$isdigit            0000000180024480     libucrt:_ctype.obj
 0002:00009480       $unwind$_isleadbyte_l      0000000180024480     libucrt:_wctype.obj
 0002:00009480       $unwind$__dcrt_lowio_ensure_console_output_initialized 0000000180024480     libucrt:initcon.obj
 0002:00009480       $unwind$?init@@YAXV?$Local@VObject@v8@@@v8@@@Z 0000000180024480     ffi.obj
 0002:00009480       $unwind$?getSystemCP@@YAHH@Z 0000000180024480     libucrt:mbctype.obj
 0002:00009488       $unwind$__acrt_stdio_begin_temporary_buffering_nolock 0000000180024488     libucrt:_sftbuf.obj
 0002:00009488       $unwind$_close_nolock      0000000180024488     libucrt:close.obj
 0002:00009488       $unwind$__vcrt_FlsGetValue 0000000180024488     libvcruntime:winapi_downlevel.obj
 0002:00009488       $unwind$_fclose_nolock     0000000180024488     libucrt:fclose.obj
 0002:00009488       $unwind$dlclose            0000000180024488     win32-dlfcn.obj
 0002:00009488       $unwind$__vcrt_FlsAlloc    0000000180024488     libvcruntime:winapi_downlevel.obj
 0002:00009488       $unwind$mmap_alloc         0000000180024488     libffi:closures.obj
 0002:00009488       $unwind$??$common_xtox@K_W@@YAHKQEA_W_KI_N@Z 0000000180024488     libucrt:xtoa.obj
 0002:00009488       $unwind$??_Gexception@std@@UEAAPEAXI@Z 0000000180024488     libcpmt:xthrow.obj
 0002:00009488       $unwind$_updatetlocinfoEx_nolock 0000000180024488     libucrt:locale_refcounting.obj
 0002:00009488       $unwind$?type_case_c_tchar@?$output_processor@DV?$string_output_adapter@D@__crt_stdio_output@@V?$standard_base@DV?$string_output_adapter@D@__crt_stdio_output@@@2@@__crt_stdio_output@@AEAA_ND@Z 0000000180024488     libucrt:output.obj
 0002:00009488       $unwind$__acrt_can_show_message_box 0000000180024488     libucrt:winapi_thunks.obj
 0002:00009488       $unwind$_initterm_e        0000000180024488     libucrt:initterm.obj
 0002:00009488       $unwind$__acrt_uninitialize_lowio 0000000180024488     libucrt:ioinit.obj
 0002:00009488       $unwind$??_Gbad_array_new_length@std@@UEAAPEAXI@Z 0000000180024488     LIBCMT:throw_bad_alloc.obj
 0002:00009488       $unwind$__vcrt_FlsFree     0000000180024488     libvcruntime:winapi_downlevel.obj
 0002:00009488       $unwind$??_Gbad_alloc@std@@UEAAPEAXI@Z 0000000180024488     libcpmt:xthrow.obj
 0002:00009488       $unwind$??0_LocaleUpdate@@QEAA@QEAU__crt_locale_pointers@@@Z 0000000180024488     libucrt:output.obj
 0002:00009488       $unwind$??$common_initialize_environment_nolock@D@@YAHXZ 0000000180024488     libucrt:environment_initialization.obj
 0002:00009488       $unwind$wcsncat_s          0000000180024488     libucrt:wcsncat_s.obj
 0002:00009488       $unwind$?force_decimal_point@__crt_stdio_output@@YAXPEADQEAU__crt_locale_pointers@@@Z 0000000180024488     libucrt:output.obj
 0002:00009488       $unwind$??_Glogic_error@std@@UEAAPEAXI@Z 0000000180024488     libcpmt:xthrow.obj
 0002:00009488       $unwind$__acrt_LocaleNameToLCID 0000000180024488     libucrt:winapi_thunks.obj
 0002:00009488       $unwind$??_Glength_error@std@@UEAAPEAXI@Z 0000000180024488     libcpmt:xthrow.obj
 0002:00009488       $unwind$strncpy_s          0000000180024488     libucrt:strncpy_s.obj
 0002:00009488       $unwind$__acrt_FlsSetValue 0000000180024488     libucrt:winapi_thunks.obj
 0002:00009488       $unwind$__acrt_getptd      0000000180024488     libucrt:per_thread_data.obj
 0002:00009488       $unwind$_realloc_base      0000000180024488     libucrt:realloc_base.obj
 0002:00009488       $unwind$?closure_pointer_cb@@YAXPEADPEAX@Z 0000000180024488     callback_info.obj
 0002:00009488       $unwind$__acrt_getptd_noexit 0000000180024488     libucrt:per_thread_data.obj
 0002:00009488       $unwind$__acrt_errno_map_os_error 0000000180024488     libucrt:errno.obj
 0002:00009488       $unwind$__acrt_execute_uninitializers 0000000180024488     libucrt:shared_initialization.obj
 0002:00009488       $unwind$?replace_current_thread_locale_nolock@@YAXQEAU__acrt_ptd@@QEAU__crt_locale_data@@@Z 0000000180024488     libucrt:per_thread_data.obj
 0002:00009494       $unwind$?DispatchToV8@CallbackInfo@@KAXPEAU_callback_info@@PEAXPEAPEAX_N@Z 0000000180024494     callback_info.obj
 0002:000094ac       $chain$0$?DispatchToV8@CallbackInfo@@KAXPEAU_callback_info@@PEAXPEAPEAX_N@Z 00000001800244ac     callback_info.obj
 0002:000094c0       $chain$1$?DispatchToV8@CallbackInfo@@KAXPEAU_callback_info@@PEAXPEAPEAX_N@Z 00000001800244c0     callback_info.obj
 0002:000094d0       $chain$2$?WatcherCallback@CallbackInfo@@SAXPEAUuv_async_s@@H@Z 00000001800244d0     callback_info.obj
 0002:000094ec       $chain$3$?WatcherCallback@CallbackInfo@@SAXPEAUuv_async_s@@H@Z 00000001800244ec     callback_info.obj
 0002:000094fc       $unwind$?Callback@CallbackInfo@@KAXAEBV?$FunctionCallbackInfo@VValue@v8@@@Nan@@@Z 00000001800244fc     callback_info.obj
 0002:00009508       $chain$3$?Callback@CallbackInfo@@KAXAEBV?$FunctionCallbackInfo@VValue@v8@@@Nan@@@Z 0000000180024508     callback_info.obj
 0002:00009528       $chain$5$?Callback@CallbackInfo@@KAXAEBV?$FunctionCallbackInfo@VValue@v8@@@Nan@@@Z 0000000180024528     callback_info.obj
 0002:00009540       $chain$6$?Callback@CallbackInfo@@KAXAEBV?$FunctionCallbackInfo@VValue@v8@@@Nan@@@Z 0000000180024540     callback_info.obj
 0002:00009554       $chain$7$?Callback@CallbackInfo@@KAXAEBV?$FunctionCallbackInfo@VValue@v8@@@Nan@@@Z 0000000180024554     callback_info.obj
 0002:00009564       $chain$9$?Callback@CallbackInfo@@KAXAEBV?$FunctionCallbackInfo@VValue@v8@@@Nan@@@Z 0000000180024564     callback_info.obj
 0002:00009588       $chain$10$?Callback@CallbackInfo@@KAXAEBV?$FunctionCallbackInfo@VValue@v8@@@Nan@@@Z 0000000180024588     callback_info.obj
 0002:000095a8       $unwind$?Invoke@CallbackInfo@@KAXPEAUffi_cif@@PEAXPEAPEAX1@Z 00000001800245a8     callback_info.obj
 0002:000095bc       $unwind$?Initialize@CallbackInfo@@SAXV?$Local@VObject@v8@@@v8@@@Z 00000001800245bc     callback_info.obj
 0002:000095cc       $unwind$__acrt_FlsFree     00000001800245cc     libucrt:winapi_thunks.obj
 0002:000095cc       $unwind$__scrt_uninitialize_crt 00000001800245cc     LIBCMT:utility.obj
 0002:000095cc       $unwind$__acrt_FlsGetValue 00000001800245cc     libucrt:winapi_thunks.obj
 0002:000095cc       $unwind$__scrt_initialize_crt 00000001800245cc     LIBCMT:utility.obj
 0002:000095cc       $unwind$_callnewh          00000001800245cc     libucrt:new_handler.obj
 0002:000095cc       $unwind$wcscat_s           00000001800245cc     libucrt:wcscat_s.obj
 0002:000095cc       $unwind$__acrt_update_multibyte_info 00000001800245cc     libucrt:locale_update.obj
 0002:000095cc       $unwind$__acrt_get_process_end_policy 00000001800245cc     libucrt:win_policies.obj
 0002:000095cc       $unwind$__acrt_allocate_buffer_for_argv 00000001800245cc     libucrt:argv_parsing.obj
 0002:000095cc       $unwind$__scrt_release_startup_lock 00000001800245cc     LIBCMT:utility.obj
 0002:000095cc       $unwind$??0length_error@std@@QEAA@AEBV01@@Z 00000001800245cc     libcpmt:xthrow.obj
 0002:000095cc       $unwind$fegetenv           00000001800245cc     libucrt:fegetenv.obj
 0002:000095cc       $unwind$??_Gtype_info@@UEAAPEAXI@Z 00000001800245cc     LIBCMT:std_type_info_static.obj
 0002:000095cc       $unwind$__acrt_AppPolicyGetProcessTerminationMethodInternal 00000001800245cc     libucrt:winapi_thunks.obj
 0002:000095cc       $unwind$_malloc_base       00000001800245cc     libucrt:malloc_base.obj
 0002:000095cc       $unwind$dlsym              00000001800245cc     win32-dlfcn.obj
 0002:000095cc       $unwind$__acrt_uninitialize_stdio 00000001800245cc     libucrt:_file.obj
 0002:000095cc       $unwind$__std_exception_destroy 00000001800245cc     libvcruntime:std_exception.obj
 0002:000095cc       $unwind$?state_case_normal@?$output_processor@DV?$string_output_adapter@D@__crt_stdio_output@@V?$standard_base@DV?$string_output_adapter@D@__crt_stdio_output@@@2@@__crt_stdio_output@@AEAA_NXZ 00000001800245cc     libucrt:output.obj
 0002:000095cc       $unwind$__std_type_info_destroy_list 00000001800245cc     libvcruntime:std_type_info.obj
 0002:000095cc       $unwind$??2@YAPEAX_K@Z     00000001800245cc     LIBCMT:new_scalar.obj
 0002:000095cc       $unwind$_calloc_base       00000001800245cc     libucrt:calloc_base.obj
 0002:000095cc       $unwind$?type_case_integer@?$output_processor@_WV?$string_output_adapter@_W@__crt_stdio_output@@V?$standard_base@_WV?$string_output_adapter@_W@__crt_stdio_output@@@2@@__crt_stdio_output@@AEAA_NI_N@Z 00000001800245cc     libucrt:output.obj
 0002:000095cc       $unwind$__acrt_get_windowing_model_policy 00000001800245cc     libucrt:win_policies.obj
 0002:000095cc       $unwind$??0logic_error@std@@QEAA@AEBV01@@Z 00000001800245cc     libcpmt:xthrow.obj
 0002:000095cc       $unwind$__acrt_get_developer_information_policy 00000001800245cc     libucrt:win_policies.obj
 0002:000095cc       $unwind$__acrt_AppPolicyGetShowDeveloperDiagnosticInternal 00000001800245cc     libucrt:winapi_thunks.obj
 0002:000095cc       $unwind$__acrt_FlsAlloc    00000001800245cc     libucrt:winapi_thunks.obj
 0002:000095cc       $unwind$__acrt_AppPolicyGetWindowingModelInternal 00000001800245cc     libucrt:winapi_thunks.obj
 0002:000095cc       $unwind$__acrt_stdio_free_buffer_nolock 00000001800245cc     libucrt:_freebuf.obj
 0002:000095cc       $unwind$??0bad_array_new_length@std@@QEAA@AEBV01@@Z 00000001800245cc     LIBCMT:throw_bad_alloc.obj
 0002:000095cc       $unwind$__acrt_uninitialize_winapi_thunks 00000001800245cc     libucrt:winapi_thunks.obj
 0002:000095cc       $unwind$__acrt_uninitialize_locks 00000001800245cc     libucrt:locks.obj
 0002:000095cc       $unwind$_onexit            00000001800245cc     LIBCMT:utility.obj
 0002:000095cc       $unwind$__vcrt_initialize_locks 00000001800245cc     libvcruntime:locks.obj
 0002:000095cc       $unwind$__acrt_getptd_head 00000001800245cc     libucrt:per_thread_data.obj
 0002:000095cc       $unwind$__vcrt_uninitialize_locks 00000001800245cc     libvcruntime:locks.obj
 0002:000095cc       $unwind$??0bad_alloc@std@@QEAA@AEBV01@@Z 00000001800245cc     libcpmt:xthrow.obj
 0002:000095cc       $unwind$wcscpy_s           00000001800245cc     libucrt:wcscpy_s.obj
 0002:000095cc       $unwind$__acrt_fp_strflt_to_string 00000001800245cc     libucrt:_fptostr.obj
 0002:000095cc       $unwind$?try_cor_exit_process@@YAXI@Z 00000001800245cc     libucrt:exit.obj
 0002:000095cc       $unwind$_set_statfp        00000001800245cc     libucrt:fpctrl.obj
 0002:000095cc       $unwind$?type_case_integer@?$output_processor@_WV?$stream_output_adapter@_W@__crt_stdio_output@@V?$standard_base@_WV?$stream_output_adapter@_W@__crt_stdio_output@@@2@@__crt_stdio_output@@AEAA_NI_N@Z 00000001800245cc     libucrt:output.obj
 0002:000095cc       $unwind$?_Tidy@?$deque@PEAVThreadedCallbackInvokation@@V?$allocator@PEAVThreadedCallbackInvokation@@@std@@@std@@IEAAXXZ 00000001800245cc     callback_info.obj
 0002:000095cc       $unwind$?exit_or_terminate_process@@YAXI@Z 00000001800245cc     libucrt:exit.obj
 0002:000095cc       $unwind$__raise_securityfailure 00000001800245cc     LIBCMT:gs_report.obj
 0002:000095cc       $unwind$__acrt_stdio_allocate_buffer_nolock 00000001800245cc     libucrt:_getbuf.obj
 0002:000095cc       $unwind$__vcrt_freeptd     00000001800245cc     libvcruntime:per_thread_data.obj
 0002:000095cc       $unwind$__acrt_get_parent_window 00000001800245cc     libucrt:winapi_thunks.obj
 0002:000095cc       $unwind$??0exception@std@@QEAA@AEBV01@@Z 00000001800245cc     libcpmt:xthrow.obj
 0002:000095cc       $unwind$?internal_isupper_l@@YA_NHQEAU__crt_locale_pointers@@@Z 00000001800245cc     libucrt:tolower_toupper.obj
 0002:000095cc       $unwind$__acrt_initialize_locks 00000001800245cc     libucrt:locks.obj
 0002:000095cc       $unwind$fesetenv           00000001800245cc     libucrt:fesetenv.obj
 0002:000095cc       $unwind$_clrfp             00000001800245cc     libucrt:fpctrl.obj
 0002:000095cc       $unwind$feholdexcept       00000001800245cc     libucrt:feholdexcept.obj
 0002:000095cc       $unwind$_fflush_nolock     00000001800245cc     libucrt:fflush.obj
 0002:000095cc       $unwind$?type_case_integer@?$output_processor@DV?$string_output_adapter@D@__crt_stdio_output@@V?$standard_base@DV?$string_output_adapter@D@__crt_stdio_output@@@2@@__crt_stdio_output@@AEAA_NI_N@Z 00000001800245cc     libucrt:output.obj
 0002:000095cc       $unwind$initialize_pointers 00000001800245cc     libucrt:initialization.obj
 0002:000095cc       $unwind$strcpy_s           00000001800245cc     libucrt:strcpy_s.obj
 0002:000095cc       $unwind$uninitialize_allocated_memory 00000001800245cc     libucrt:initialization.obj
 0002:000095cc       $unwind$_clearfp           00000001800245cc     libucrt:ieee.obj
 0002:000095cc       $unwind$__acrt_update_locale_info 00000001800245cc     libucrt:locale_update.obj
 0002:000095cc       $unwind$__acrt_freeptd     00000001800245cc     libucrt:per_thread_data.obj
 0002:000095d4       $unwind$?type_case_n@?$output_processor@DV?$string_output_adapter@D@__crt_stdio_output@@V?$standard_base@DV?$string_output_adapter@D@__crt_stdio_output@@@2@@__crt_stdio_output@@AEAA_NXZ 00000001800245d4     libucrt:output.obj
 0002:000095d4       $unwind$?push_back@?$deque@PEAVThreadedCallbackInvokation@@V?$allocator@PEAVThreadedCallbackInvokation@@@std@@@std@@QEAAXAEBQEAVThreadedCallbackInvokation@@@Z 00000001800245d4     callback_info.obj
 0002:000095d4       $unwind$__acrt_stdio_flush_nolock 00000001800245d4     libucrt:fflush.obj
 0002:000095d4       $unwind$_DllMainCRTStartup 00000001800245d4     LIBCMT:dll_dllmain.obj
 0002:000095d4       $unwind$__vcrt_getptd_noexit 00000001800245d4     libvcruntime:per_thread_data.obj
 0002:000095d4       $unwind$?type_case_s@?$output_processor@DV?$string_output_adapter@D@__crt_stdio_output@@V?$standard_base@DV?$string_output_adapter@D@__crt_stdio_output@@@2@@__crt_stdio_output@@AEAA_NXZ 00000001800245d4     libucrt:output.obj
 0002:000095d4       $unwind$?type_case_Z@?$output_processor@DV?$string_output_adapter@D@__crt_stdio_output@@V?$standard_base@DV?$string_output_adapter@D@__crt_stdio_output@@@2@@__crt_stdio_output@@AEAA_NXZ 00000001800245d4     libucrt:output.obj
 0002:000095d4       $unwind$?type_case_s@?$output_processor@_WV?$string_output_adapter@_W@__crt_stdio_output@@V?$standard_base@_WV?$string_output_adapter@_W@__crt_stdio_output@@@2@@__crt_stdio_output@@AEAA_NXZ 00000001800245d4     libucrt:output.obj
 0002:000095d4       $unwind$__acrt_stdio_flush_and_write_wide_nolock 00000001800245d4     libucrt:_flsbuf.obj
 0002:000095d4       $unwind$__acrt_stdio_flush_and_write_narrow_nolock 00000001800245d4     libucrt:_flsbuf.obj
 0002:000095d4       $unwind$??$common_lseek_nolock@_J@@YA_JH_JH@Z 00000001800245d4     libucrt:lseek.obj
 0002:000095d4       $unwind$_exception_enabled 00000001800245d4     libucrt:libm_error.obj
 0002:000095d4       $unwind$?type_case_Z@?$output_processor@_WV?$string_output_adapter@_W@__crt_stdio_output@@V?$standard_base@_WV?$string_output_adapter@_W@__crt_stdio_output@@@2@@__crt_stdio_output@@AEAA_NXZ 00000001800245d4     libucrt:output.obj
 0002:000095d4       $unwind$?type_case_n@?$output_processor@_WV?$string_output_adapter@_W@__crt_stdio_output@@V?$standard_base@_WV?$string_output_adapter@_W@__crt_stdio_output@@@2@@__crt_stdio_output@@AEAA_NXZ 00000001800245d4     libucrt:output.obj
 0002:000095d4       $unwind$__acrt_InitializeCriticalSectionEx 00000001800245d4     libucrt:winapi_thunks.obj
 0002:000095d4       $unwind$_RTC_Initialize    00000001800245d4     LIBCMT:_initsect_.obj
 0002:000095d4       $unwind$_RTC_Terminate     00000001800245d4     LIBCMT:_initsect_.obj
 0002:000095d4       $unwind$?type_case_n@?$output_processor@_WV?$stream_output_adapter@_W@__crt_stdio_output@@V?$standard_base@_WV?$stream_output_adapter@_W@__crt_stdio_output@@@2@@__crt_stdio_output@@AEAA_NXZ 00000001800245d4     libucrt:output.obj
 0002:000095d4       $unwind$?type_case_Z@?$output_processor@_WV?$stream_output_adapter@_W@__crt_stdio_output@@V?$standard_base@_WV?$stream_output_adapter@_W@__crt_stdio_output@@@2@@__crt_stdio_output@@AEAA_NXZ 00000001800245d4     libucrt:output.obj
 0002:000095d4       $unwind$__acrt_execute_initializers 00000001800245d4     libucrt:shared_initialization.obj
 0002:000095d4       $unwind$?type_case_s@?$output_processor@_WV?$stream_output_adapter@_W@__crt_stdio_output@@V?$standard_base@_WV?$stream_output_adapter@_W@__crt_stdio_output@@@2@@__crt_stdio_output@@AEAA_NXZ 00000001800245d4     libucrt:output.obj
 0002:000095d4       $unwind$?free_crt_array_internal@@YAXQEAPEBX_K@Z 00000001800245d4     libucrt:inittime.obj
 0002:000095d4       $unwind$__vcrt_FlsSetValue 00000001800245d4     libvcruntime:winapi_downlevel.obj
 0002:000095d4       $unwind$memcpy_s           00000001800245d4     libucrt:cfout.obj
 0002:000095e4       $unwind$?_Growmap@?$deque@PEAVThreadedCallbackInvokation@@V?$allocator@PEAVThreadedCallbackInvokation@@@std@@@std@@IEAAX_K@Z 00000001800245e4     callback_info.obj
 0002:000095f0       $chain$2$?_Growmap@?$deque@PEAVThreadedCallbackInvokation@@V?$allocator@PEAVThreadedCallbackInvokation@@@std@@@std@@IEAAX_K@Z 00000001800245f0     callback_info.obj
 0002:0000960c       $chain$4$?_Growmap@?$deque@PEAVThreadedCallbackInvokation@@V?$allocator@PEAVThreadedCallbackInvokation@@@std@@@std@@IEAAX_K@Z 000000018002460c     callback_info.obj
 0002:00009624       $chain$5$?_Growmap@?$deque@PEAVThreadedCallbackInvokation@@V?$allocator@PEAVThreadedCallbackInvokation@@@std@@@std@@IEAAX_K@Z 0000000180024624     callback_info.obj
 0002:00009634       $chain$7$?_Growmap@?$deque@PEAVThreadedCallbackInvokation@@V?$allocator@PEAVThreadedCallbackInvokation@@@std@@@std@@IEAAX_K@Z 0000000180024634     callback_info.obj
 0002:00009650       $chain$8$?_Growmap@?$deque@PEAVThreadedCallbackInvokation@@V?$allocator@PEAVThreadedCallbackInvokation@@@std@@@std@@IEAAX_K@Z 0000000180024650     callback_info.obj
 0002:00009660       $unwind$fwprintf           0000000180024660     libucrt:assert.obj
 0002:00009660       $unwind$sprintf            0000000180024660     win32-dlfcn.obj
 0002:0000966c       $unwind$UTF8toWCHAR        000000018002466c     win32-dlfcn.obj
 0002:00009678       $chain$0$UTF8toWCHAR       0000000180024678     win32-dlfcn.obj
 0002:0000968c       $chain$4$UTF8toWCHAR       000000018002468c     win32-dlfcn.obj
 0002:0000968c       $chain$2$UTF8toWCHAR       000000018002468c     win32-dlfcn.obj
 0002:000096a0       $chain$0$dlopen            00000001800246a0     win32-dlfcn.obj
 0002:000096b4       $chain$4$dlopen            00000001800246b4     win32-dlfcn.obj
 0002:000096d0       $unwind$iswctype           00000001800246d0     libucrt:iswctype.obj
 0002:000096d0       $unwind$initialize_aggregate 00000001800246d0     libffi:prep_cif.obj
 0002:000096dc       $chain$0$initialize_aggregate 00000001800246dc     libffi:prep_cif.obj
 0002:000096f0       $chain$2$initialize_aggregate 00000001800246f0     libffi:prep_cif.obj
 0002:00009704       $chain$3$initialize_aggregate 0000000180024704     libffi:prep_cif.obj
 0002:00009714       $unwind$ffi_prep_args      0000000180024714     libffi:ffi.obj
 0002:00009728       $chain$1$ffi_prep_args     0000000180024728     libffi:ffi.obj
 0002:00009740       $chain$2$ffi_prep_args     0000000180024740     libffi:ffi.obj
 0002:00009750       $unwind$ffi_call           0000000180024750     libffi:ffi.obj
 0002:00009768       $unwind$ffi_closure_win64_inner 0000000180024768     libffi:ffi.obj
 0002:0000978c       $unwind$ffi_prep_closure_loc 000000018002478c     libffi:ffi.obj
 0002:00009794       $chain$1$ffi_prep_closure_loc 0000000180024794     libffi:ffi.obj
 0002:000097ac       $chain$2$ffi_prep_closure_loc 00000001800247ac     libffi:ffi.obj
 0002:000097c0       $chain$3$ffi_prep_closure_loc 00000001800247c0     libffi:ffi.obj
 0002:000097d0       $unwind$win32munmap        00000001800247d0     libffi:closures.obj
 0002:000097dc       $unwind$init_mparams       00000001800247dc     libffi:closures.obj
 0002:000097e4       $chain$0$init_mparams      00000001800247e4     libffi:closures.obj
 0002:000097f8       $chain$1$init_mparams      00000001800247f8     libffi:closures.obj
 0002:00009808       $unwind$prepend_alloc      0000000180024808     libffi:closures.obj
 0002:00009820       $unwind$add_segment        0000000180024820     libffi:closures.obj
 0002:00009838       $unwind$sys_alloc          0000000180024838     libffi:closures.obj
 0002:00009844       $chain$0$sys_alloc         0000000180024844     libffi:closures.obj
 0002:00009858       $chain$6$sys_alloc         0000000180024858     libffi:closures.obj
 0002:00009858       $chain$4$sys_alloc         0000000180024858     libffi:closures.obj
 0002:00009858       $chain$2$sys_alloc         0000000180024858     libffi:closures.obj
 0002:0000986c       $chain$5$sys_alloc         000000018002486c     libffi:closures.obj
 0002:0000987c       $unwind$??R<lambda_f03950bc5685219e0bcd2087efbe011e>@@QEBAHXZ 000000018002487c     libucrt:onexit.obj
 0002:0000987c       $unwind$release_unused_segments 000000018002487c     libffi:closures.obj
 0002:0000987c       $unwind$?try_get_function@@YAPEAXW4function_id@?A0x391cf84c@@QEBDQEBW4module_id@2@2@Z 000000018002487c     libucrt:winapi_thunks.obj
 0002:0000987c       $unwind$?try_get_function@@YAPEAXW4function_id@?A0x37284e77@@QEBDQEBW4module_id@2@2@Z 000000018002487c     libvcruntime:winapi_downlevel.obj
 0002:00009898       $unwind$sys_trim           0000000180024898     libffi:closures.obj
 0002:000098a8       $chain$1$sys_trim          00000001800248a8     libffi:closures.obj
 0002:000098c0       $chain$2$sys_trim          00000001800248c0     libffi:closures.obj
 0002:000098d0       $unwind$tmalloc_small      00000001800248d0     libffi:closures.obj
 0002:000098dc       $chain$1$tmalloc_small     00000001800248dc     libffi:closures.obj
 0002:000098f0       $chain$3$tmalloc_small     00000001800248f0     libffi:closures.obj
 0002:00009904       $chain$4$tmalloc_small     0000000180024904     libffi:closures.obj
 0002:00009914       $unwind$dlmalloc           0000000180024914     libffi:closures.obj
 0002:00009924       $chain$3$dlfree            0000000180024924     libffi:closures.obj
 0002:00009944       $chain$4$dlfree            0000000180024944     libffi:closures.obj
 0002:00009954       $chain$5$dlfree            0000000180024954     libffi:closures.obj
 0002:00009978       $xdatasym                  0000000180024978     libffi:win64.obj
 0002:0000998c       $unwind$strtol             000000018002498c     libucrt:strtox.obj
 0002:0000998c       $unwind$wcstol             000000018002498c     libucrt:strtox.obj
 0002:0000998c       $unwind$??$common_xtox_s@K_W@@YAHKQEA_W_KI_N@Z 000000018002498c     libucrt:xtoa.obj
 0002:0000998c       $unwind$??0length_error@std@@QEAA@PEBD@Z 000000018002498c     libcpmt:xthrow.obj
 0002:00009998       $xdatasym                  0000000180024998     LIBCMT:_amdsecgs_.obj
 0002:0000999c       $unwind$__scrt_is_nonwritable_in_current_image 000000018002499c     LIBCMT:utility.obj
 0002:000099bc       $unwind$__scrt_is_nonwritable_in_current_image$filt$0 00000001800249bc     LIBCMT:utility.obj
 0002:000099c4       $unwind$__scrt_initialize_onexit_tables 00000001800249c4     LIBCMT:utility.obj
 0002:000099d0       $unwind$?dllmain_crt_process_attach@@YAHQEAUHINSTANCE__@@QEAX@Z 00000001800249d0     LIBCMT:dll_dllmain.obj
 0002:000099fc       $unwind$?dllmain_crt_process_detach@@YAH_N@Z 00000001800249fc     LIBCMT:dll_dllmain.obj
 0002:00009a24       $unwind$?setSBCS@@YAXPEAU__crt_multibyte_data@@@Z 0000000180024a24     libucrt:mbctype.obj
 0002:00009a24       $unwind$_initterm          0000000180024a24     libucrt:initterm.obj
 0002:00009a24       $unwind$?dllmain_raw@@YAHQEAUHINSTANCE__@@KQEAX@Z 0000000180024a24     LIBCMT:dll_dllmain.obj
 0002:00009a24       $unwind$__scrt_dllmain_exception_filter 0000000180024a24     LIBCMT:utility.obj
 0002:00009a24       $unwind$__acrt_lowio_create_handle_array 0000000180024a24     libucrt:osfinfo.obj
 0002:00009a24       $unwind$??$ensure_buffer_is_big_enough@D@formatting_buffer@__crt_stdio_output@@QEAA_N_K@Z 0000000180024a24     libucrt:output.obj
 0002:00009a24       $unwind$__acrt_free_locale 0000000180024a24     libucrt:locale_refcounting.obj
 0002:00009a24       $unwind$__acrt_show_wide_message_box 0000000180024a24     libucrt:crtmbox.obj
 0002:00009a24       $unwind$_seh_filter_exe    0000000180024a24     libucrt:exception_filter.obj
 0002:00009a24       $unwind$_wassert           0000000180024a24     libucrt:assert.obj
 0002:00009a24       $unwind$_recalloc_base     0000000180024a24     libucrt:recalloc.obj
 0002:00009a24       $unwind$__vcrt_InitializeCriticalSectionEx 0000000180024a24     libvcruntime:winapi_downlevel.obj
 0002:00009a38       $unwind$?dllmain_dispatch@@YAHQEAUHINSTANCE__@@KQEAX@Z 0000000180024a38     LIBCMT:dll_dllmain.obj
 0002:00009a60       $unwind$?filt$0@?0??dllmain_dispatch@@YAHQEAUHINSTANCE__@@KQEAX@Z@4HA 0000000180024a60     LIBCMT:dll_dllmain.obj
 0002:00009a68       $xdatasym                  0000000180024a68     LIBCMT:_chkstk_.obj
 0002:00009a70       $unwind$__report_securityfailure 0000000180024a70     LIBCMT:gs_report.obj
 0002:00009a78       $unwind$__report_gsfailure 0000000180024a78     LIBCMT:gs_report.obj
 0002:00009a80       $unwind$capture_current_context 0000000180024a80     LIBCMT:gs_report.obj
 0002:00009a8c       $unwind$capture_previous_context 0000000180024a8c     LIBCMT:gs_report.obj
 0002:00009a98       $unwind$?__scrt_throw_std_bad_alloc@@YAXXZ 0000000180024a98     LIBCMT:throw_bad_alloc.obj
 0002:00009a98       $unwind$?_Xbad_alloc@std@@YAXXZ 0000000180024a98     libcpmt:xthrow.obj
 0002:00009a98       $unwind$_raise_exc         0000000180024a98     libucrt:fpexcept.obj
 0002:00009a98       $unwind$?__scrt_throw_std_bad_array_new_length@@YAXXZ 0000000180024a98     LIBCMT:throw_bad_alloc.obj
 0002:00009a98       $unwind$?_Xlength_error@std@@YAXPEBD@Z 0000000180024a98     libcpmt:xthrow.obj
 0002:00009aa0       $unwind$__isa_available_init 0000000180024aa0     LIBCMT:_cpu_disp_.obj
 0002:00009ab4       $unwind$__scrt_fastfail    0000000180024ab4     LIBCMT:utility_desktop.obj
 0002:00009ac4       $unwind$__security_init_cookie 0000000180024ac4     LIBCMT:gs_support.obj
 0002:00009ad0       $xdatasym                  0000000180024ad0     LIBCMT:_guard_dispatch_.obj
 0002:00009ad8       $xdatasym                  0000000180024ad8     libvcruntime:memcpy.obj
 0002:00009adc       $unwind$?initialize_stdio_handles_nolock@@YAXXZ 0000000180024adc     libucrt:ioinit.obj
 0002:00009adc       $unwind$__std_exception_copy 0000000180024adc     libvcruntime:std_exception.obj
 0002:00009af0       $unwind$_CxxThrowException 0000000180024af0     libvcruntime:throw.obj
 0002:00009b04       $unwind$__C_specific_handler 0000000180024b04     libvcruntime:_chandler_.obj
 0002:00009b20       $xdatasym                  0000000180024b20     libvcruntime:memset.obj
 0002:00009b28       $xdatasym                  0000000180024b28     libvcruntime:_jmpuwind_.obj
 0002:00009b3c       $unwind$swprintf           0000000180024b3c     libucrt:assert.obj
 0002:00009b4c       $unwind$??$common_assert_to_stderr@_W@@YAXQEB_W0I@Z 0000000180024b4c     libucrt:assert.obj
 0002:00009b68       $unwind$??$common_assert_to_message_box@_W@@YAXQEB_W0IQEAX@Z 0000000180024b68     libucrt:assert.obj
 0002:00009b84       $unwind$??$common_assert_to_message_box_build_string@_W@@YAXQEA_W_KQEB_W2IQEAX@Z 0000000180024b84     libucrt:assert.obj
 0002:00009ba4       $unwind$__acrt_call_reportfault 0000000180024ba4     libucrt:invalid_parameter.obj
 0002:00009bc4       $unwind$__stdio_common_vfwprintf 0000000180024bc4     libucrt:output.obj
 0002:00009bcc       $unwind$??$common_vsprintf@Vstandard_base@__crt_stdio_output@@_W@@YAH_KQEA_W0QEB_WQEAU__crt_locale_pointers@@QEAD@Z 0000000180024bcc     libucrt:output.obj
 0002:00009bcc       $unwind$??$common_vsprintf@Vstandard_base@__crt_stdio_output@@D@@YAH_KQEAD0QEBDQEAU__crt_locale_pointers@@1@Z 0000000180024bcc     libucrt:output.obj
 0002:00009bec       $unwind$?write_string_impl@?$output_adapter_common@_WV?$stream_output_adapter@_W@__crt_stdio_output@@@__crt_stdio_output@@IEBAXQEB_WHQEAHAEAV__crt_deferred_errno_cache@@@Z 0000000180024bec     libucrt:output.obj
 0002:00009c04       $unwind$?state_case_type@?$output_processor@_WV?$stream_output_adapter@_W@__crt_stdio_output@@V?$standard_base@_WV?$stream_output_adapter@_W@__crt_stdio_output@@@2@@__crt_stdio_output@@AEAA_NXZ 0000000180024c04     libucrt:output.obj
 0002:00009c24       $unwind$?type_case_a@?$output_processor@_WV?$stream_output_adapter@_W@__crt_stdio_output@@V?$standard_base@_WV?$stream_output_adapter@_W@__crt_stdio_output@@@2@@__crt_stdio_output@@AEAA_NXZ 0000000180024c24     libucrt:output.obj
 0002:00009c24       $unwind$?type_case_a@?$output_processor@_WV?$string_output_adapter@_W@__crt_stdio_output@@V?$standard_base@_WV?$string_output_adapter@_W@__crt_stdio_output@@@2@@__crt_stdio_output@@AEAA_NXZ 0000000180024c24     libucrt:output.obj
 0002:00009c34       $unwind$?write_stored_string_tchar@?$output_processor@_WV?$stream_output_adapter@_W@__crt_stdio_output@@V?$standard_base@_WV?$stream_output_adapter@_W@__crt_stdio_output@@@2@@__crt_stdio_output@@AEAA_N_W@Z 0000000180024c34     libucrt:output.obj
 0002:00009c48       $unwind$??R<lambda_a775ed57af18ba8e4d5dc780aa9068fe>@@QEBAHXZ 0000000180024c48     libucrt:output.obj
 0002:00009c68       $unwind$?process@?$output_processor@DV?$string_output_adapter@D@__crt_stdio_output@@V?$standard_base@DV?$string_output_adapter@D@__crt_stdio_output@@@2@@__crt_stdio_output@@QEAAHXZ 0000000180024c68     libucrt:output.obj
 0002:00009c78       $unwind$?parse_int_from_format_string@?$output_processor@DV?$string_output_adapter@D@__crt_stdio_output@@V?$standard_base@DV?$string_output_adapter@D@__crt_stdio_output@@@2@@__crt_stdio_output@@AEAA_NQEAH@Z 0000000180024c78     libucrt:output.obj
 0002:00009c8c       $unwind$?state_case_type@?$output_processor@DV?$string_output_adapter@D@__crt_stdio_output@@V?$standard_base@DV?$string_output_adapter@D@__crt_stdio_output@@@2@@__crt_stdio_output@@AEAA_NXZ 0000000180024c8c     libucrt:output.obj
 0002:00009ca4       $unwind$?write_stored_string_tchar@?$output_processor@DV?$string_output_adapter@D@__crt_stdio_output@@V?$standard_base@DV?$string_output_adapter@D@__crt_stdio_output@@@2@@__crt_stdio_output@@AEAA_ND@Z 0000000180024ca4     libucrt:output.obj
 0002:00009cbc       $unwind$?write_string@?$string_output_adapter@_W@__crt_stdio_output@@QEBAXQEB_WHQEAHAEAV__crt_deferred_errno_cache@@@Z 0000000180024cbc     libucrt:output.obj
 0002:00009cd4       $unwind$__acrt_initialize_stdio 0000000180024cd4     libucrt:_file.obj
 0002:00009cd4       $unwind$?process@?$output_processor@_WV?$stream_output_adapter@_W@__crt_stdio_output@@V?$standard_base@_WV?$stream_output_adapter@_W@__crt_stdio_output@@@2@@__crt_stdio_output@@QEAAHXZ 0000000180024cd4     libucrt:output.obj
 0002:00009cd4       $unwind$?process@?$output_processor@_WV?$string_output_adapter@_W@__crt_stdio_output@@V?$standard_base@_WV?$string_output_adapter@_W@__crt_stdio_output@@@2@@__crt_stdio_output@@QEAAHXZ 0000000180024cd4     libucrt:output.obj
 0002:00009cec       $unwind$?parse_int_from_format_string@?$output_processor@_WV?$stream_output_adapter@_W@__crt_stdio_output@@V?$standard_base@_WV?$stream_output_adapter@_W@__crt_stdio_output@@@2@@__crt_stdio_output@@AEAA_NQEAH@Z 0000000180024cec     libucrt:output.obj
 0002:00009cec       $unwind$?parse_int_from_format_string@?$output_processor@_WV?$string_output_adapter@_W@__crt_stdio_output@@V?$standard_base@_WV?$string_output_adapter@_W@__crt_stdio_output@@@2@@__crt_stdio_output@@AEAA_NQEAH@Z 0000000180024cec     libucrt:output.obj
 0002:00009d00       $unwind$?state_case_type@?$output_processor@_WV?$string_output_adapter@_W@__crt_stdio_output@@V?$standard_base@_WV?$string_output_adapter@_W@__crt_stdio_output@@@2@@__crt_stdio_output@@AEAA_NXZ 0000000180024d00     libucrt:output.obj
 0002:00009d24       $unwind$?write_stored_string_tchar@?$output_processor@_WV?$string_output_adapter@_W@__crt_stdio_output@@V?$standard_base@_WV?$string_output_adapter@_W@__crt_stdio_output@@@2@@__crt_stdio_output@@AEAA_N_W@Z 0000000180024d24     libucrt:output.obj
 0002:00009d38       $unwind$??$write_multiple_characters@V?$string_output_adapter@_W@__crt_stdio_output@@D@__crt_stdio_output@@YAXAEBV?$string_output_adapter@_W@0@DHQEAH@Z 0000000180024d38     libucrt:output.obj
 0002:00009d44       $unwind$??$type_case_integer_parse_into_buffer@I@?$output_processor@DV?$string_output_adapter@D@__crt_stdio_output@@V?$standard_base@DV?$string_output_adapter@D@__crt_stdio_output@@@2@@__crt_stdio_output@@AEAAXII_N@Z 0000000180024d44     libucrt:output.obj
 0002:00009d44       $unwind$??$type_case_integer_parse_into_buffer@_K@?$output_processor@_WV?$stream_output_adapter@_W@__crt_stdio_output@@V?$standard_base@_WV?$stream_output_adapter@_W@__crt_stdio_output@@@2@@__crt_stdio_output@@AEAAX_KI_N@Z 0000000180024d44     libucrt:output.obj
 0002:00009d44       $unwind$??$write_multiple_characters@V?$string_output_adapter@D@__crt_stdio_output@@D@__crt_stdio_output@@YAXAEBV?$string_output_adapter@D@0@DHQEAH@Z 0000000180024d44     libucrt:output.obj
 0002:00009d44       $unwind$??$type_case_integer_parse_into_buffer@_K@?$output_processor@_WV?$string_output_adapter@_W@__crt_stdio_output@@V?$standard_base@_WV?$string_output_adapter@_W@__crt_stdio_output@@@2@@__crt_stdio_output@@AEAAX_KI_N@Z 0000000180024d44     libucrt:output.obj
 0002:00009d44       $unwind$??$type_case_integer_parse_into_buffer@I@?$output_processor@_WV?$string_output_adapter@_W@__crt_stdio_output@@V?$standard_base@_WV?$string_output_adapter@_W@__crt_stdio_output@@@2@@__crt_stdio_output@@AEAAXII_N@Z 0000000180024d44     libucrt:output.obj
 0002:00009d44       $unwind$??$type_case_integer_parse_into_buffer@I@?$output_processor@_WV?$stream_output_adapter@_W@__crt_stdio_output@@V?$standard_base@_WV?$stream_output_adapter@_W@__crt_stdio_output@@@2@@__crt_stdio_output@@AEAAXII_N@Z 0000000180024d44     libucrt:output.obj
 0002:00009d44       $unwind$??$type_case_integer_parse_into_buffer@_K@?$output_processor@DV?$string_output_adapter@D@__crt_stdio_output@@V?$standard_base@DV?$string_output_adapter@D@__crt_stdio_output@@@2@@__crt_stdio_output@@AEAAX_KI_N@Z 0000000180024d44     libucrt:output.obj
 0002:00009d4c       $unwind$?write_string@?$string_output_adapter@D@__crt_stdio_output@@QEBAXQEBDHQEAHAEAV__crt_deferred_errno_cache@@@Z 0000000180024d4c     libucrt:output.obj
 0002:00009d4c       $unwind$??$write_multiple_characters@V?$stream_output_adapter@_W@__crt_stdio_output@@D@__crt_stdio_output@@YAXAEBV?$stream_output_adapter@_W@0@DHQEAH@Z 0000000180024d4c     libucrt:output.obj
 0002:00009d64       $unwind$??$?RV<lambda_0d412022a4b28cc8a401ea49574e8ae6>@@AEAV<lambda_a775ed57af18ba8e4d5dc780aa9068fe>@@V<lambda_975a71a6baa488a08f4e15f6b0339b9e>@@@?$__crt_seh_guarded_call@H@@QEAAH$$QEAV<lambda_0d412022a4b28cc8a401ea49574e8ae6>@@AEAV<lambda_a775ed57af18ba8e4d5dc780aa9068fe>@@$$QEAV<lambda_975a71a6baa488a08f4e15f6b0339b9e>@@@Z 0000000180024d64     libucrt:output.obj
 0002:00009d88       $unwind$_query_new_handler 0000000180024d88     libucrt:new_handler.obj
 0002:00009da8       $unwind$?common_exit@@YAXHW4_crt_exit_cleanup_mode@@W4_crt_exit_return_mode@@@Z 0000000180024da8     libucrt:exit.obj
 0002:00009db4       $unwind$??R<lambda_6e4b09c48022b2350581041d5f6b0c4c>@@QEBA@XZ 0000000180024db4     libucrt:exit.obj
 0002:00009dd4       $unwind$??$?RV<lambda_d80eeec6fff315bfe5c115232f3240e3>@@AEAV<lambda_6e4b09c48022b2350581041d5f6b0c4c>@@V<lambda_2358e3775559c9db80273638284d5e45>@@@?$__crt_seh_guarded_call@X@@QEAAX$$QEAV<lambda_d80eeec6fff315bfe5c115232f3240e3>@@AEAV<lambda_6e4b09c48022b2350581041d5f6b0c4c>@@$$QEAV<lambda_2358e3775559c9db80273638284d5e45>@@@Z 0000000180024dd4     libucrt:exit.obj
 0002:00009df8       $unwind$_configure_narrow_argv 0000000180024df8     libucrt:argv_parsing.obj
 0002:00009e0c       $unwind$??$free_environment@_W@@YAXQEAPEA_W@Z 0000000180024e0c     libucrt:environment_initialization.obj
 0002:00009e0c       $unwind$??$free_environment@D@@YAXQEAPEAD@Z 0000000180024e0c     libucrt:environment_initialization.obj
 0002:00009e18       $unwind$??$create_environment@D@@YAQEAPEADQEAD@Z 0000000180024e18     libucrt:environment_initialization.obj
 0002:00009e30       $unwind$_register_onexit_function 0000000180024e30     libucrt:onexit.obj
 0002:00009e38       $unwind$_execute_onexit_table 0000000180024e38     libucrt:onexit.obj
 0002:00009e40       $unwind$??$parse_command_line@D@@YAXPEADPEAPEAD0PEA_K2@Z 0000000180024e40     libucrt:argv_parsing.obj
 0002:00009e40       $unwind$??R<lambda_a10e4b102d4a2c3aac6f4f48bbdf488f>@@QEBAHXZ 0000000180024e40     libucrt:onexit.obj
 0002:00009e5c       $unwind$??$?RV<lambda_8369fcb7c4df1e85de37618bd2b85f07>@@AEAV<lambda_a10e4b102d4a2c3aac6f4f48bbdf488f>@@V<lambda_5b7707bd6d7a0c4713179f36c7fd995d>@@@?$__crt_seh_guarded_call@H@@QEAAH$$QEAV<lambda_8369fcb7c4df1e85de37618bd2b85f07>@@AEAV<lambda_a10e4b102d4a2c3aac6f4f48bbdf488f>@@$$QEAV<lambda_5b7707bd6d7a0c4713179f36c7fd995d>@@@Z 0000000180024e5c     libucrt:onexit.obj
 0002:00009e80       $unwind$??$?RV<lambda_7777bce6b2f8c936911f934f8298dc43>@@AEAV<lambda_f03950bc5685219e0bcd2087efbe011e>@@V<lambda_3883c3dff614d5e0c5f61bb1ac94921c>@@@?$__crt_seh_guarded_call@H@@QEAAH$$QEAV<lambda_7777bce6b2f8c936911f934f8298dc43>@@AEAV<lambda_f03950bc5685219e0bcd2087efbe011e>@@$$QEAV<lambda_3883c3dff614d5e0c5f61bb1ac94921c>@@@Z 0000000180024e80     libucrt:onexit.obj
 0002:00009ea4       $unwind$raise$fin$0        0000000180024ea4     libucrt:signal.obj
 0002:00009ea4       $unwind$_write$fin$0       0000000180024ea4     libucrt:write.obj
 0002:00009ea4       $unwind$__acrt_update_thread_locale_data$fin$0 0000000180024ea4     libucrt:locale_refcounting.obj
 0002:00009ea4       $unwind$_ctrlfp$filt$0     0000000180024ea4     libucrt:fpctrl.obj
 0002:00009ea4       $unwind$_query_new_handler$fin$0 0000000180024ea4     libucrt:new_handler.obj
 0002:00009ea4       $unwind$?fin$0@?0???$?RV<lambda_0ae27a3a962d80f24befdcbee591983d>@@AEAV<lambda_8d0ee55de4b1038c4002e0adecdf1839>@@V<lambda_dc504788e8f1664fe9b84e20bfb512f2>@@@?$__crt_seh_guarded_call@X@@QEAAX$$QEAV<lambda_0ae27a3a962d80f24befdcbee591983d>@@AEAV<lambda_8d0ee55de4b1038c4002e0adecdf1839>@@$$QEAV<lambda_dc504788e8f1664fe9b84e20bfb512f2>@@@Z@4HA 0000000180024ea4     libucrt:per_thread_data.obj
 0002:00009ea4       $unwind$?fin$0@?0???$?RV<lambda_d80eeec6fff315bfe5c115232f3240e3>@@AEAV<lambda_6e4b09c48022b2350581041d5f6b0c4c>@@V<lambda_2358e3775559c9db80273638284d5e45>@@@?$__crt_seh_guarded_call@X@@QEAAX$$QEAV<lambda_d80eeec6fff315bfe5c115232f3240e3>@@AEAV<lambda_6e4b09c48022b2350581041d5f6b0c4c>@@$$QEAV<lambda_2358e3775559c9db80273638284d5e45>@@@Z@4HA 0000000180024ea4     libucrt:exit.obj
 0002:00009ea4       $unwind$?fin$0@?0???$?RV<lambda_c376a267cfb53b6959b3b692ec76b120>@@AEAV<lambda_9a32fed5bf61b6b509b2d3f6003082a1>@@V<lambda_572fbb9fa0ab338edf41edfd4b5fcc8d>@@@?$__crt_seh_guarded_call@H@@QEAAH$$QEAV<lambda_c376a267cfb53b6959b3b692ec76b120>@@AEAV<lambda_9a32fed5bf61b6b509b2d3f6003082a1>@@$$QEAV<lambda_572fbb9fa0ab338edf41edfd4b5fcc8d>@@@Z@4HA 0000000180024ea4     libucrt:fflush.obj
 0002:00009ea4       $unwind$_fcloseall$fin$0   0000000180024ea4     libucrt:closeall.obj
 0002:00009ea4       $unwind$?fin$0@?0???$?RV<lambda_886d6c58226a84441f68b9f2b8217b83>@@AEAV<lambda_ab61a845afdef5b7c387490eaf3616ee>@@V<lambda_f7f22ab5edc0698d5f6905b0d3f44752>@@@?$__crt_seh_guarded_call@X@@QEAAX$$QEAV<lambda_886d6c58226a84441f68b9f2b8217b83>@@AEAV<lambda_ab61a845afdef5b7c387490eaf3616ee>@@$$QEAV<lambda_f7f22ab5edc0698d5f6905b0d3f44752>@@@Z@4HA 0000000180024ea4     libucrt:fflush.obj
 0002:00009ea4       $unwind$?fin$0@?0???$?RV<lambda_410d79af7f07d98d83a3f525b3859a53>@@AEAV<lambda_3e16ef9562a7dcce91392c22ab16ea36>@@V<lambda_38119f0e861e05405d8a144b9b982f0a>@@@?$__crt_seh_guarded_call@X@@QEAAX$$QEAV<lambda_410d79af7f07d98d83a3f525b3859a53>@@AEAV<lambda_3e16ef9562a7dcce91392c22ab16ea36>@@$$QEAV<lambda_38119f0e861e05405d8a144b9b982f0a>@@@Z@4HA 0000000180024ea4     libucrt:wsetlocale.obj
 0002:00009ea4       $unwind$?fin$0@?0???$?RV<lambda_8369fcb7c4df1e85de37618bd2b85f07>@@AEAV<lambda_a10e4b102d4a2c3aac6f4f48bbdf488f>@@V<lambda_5b7707bd6d7a0c4713179f36c7fd995d>@@@?$__crt_seh_guarded_call@H@@QEAAH$$QEAV<lambda_8369fcb7c4df1e85de37618bd2b85f07>@@AEAV<lambda_a10e4b102d4a2c3aac6f4f48bbdf488f>@@$$QEAV<lambda_5b7707bd6d7a0c4713179f36c7fd995d>@@@Z@4HA 0000000180024ea4     libucrt:onexit.obj
 0002:00009ea4       $unwind$?fin$0@?0??dllmain_crt_process_attach@@YAHQEAUHINSTANCE__@@QEAX@Z@4HA 0000000180024ea4     LIBCMT:dll_dllmain.obj
 0002:00009ea4       $unwind$?fin$0@?0???$?RV<lambda_f2e299630e499de9f9a165e60fcd3db5>@@AEAV<lambda_2ae9d31cdba2644fcbeaf08da7c24588>@@V<lambda_40d01ff24d0e7b3814fdbdcee8eab3c7>@@@?$__crt_seh_guarded_call@X@@QEAAX$$QEAV<lambda_f2e299630e499de9f9a165e60fcd3db5>@@AEAV<lambda_2ae9d31cdba2644fcbeaf08da7c24588>@@$$QEAV<lambda_40d01ff24d0e7b3814fdbdcee8eab3c7>@@@Z@4HA 0000000180024ea4     libucrt:per_thread_data.obj
 0002:00009ea4       $unwind$?fin$0@?0??update_thread_multibyte_data_internal@@YAPEAU__crt_multibyte_data@@QEAU__acrt_ptd@@QEAU1@@Z@4HA 0000000180024ea4     libucrt:mbctype.obj
 0002:00009ea4       $unwind$?fin$0@?0???$?RV<lambda_842d9ff0dc9ef11c61343bbaebe7f885>@@AEAV<lambda_c5860995281e5c4ce005b3de8f5874ee>@@V<lambda_d90129c13df834fdcbf8d2b88dafcf2d>@@@?$__crt_seh_guarded_call@X@@QEAAX$$QEAV<lambda_842d9ff0dc9ef11c61343bbaebe7f885>@@AEAV<lambda_c5860995281e5c4ce005b3de8f5874ee>@@$$QEAV<lambda_d90129c13df834fdcbf8d2b88dafcf2d>@@@Z@4HA 0000000180024ea4     libucrt:fflush.obj
 0002:00009ea4       $unwind$fclose$fin$0       0000000180024ea4     libucrt:fclose.obj
 0002:00009ea4       $unwind$?fin$0@?0???$?RV<lambda_2d41944a1d46af3157314b8a01080d33>@@AEAV<lambda_8f455de75cd7d7f24b4096f044d8b9e6>@@V<lambda_aa500f224e6afead328df44964fe2772>@@@?$__crt_seh_guarded_call@X@@QEAAX$$QEAV<lambda_2d41944a1d46af3157314b8a01080d33>@@AEAV<lambda_8f455de75cd7d7f24b4096f044d8b9e6>@@$$QEAV<lambda_aa500f224e6afead328df44964fe2772>@@@Z@4HA 0000000180024ea4     libucrt:per_thread_data.obj
 0002:00009ea4       $unwind$?fin$0@?0??dllmain_crt_process_detach@@YAH_N@Z@4HA 0000000180024ea4     LIBCMT:dll_dllmain.obj
 0002:00009ea4       $unwind$__acrt_lowio_ensure_fh_exists$fin$0 0000000180024ea4     libucrt:osfinfo.obj
 0002:00009ea4       $unwind$?fin$0@?0???$?RV<lambda_751a882b2c74d4b022dec766aa51a29a>@@AEAV<lambda_628dfdc04ba53c8bfc02c9951375f3f5>@@V<lambda_f6c7be5f7998530c34de24c7437d6b54>@@@?$__crt_seh_guarded_call@H@@QEAAH$$QEAV<lambda_751a882b2c74d4b022dec766aa51a29a>@@AEAV<lambda_628dfdc04ba53c8bfc02c9951375f3f5>@@$$QEAV<lambda_f6c7be5f7998530c34de24c7437d6b54>@@@Z@4HA 0000000180024ea4     libucrt:close.obj
 0002:00009ea4       $unwind$?fin$0@?0???$?RV<lambda_efdfa57d1f175319df784efa44bb7b81>@@AEAV<lambda_5f0a4c1567f8adc6734073e5d1e1b35c>@@V<lambda_2e8a7d3640ea6ccb4c2413664c2db6fd>@@@?$__crt_seh_guarded_call@X@@QEAAX$$QEAV<lambda_efdfa57d1f175319df784efa44bb7b81>@@AEAV<lambda_5f0a4c1567f8adc6734073e5d1e1b35c>@@$$QEAV<lambda_2e8a7d3640ea6ccb4c2413664c2db6fd>@@@Z@4HA 0000000180024ea4     libucrt:mbctype.obj
 0002:00009ea4       $unwind$?fin$0@?0???$?RV<lambda_aa87e3671a710a21b5dc78c0bdf72e11>@@AEAV<lambda_92619d2358a28f41a33ba319515a20b9>@@V<lambda_6992ecaafeb10aed2b74cb1fae11a551>@@@?$__crt_seh_guarded_call@X@@QEAAX$$QEAV<lambda_aa87e3671a710a21b5dc78c0bdf72e11>@@AEAV<lambda_92619d2358a28f41a33ba319515a20b9>@@$$QEAV<lambda_6992ecaafeb10aed2b74cb1fae11a551>@@@Z@4HA 0000000180024ea4     libucrt:per_thread_data.obj
 0002:00009ea4       $unwind$?fin$0@?0???$?RV<lambda_7777bce6b2f8c936911f934f8298dc43>@@AEAV<lambda_f03950bc5685219e0bcd2087efbe011e>@@V<lambda_3883c3dff614d5e0c5f61bb1ac94921c>@@@?$__crt_seh_guarded_call@H@@QEAAH$$QEAV<lambda_7777bce6b2f8c936911f934f8298dc43>@@AEAV<lambda_f03950bc5685219e0bcd2087efbe011e>@@$$QEAV<lambda_3883c3dff614d5e0c5f61bb1ac94921c>@@@Z@4HA 0000000180024ea4     libucrt:onexit.obj
 0002:00009ea4       $unwind$_IsNonwritableInCurrentImage$filt$0 0000000180024ea4     LIBCMT:pesect.obj
 0002:00009ea4       $unwind$?fin$0@?0???$?RV<lambda_450d765d439847d4c735a33c368b5fc0>@@AEAV<lambda_44731a7d0e6d81c3e6aa82d741081786>@@V<lambda_601a2a7da3b7a96e9554ac7215c4b07c>@@@?$__crt_seh_guarded_call@P6AXH@Z@@QEAAP6AXH@Z$$QEAV<lambda_450d765d439847d4c735a33c368b5fc0>@@AEAV<lambda_44731a7d0e6d81c3e6aa82d741081786>@@$$QEAV<lambda_601a2a7da3b7a96e9554ac7215c4b07c>@@@Z@4HA 0000000180024ea4     libucrt:signal.obj
 0002:00009ea4       $unwind$?fin$0@?0???$?RV<lambda_84ec643ea9557e2f7dc01bb0e9624395>@@AEAV<lambda_ca71763b3c0644891230e4f79ea54fa6>@@V<lambda_439a761618c59b0600e24586724d733b>@@@?$__crt_seh_guarded_call@H@@QEAAH$$QEAV<lambda_84ec643ea9557e2f7dc01bb0e9624395>@@AEAV<lambda_ca71763b3c0644891230e4f79ea54fa6>@@$$QEAV<lambda_439a761618c59b0600e24586724d733b>@@@Z@4HA 0000000180024ea4     libucrt:setvbuf.obj
 0002:00009ea4       $unwind$?fin$0@?0???$?RV<lambda_0d412022a4b28cc8a401ea49574e8ae6>@@AEAV<lambda_a775ed57af18ba8e4d5dc780aa9068fe>@@V<lambda_975a71a6baa488a08f4e15f6b0339b9e>@@@?$__crt_seh_guarded_call@H@@QEAAH$$QEAV<lambda_0d412022a4b28cc8a401ea49574e8ae6>@@AEAV<lambda_a775ed57af18ba8e4d5dc780aa9068fe>@@$$QEAV<lambda_975a71a6baa488a08f4e15f6b0339b9e>@@@Z@4HA 0000000180024ea4     libucrt:output.obj
 0002:00009ea4       $unwind$?fin$0@?0???$?RV<lambda_a37b2b86f63e897a80ea819b0eb08c01>@@AEAV<lambda_38ce7e780aa69e748d6df282ebc68efe>@@V<lambda_99fb1378e971ab6e7edea83e3a7a83a2>@@@?$__crt_seh_guarded_call@H@@QEAAH$$QEAV<lambda_a37b2b86f63e897a80ea819b0eb08c01>@@AEAV<lambda_38ce7e780aa69e748d6df282ebc68efe>@@$$QEAV<lambda_99fb1378e971ab6e7edea83e3a7a83a2>@@@Z@4HA 0000000180024ea4     libucrt:commit.obj
 0002:00009ea4       $unwind$__acrt_initialize_lowio$fin$0 0000000180024ea4     libucrt:ioinit.obj
 0002:00009ea4       $unwind$?fin$0@?0???$common_lseek@_J@@YA_JH_JH@Z@4HA 0000000180024ea4     libucrt:lseek.obj
 0002:00009ea4       $unwind$?filt$0@?0???R<lambda_6e4b09c48022b2350581041d5f6b0c4c>@@QEBA@XZ@4HA 0000000180024ea4     libucrt:exit.obj
 0002:00009eac       $unwind$terminate          0000000180024eac     libucrt:terminate.obj
 0002:00009ecc       $unwind$??$parse_integer@KV?$c_string_character_source@D@__crt_strtox@@@__crt_strtox@@YAKQEAU__crt_locale_pointers@@V?$c_string_character_source@D@0@H_N@Z 0000000180024ecc     libucrt:atox.obj
 0002:00009ee8       $unwind$??$parse_integer@KV?$c_string_character_source@_W@__crt_strtox@@@__crt_strtox@@YAKQEAU__crt_locale_pointers@@V?$c_string_character_source@_W@0@H_N@Z 0000000180024ee8     libucrt:atox.obj
 0002:00009f00       $unwind$?construct_ptd_array@@YAXQEAU__acrt_ptd@@@Z 0000000180024f00     libucrt:per_thread_data.obj
 0002:00009f08       $unwind$?destroy_ptd_array@@YAXQEAU__acrt_ptd@@@Z 0000000180024f08     libucrt:per_thread_data.obj
 0002:00009f10       $unwind$??$?RV<lambda_0ae27a3a962d80f24befdcbee591983d>@@AEAV<lambda_8d0ee55de4b1038c4002e0adecdf1839>@@V<lambda_dc504788e8f1664fe9b84e20bfb512f2>@@@?$__crt_seh_guarded_call@X@@QEAAX$$QEAV<lambda_0ae27a3a962d80f24befdcbee591983d>@@AEAV<lambda_8d0ee55de4b1038c4002e0adecdf1839>@@$$QEAV<lambda_dc504788e8f1664fe9b84e20bfb512f2>@@@Z 0000000180024f10     libucrt:per_thread_data.obj
 0002:00009f34       $unwind$??$?RV<lambda_aa87e3671a710a21b5dc78c0bdf72e11>@@AEAV<lambda_92619d2358a28f41a33ba319515a20b9>@@V<lambda_6992ecaafeb10aed2b74cb1fae11a551>@@@?$__crt_seh_guarded_call@X@@QEAAX$$QEAV<lambda_aa87e3671a710a21b5dc78c0bdf72e11>@@AEAV<lambda_92619d2358a28f41a33ba319515a20b9>@@$$QEAV<lambda_6992ecaafeb10aed2b74cb1fae11a551>@@@Z 0000000180024f34     libucrt:per_thread_data.obj
 0002:00009f58       $unwind$??$?RV<lambda_f2e299630e499de9f9a165e60fcd3db5>@@AEAV<lambda_2ae9d31cdba2644fcbeaf08da7c24588>@@V<lambda_40d01ff24d0e7b3814fdbdcee8eab3c7>@@@?$__crt_seh_guarded_call@X@@QEAAX$$QEAV<lambda_f2e299630e499de9f9a165e60fcd3db5>@@AEAV<lambda_2ae9d31cdba2644fcbeaf08da7c24588>@@$$QEAV<lambda_40d01ff24d0e7b3814fdbdcee8eab3c7>@@@Z 0000000180024f58     libucrt:per_thread_data.obj
 0002:00009f7c       $unwind$??$?RV<lambda_2d41944a1d46af3157314b8a01080d33>@@AEAV<lambda_8f455de75cd7d7f24b4096f044d8b9e6>@@V<lambda_aa500f224e6afead328df44964fe2772>@@@?$__crt_seh_guarded_call@X@@QEAAX$$QEAV<lambda_2d41944a1d46af3157314b8a01080d33>@@AEAV<lambda_8f455de75cd7d7f24b4096f044d8b9e6>@@$$QEAV<lambda_aa500f224e6afead328df44964fe2772>@@@Z 0000000180024f7c     libucrt:per_thread_data.obj
 0002:00009fa0       $unwind$?common_flush_all@@YAH_N@Z 0000000180024fa0     libucrt:fflush.obj
 0002:00009fa8       $unwind$??$?RV<lambda_842d9ff0dc9ef11c61343bbaebe7f885>@@AEAV<lambda_c5860995281e5c4ce005b3de8f5874ee>@@V<lambda_d90129c13df834fdcbf8d2b88dafcf2d>@@@?$__crt_seh_guarded_call@X@@QEAAX$$QEAV<lambda_842d9ff0dc9ef11c61343bbaebe7f885>@@AEAV<lambda_c5860995281e5c4ce005b3de8f5874ee>@@$$QEAV<lambda_d90129c13df834fdcbf8d2b88dafcf2d>@@@Z 0000000180024fa8     libucrt:fflush.obj
 0002:00009fcc       $unwind$??$?RV<lambda_886d6c58226a84441f68b9f2b8217b83>@@AEAV<lambda_ab61a845afdef5b7c387490eaf3616ee>@@V<lambda_f7f22ab5edc0698d5f6905b0d3f44752>@@@?$__crt_seh_guarded_call@X@@QEAAX$$QEAV<lambda_886d6c58226a84441f68b9f2b8217b83>@@AEAV<lambda_ab61a845afdef5b7c387490eaf3616ee>@@$$QEAV<lambda_f7f22ab5edc0698d5f6905b0d3f44752>@@@Z 0000000180024fcc     libucrt:fflush.obj
 0002:00009ff4       $unwind$??$?RV<lambda_c376a267cfb53b6959b3b692ec76b120>@@AEAV<lambda_9a32fed5bf61b6b509b2d3f6003082a1>@@V<lambda_572fbb9fa0ab338edf41edfd4b5fcc8d>@@@?$__crt_seh_guarded_call@H@@QEAAH$$QEAV<lambda_c376a267cfb53b6959b3b692ec76b120>@@AEAV<lambda_9a32fed5bf61b6b509b2d3f6003082a1>@@$$QEAV<lambda_572fbb9fa0ab338edf41edfd4b5fcc8d>@@@Z 0000000180024ff4     libucrt:fflush.obj
 0002:0000a018       $unwind$setvbuf            0000000180025018     libucrt:setvbuf.obj
 0002:0000a020       $unwind$?type_case_c_tchar@?$output_processor@_WV?$string_output_adapter@_W@__crt_stdio_output@@V?$standard_base@_WV?$string_output_adapter@_W@__crt_stdio_output@@@2@@__crt_stdio_output@@AEAA_N_W@Z 0000000180025020     libucrt:output.obj
 0002:0000a020       $unwind$?type_case_c_tchar@?$output_processor@_WV?$stream_output_adapter@_W@__crt_stdio_output@@V?$standard_base@_WV?$stream_output_adapter@_W@__crt_stdio_output@@@2@@__crt_stdio_output@@AEAA_N_W@Z 0000000180025020     libucrt:output.obj
 0002:0000a020       $unwind$??R<lambda_ca71763b3c0644891230e4f79ea54fa6>@@QEBAHXZ 0000000180025020     libucrt:setvbuf.obj
 0002:0000a030       $unwind$??$?RV<lambda_84ec643ea9557e2f7dc01bb0e9624395>@@AEAV<lambda_ca71763b3c0644891230e4f79ea54fa6>@@V<lambda_439a761618c59b0600e24586724d733b>@@@?$__crt_seh_guarded_call@H@@QEAAH$$QEAV<lambda_84ec643ea9557e2f7dc01bb0e9624395>@@AEAV<lambda_ca71763b3c0644891230e4f79ea54fa6>@@$$QEAV<lambda_439a761618c59b0600e24586724d733b>@@@Z 0000000180025030     libucrt:setvbuf.obj
 0002:0000a054       $unwind$__acrt_get_sigabrt_handler 0000000180025054     libucrt:signal.obj
 0002:0000a054       $unwind$__acrt_uninitialize_locale 0000000180025054     libucrt:wsetlocale.obj
 0002:0000a05c       $unwind$raise              000000018002505c     libucrt:signal.obj
 0002:0000a088       $unwind$??$?RV<lambda_450d765d439847d4c735a33c368b5fc0>@@AEAV<lambda_44731a7d0e6d81c3e6aa82d741081786>@@V<lambda_601a2a7da3b7a96e9554ac7215c4b07c>@@@?$__crt_seh_guarded_call@P6AXH@Z@@QEAAP6AXH@Z$$QEAV<lambda_450d765d439847d4c735a33c368b5fc0>@@AEAV<lambda_44731a7d0e6d81c3e6aa82d741081786>@@$$QEAV<lambda_601a2a7da3b7a96e9554ac7215c4b07c>@@@Z 0000000180025088     libucrt:signal.obj
 0002:0000a0ac       $unwind$_tolower_l         00000001800250ac     libucrt:tolower_toupper.obj
 0002:0000a0bc       $unwind$_mbtowc_l          00000001800250bc     libucrt:mbtowc.obj
 0002:0000a0d4       $unwind$wctomb_s           00000001800250d4     libucrt:wctomb.obj
 0002:0000a0d4       $unwind$_itow_s            00000001800250d4     libucrt:xtoa.obj
 0002:0000a0d4       $unwind$_invalid_parameter_noinfo_noreturn 00000001800250d4     libucrt:invalid_parameter.obj
 0002:0000a0d4       $unwind$fflush             00000001800250d4     libucrt:fflush.obj
 0002:0000a0d4       $unwind$_invalid_parameter_noinfo 00000001800250d4     libucrt:invalid_parameter.obj
 0002:0000a0d4       $unwind$_log10_special     00000001800250d4     libucrt:log_special.obj
 0002:0000a0dc       $unwind$_wctomb_s_l        00000001800250dc     libucrt:wctomb.obj
 0002:0000a0ec       $unwind$__acrt_fp_format   00000001800250ec     libucrt:cvt.obj
 0002:0000a108       $unwind$?fp_format_nan_or_infinity@@YAHW4__acrt_fp_class@@_NPEAD_K1@Z 0000000180025108     libucrt:cvt.obj
 0002:0000a11c       $unwind$?fp_format_e_internal@@YAHQEAD_KH_NIQEAU_strflt@@2QEAU__crt_locale_pointers@@@Z 000000018002511c     libucrt:cvt.obj
 0002:0000a134       $unwind$__acrt_LCMapStringEx 0000000180025134     libucrt:winapi_thunks.obj
 0002:0000a134       $unwind$?fp_format_e@@YAHQEBNQEAD_K12H_NIQEAU__crt_locale_pointers@@@Z 0000000180025134     libucrt:cvt.obj
 0002:0000a148       $unwind$?fp_format_a@@YAHQEBNPEAD_KQEAD2H_NIQEAU__crt_locale_pointers@@@Z 0000000180025148     libucrt:cvt.obj
 0002:0000a164       $unwind$?fp_format_g@@YAHQEBNQEAD_K12H_NIQEAU__crt_locale_pointers@@@Z 0000000180025164     libucrt:cvt.obj
 0002:0000a178       $unwind$_fputwc_nolock     0000000180025178     libucrt:fputwc.obj
 0002:0000a194       $unwind$__vcrt_uninitialize_winapi_thunks 0000000180025194     libvcruntime:winapi_downlevel.obj
 0002:0000a194       $unwind$__acrt_stdio_end_temporary_buffering_nolock 0000000180025194     libucrt:_sftbuf.obj
 0002:0000a19c       $unwind$??$?RV<lambda_410d79af7f07d98d83a3f525b3859a53>@@AEAV<lambda_3e16ef9562a7dcce91392c22ab16ea36>@@V<lambda_38119f0e861e05405d8a144b9b982f0a>@@@?$__crt_seh_guarded_call@X@@QEAAX$$QEAV<lambda_410d79af7f07d98d83a3f525b3859a53>@@AEAV<lambda_3e16ef9562a7dcce91392c22ab16ea36>@@$$QEAV<lambda_38119f0e861e05405d8a144b9b982f0a>@@@Z 000000018002519c     libucrt:wsetlocale.obj
 0002:0000a1c4       $unwind$__acrt_initialize_lowio 00000001800251c4     libucrt:ioinit.obj
 0002:0000a1e4       $unwind$?initialize_inherited_file_handles_nolock@@YAXXZ 00000001800251e4     libucrt:ioinit.obj
 0002:0000a200       $unwind$??$common_expand_argv_wildcards@D@@YAHQEAPEADQEAPEAPEAD@Z 0000000180025200     libucrt:argv_wildcards.obj
 0002:0000a218       $unwind$??$copy_and_add_argument_to_buffer@D@@YAHQEBD0_KAEAV?$argument_list@D@?A0x5f5c8891@@@Z 0000000180025218     libucrt:argv_wildcards.obj
 0002:0000a234       $unwind$??$expand_argument_wildcards@D@@YAHQEAD0AEAV?$argument_list@D@?A0x5f5c8891@@@Z 0000000180025234     libucrt:argv_wildcards.obj
 0002:0000a254       $unwind$_setmbcp_nolock    0000000180025254     libucrt:mbctype.obj
 0002:0000a274       $unwind$?setSBUpLow@@YAXPEAU__crt_multibyte_data@@@Z 0000000180025274     libucrt:mbctype.obj
 0002:0000a290       $unwind$?update_thread_multibyte_data_internal@@YAPEAU__crt_multibyte_data@@QEAU__acrt_ptd@@QEAU1@@Z 0000000180025290     libucrt:mbctype.obj
 0002:0000a2b8       $unwind$?setmbcp_internal@@YAHH_NQEAU__acrt_ptd@@QEAPEAU__crt_multibyte_data@@@Z 00000001800252b8     libucrt:mbctype.obj
 0002:0000a2c8       $unwind$??$?RV<lambda_efdfa57d1f175319df784efa44bb7b81>@@AEAV<lambda_5f0a4c1567f8adc6734073e5d1e1b35c>@@V<lambda_2e8a7d3640ea6ccb4c2413664c2db6fd>@@@?$__crt_seh_guarded_call@X@@QEAAX$$QEAV<lambda_efdfa57d1f175319df784efa44bb7b81>@@AEAV<lambda_5f0a4c1567f8adc6734073e5d1e1b35c>@@$$QEAV<lambda_2e8a7d3640ea6ccb4c2413664c2db6fd>@@@Z 00000001800252c8     libucrt:mbctype.obj
 0002:0000a2f0       $unwind$?x_ismbbtype_l@@YAHPEAU__crt_locale_pointers@@IHH@Z 00000001800252f0     libucrt:ismbbyte.obj
 0002:0000a300       $unwind$__dcrt_get_narrow_environment_from_os 0000000180025300     libucrt:get_environment_from_os.obj
 0002:0000a300       $unwind$?fp_format_f_internal@@YAHQEAD_KHQEAU_strflt@@_NQEAU__crt_locale_pointers@@@Z 0000000180025300     libucrt:cvt.obj
 0002:0000a318       $unwind$__acrt_initialize_winapi_thunks 0000000180025318     libucrt:winapi_thunks.obj
 0002:0000a318       $unwind$__vcrt_initialize_winapi_thunks 0000000180025318     libvcruntime:winapi_downlevel.obj
 0002:0000a320       $unwind$_invalid_parameter 0000000180025320     libucrt:invalid_parameter.obj
 0002:0000a320       $unwind$__acrt_MessageBoxW 0000000180025320     libucrt:winapi_thunks.obj
 0002:0000a334       $unwind$__acrt_is_interactive 0000000180025334     libucrt:winapi_thunks.obj
 0002:0000a348       $unwind$_isctype_l         0000000180025348     libucrt:isctype.obj
 0002:0000a364       $unwind$_free_base         0000000180025364     libucrt:free_base.obj
 0002:0000a364       $unwind$__acrt_locale_free_numeric 0000000180025364     libucrt:initnum.obj
 0002:0000a364       $unwind$__acrt_locale_free_lc_time_if_unreferenced 0000000180025364     libucrt:locale_refcounting.obj
 0002:0000a364       $unwind$?destroy_fls@@YAXPEAX@Z 0000000180025364     libucrt:per_thread_data.obj
 0002:0000a36c       $unwind$__acrt_update_thread_locale_data 000000018002536c     libucrt:locale_refcounting.obj
 0002:0000a390       $unwind$_fcloseall         0000000180025390     libucrt:closeall.obj
 0002:0000a3b4       $unwind$??$?RV<lambda_a37b2b86f63e897a80ea819b0eb08c01>@@AEAV<lambda_38ce7e780aa69e748d6df282ebc68efe>@@V<lambda_99fb1378e971ab6e7edea83e3a7a83a2>@@@?$__crt_seh_guarded_call@H@@QEAAH$$QEAV<lambda_a37b2b86f63e897a80ea819b0eb08c01>@@AEAV<lambda_38ce7e780aa69e748d6df282ebc68efe>@@$$QEAV<lambda_99fb1378e971ab6e7edea83e3a7a83a2>@@@Z 00000001800253b4     libucrt:commit.obj
 0002:0000a3d8       $unwind$_write             00000001800253d8     libucrt:write.obj
 0002:0000a408       $unwind$_write_nolock      0000000180025408     libucrt:write.obj
 0002:0000a420       $unwind$?write_requires_double_translation_nolock@@YA_NH@Z 0000000180025420     libucrt:write.obj
 0002:0000a42c       $unwind$?write_double_translated_ansi_nolock@@YA?AUwrite_result@?A0x17268360@@HQEBDI@Z 000000018002542c     libucrt:write.obj
 0002:0000a44c       $unwind$?write_text_utf16le_nolock@@YA?AUwrite_result@?A0x17268360@@HQEBDI@Z 000000018002544c     libucrt:write.obj
 0002:0000a44c       $unwind$?write_text_ansi_nolock@@YA?AUwrite_result@?A0x17268360@@HQEBDI@Z 000000018002544c     libucrt:write.obj
 0002:0000a46c       $unwind$?write_text_utf8_nolock@@YA?AUwrite_result@?A0x17268360@@HQEBDI@Z 000000018002546c     libucrt:write.obj
 0002:0000a490       $unwind$__acrt_LCMapStringA 0000000180025490     libucrt:lcmapstringa.obj
 0002:0000a4a0       $unwind$?__acrt_LCMapStringA_stat@@YAHPEAU__crt_locale_pointers@@PEB_WKPEBDHPEADHHH@Z 00000001800254a0     libucrt:lcmapstringa.obj
 0002:0000a4c8       $unwind$__acrt_fltout      00000001800254c8     libucrt:cfout.obj
 0002:0000a4e8       $unwind$?divide@__crt_strtox@@YA_KAEAUbig_integer@1@AEBU21@@Z 00000001800254e8     libucrt:cfout.obj
 0002:0000a508       $chain$5$?divide@__crt_strtox@@YA_KAEAUbig_integer@1@AEBU21@@Z 0000000180025508     libucrt:cfout.obj
 0002:0000a51c       $chain$6$?divide@__crt_strtox@@YA_KAEAUbig_integer@1@AEBU21@@Z 000000018002551c     libucrt:cfout.obj
 0002:0000a52c       $unwind$??$write_buffer_nolock@D@@YA_NDV__crt_stdio_stream@@@Z 000000018002552c     libucrt:_flsbuf.obj
 0002:0000a53c       $unwind$??$write_buffer_nolock@_W@@YA_N_WV__crt_stdio_stream@@@Z 000000018002553c     libucrt:_flsbuf.obj
 0002:0000a54c       $unwind$__acrt_locale_free_monetary 000000018002554c     libucrt:initmon.obj
 0002:0000a554       $unwind$__acrt_locale_free_time 0000000180025554     libucrt:inittime.obj
 0002:0000a564       $unwind$__acrt_GetStringTypeA 0000000180025564     libucrt:getstringtypea.obj
 0002:0000a58c       $unwind$_free_osfhnd       000000018002558c     libucrt:osfinfo.obj
 0002:0000a59c       $unwind$__acrt_lowio_destroy_handle_array 000000018002559c     libucrt:osfinfo.obj
 0002:0000a5ac       $unwind$__acrt_lowio_ensure_fh_exists 00000001800255ac     libucrt:osfinfo.obj
 0002:0000a5d8       $unwind$qsort              00000001800255d8     libucrt:qsort.obj
 0002:0000a5f0       $chain$4$qsort             00000001800255f0     libucrt:qsort.obj
 0002:0000a614       $chain$5$qsort             0000000180025614     libucrt:qsort.obj
 0002:0000a624       $unwind$?shortsort@@YAXPEAD0_KP6AHPEBX2@Z@Z 0000000180025624     libucrt:qsort.obj
 0002:0000a634       $chain$2$?shortsort@@YAXPEAD0_KP6AHPEBX2@Z@Z 0000000180025634     libucrt:qsort.obj
 0002:0000a650       $chain$3$?shortsort@@YAXPEAD0_KP6AHPEBX2@Z@Z 0000000180025650     libucrt:qsort.obj
 0002:0000a660       $unwind$strpbrk            0000000180025660     libucrt:strpbrk.obj
 0002:0000a670       $unwind$_mbsdec_l          0000000180025670     libucrt:mbsdec.obj
 0002:0000a67c       $unwind$?GetTableIndexFromLocaleName@@YAHPEB_W@Z 000000018002567c     libucrt:lcidtoname_downlevel.obj
 0002:0000a694       $unwind$fclose             0000000180025694     libucrt:fclose.obj
 0002:0000a6b8       $unwind$??$common_lseek@_J@@YA_JH_JH@Z 00000001800256b8     libucrt:lseek.obj
 0002:0000a6e8       $unwind$_putwch_nolock     00000001800256e8     libucrt:putwch.obj
 0002:0000a6f0       $xdatasym                  00000001800256f0     libucrt:log10.obj
 0002:0000a6fc       $unwind$_close             00000001800256fc     libucrt:close.obj
 0002:0000a6fc       $unwind$_commit            00000001800256fc     libucrt:commit.obj
 0002:0000a704       $unwind$??$?RV<lambda_751a882b2c74d4b022dec766aa51a29a>@@AEAV<lambda_628dfdc04ba53c8bfc02c9951375f3f5>@@V<lambda_f6c7be5f7998530c34de24c7437d6b54>@@@?$__crt_seh_guarded_call@H@@QEAAH$$QEAV<lambda_751a882b2c74d4b022dec766aa51a29a>@@AEAV<lambda_628dfdc04ba53c8bfc02c9951375f3f5>@@$$QEAV<lambda_f6c7be5f7998530c34de24c7437d6b54>@@@Z 0000000180025704     libucrt:close.obj
 0002:0000a728       $unwind$__dcrt_write_console_w 0000000180025728     libucrt:initcon.obj
 0002:0000a73c       $unwind$__acrt_fenv_set_control 000000018002573c     libucrt:_fenvutils.obj
 0002:0000a74c       $unwind$_call_matherr      000000018002574c     libucrt:libm_error.obj
 0002:0000a754       $unwind$_handle_error      0000000180025754     libucrt:libm_error.obj
 0002:0000a774       $unwind$__acrt_initialize_fma3 0000000180025774     libucrt:fma3_available.obj
 0002:0000a77c       $unwind$_log_special_common 000000018002577c     libucrt:log_special.obj
 0002:0000a788       $xdatasym                  0000000180025788     libucrt:fpsr.obj
 0002:0000a790       $unwind$_raise_exc_ex      0000000180025790     libucrt:fpexcept.obj
 0002:0000a7a4       $unwind$_ctrlfp            00000001800257a4     libucrt:fpctrl.obj
 0002:0000a7cc       $unwind$_IsNonwritableInCurrentImage 00000001800257cc     LIBCMT:pesect.obj
 0002:0000a7f0       $unwind$__GSHandlerCheckCommon 00000001800257f0     LIBCMT:_gshandler_.obj
 0002:0000a7f8       $unwind$strrchr            00000001800257f8     libvcruntime:strrchr.obj
 0002:0000a800       $xdatasym                  0000000180025800     libvcruntime:memcmp.obj
 0002:0000a990       .edata                     0000000180025990     ffi_bindings.exp
 0002:0000a9b8       rgpv                       00000001800259b8     ffi_bindings.exp
 0002:0000a9bc       rgszName                   00000001800259bc     ffi_bindings.exp
 0002:0000a9c0       rgwOrd                     00000001800259c0     ffi_bindings.exp
 0002:0000a9c2       szName                     00000001800259c2     ffi_bindings.exp
 0002:0000a9d4       $N00001                    00000001800259d4     ffi_bindings.exp
 0002:0000af30       .idata$6                   0000000180025f30     kernel32:KERNEL32.dll
 0002:0000bc3c       .idata$6                   0000000180026c3c     iojs:node.dll
 0003:00000030       ?__vcrt_flsindex@@3KA      0000000180028030     libvcruntime:per_thread_data.obj
 0003:00000040       ?errno_no_memory@@3HA      0000000180028040     libucrt:errno.obj
 0003:00000044       ?doserrno_no_memory@@3KA   0000000180028044     libucrt:errno.obj
 0003:0000004c       ?__acrt_flsindex@@3KA      000000018002804c     libucrt:per_thread_data.obj
 0003:00000310       _mbctypes                  0000000180028310     libucrt:mbctype.obj
 0003:00000420       _mbcasemaps                0000000180028420     libucrt:mbctype.obj
 0003:00000520       ?__rgctypeflag@@3PADA      0000000180028520     libucrt:mbctype.obj
 0003:00000530       ?__rgcode_page_info@@3PAUcode_page_info@@A 0000000180028530     libucrt:mbctype.obj
 0003:00000900       ?__dcrt_lowio_console_output_handle@@3PEAXEA 0000000180028900     libucrt:initcon.obj
 0003:00000910       ?dazSupported@?1??_ctrlfp@@9@9 0000000180028910     libucrt:fpctrl.obj
 0003:00000920       _module                    0000000180028920     ffi.obj
 0003:00000a54       ?module_local_atexit_table_initialized@@3_NA 0000000180028a54     LIBCMT:utility.obj
 0003:00000a60       ?module_local_atexit_table@@3U_onexit_table_t@@A 0000000180028a60     LIBCMT:utility.obj
 0003:00000a78       ?module_local_at_quick_exit_table@@3U_onexit_table_t@@A 0000000180028a78     LIBCMT:utility.obj
 0003:00000a90       ?is_initialized_as_dll@@3_NA 0000000180028a90     LIBCMT:utility.obj
 0003:00000a94       ?__proc_attached@@3HA      0000000180028a94     LIBCMT:dll_dllmain.obj
 0003:00000aa0       GS_ExceptionRecord         0000000180028aa0     LIBCMT:gs_report.obj
 0003:00000b40       GS_ContextRecord           0000000180028b40     LIBCMT:gs_report.obj
 0003:00001040       ?__vcrt_startup_thread_ptd@@3U__vcrt_ptd@@A 0000000180029040     libvcruntime:per_thread_data.obj
 0003:000010b8       __vcrt_lock_table          00000001800290b8     libvcruntime:locks.obj
 0003:000010e0       __vcrt_locks_initialized   00000001800290e0     libvcruntime:locks.obj
 0003:000010e8       ?module_handles@@3PAPEAUHINSTANCE__@@A 00000001800290e8     libvcruntime:winapi_downlevel.obj
 0003:00001100       ?encoded_function_pointers@@3PAPEAXA 0000000180029100     libvcruntime:winapi_downlevel.obj
 0003:00001178       ?heap@@3V_HeapManager@@A   0000000180029178     libvcruntime:undname.obj
 0003:000011a0       ?__acrt_invalid_parameter_handler@@3V?$dual_state_global@P6AXPEB_W00I_K@Z@__crt_state_management@@A 00000001800291a0     libucrt:invalid_parameter.obj
 0003:000011a8       ?__acrt_new_handler@@3V?$dual_state_global@P6AH_K@Z@__crt_state_management@@A 00000001800291a8     libucrt:new_handler.obj
 0003:000011b0       ?c_termination_complete@@3JA 00000001800291b0     libucrt:exit.obj
 0003:000011b8       ?thread_local_exit_callback_func@@3P6AXPEAXK0@ZEA 00000001800291b8     libucrt:exit.obj
 0003:000011d0       ?program_name@?1???$common_configure_argv@D@@YAHW4_crt_argv_mode@@@Z@4PADA 00000001800291d0     libucrt:argv_parsing.obj
 0003:00001328       ?__acrt_app_type@@3W4_crt_app_type@@A 0000000180029328     libucrt:report_runtime_error.obj
 0003:0000132c       __acrt_error_mode          000000018002932c     libucrt:set_error_mode.obj
 0003:00001348       ?ctrlc_action@@3V?$dual_state_global@P6AXH@Z@__crt_state_management@@A 0000000180029348     libucrt:signal.obj
 0003:00001350       ?ctrlbreak_action@@3V?$dual_state_global@P6AXH@Z@__crt_state_management@@A 0000000180029350     libucrt:signal.obj
 0003:00001358       ?abort_action@@3V?$dual_state_global@P6AXH@Z@__crt_state_management@@A 0000000180029358     libucrt:signal.obj
 0003:00001360       ?term_action@@3V?$dual_state_global@P6AXH@Z@__crt_state_management@@A 0000000180029360     libucrt:signal.obj
 0003:00001368       ?enable_percent_n@@3_KA    0000000180029368     libucrt:printf_count_output.obj
 0003:000017a0       ?__acrt_lock_table@@3PAU_RTL_CRITICAL_SECTION@@A 00000001800297a0     libucrt:locks.obj
 0003:000019d0       ?__acrt_locks_initialized@@3IA 00000001800299d0     libucrt:locks.obj
 0003:000019d4       ?state_cache@?1???$get_cached_win_policy@Udeveloper_information_policy_properties@?1??__acrt_get_developer_information_policy@@YA?AW4developer_information_policy@@XZ@@@YA?AW4developer_information_policy@@W4AppPolicyShowDeveloperDiagnostic@@@Z@4JA 00000001800299d4     libucrt:win_policies.obj
 0003:000019d8       ?state_cache@?1???$get_cached_win_policy@Uwindowing_model_policy_properties@?1??__acrt_get_windowing_model_policy@@YA?AW4windowing_model_policy@@XZ@@@YA?AW4windowing_model_policy@@W4AppPolicyWindowingModel@@@Z@4JA 00000001800299d8     libucrt:win_policies.obj
 0003:000019f8       ?fSystemSet@@3HA           00000001800299f8     libucrt:mbctype.obj
 0003:000019fc       ?initialized@?1??__acrt_initialize_multibyte@@9@4_NA 00000001800299fc     libucrt:mbctype.obj
 0003:00001a30       ?module_handles@@3PAPEAUHINSTANCE__@@A 0000000180029a30     libucrt:winapi_thunks.obj
 0003:00001ad0       ?encoded_function_pointers@@3PAPEAXA 0000000180029ad0     libucrt:winapi_thunks.obj
 0003:00001be8       ?user_matherr@@3V?$dual_state_global@P6AHPEAU_exception@@@Z@__crt_state_management@@A 0000000180029be8     libucrt:matherr.obj
 0003:00001bf0       ?__acrt_global_new_mode@@3V?$dual_state_global@J@__crt_state_management@@A 0000000180029bf0     libucrt:new_mode.obj
 0003:00001c14       ?lastError@@3KA            0000000180029c14     win32-dlfcn.obj
 0003:00001d48       mparams                    0000000180029d48     libffi:closures.obj
 0003:00001d78       magic_init_mutex           0000000180029d78     libffi:closures.obj
 0003:00001d80       _gm_                       0000000180029d80     libffi:closures.obj
 0003:00002110       ?errorMessage@?1??dlerror@@9@4PADA 000000018002a110     win32-dlfcn.obj
 0004:00000000       $pdata$??__E?g_queue@CallbackInfo@@0V?$queue@PEAVThreadedCallbackInvokation@@V?$deque@PEAVThreadedCallbackInvokation@@V?$allocator@PEAVThreadedCallbackInvokation@@@std@@@std@@@std@@A@@YAXXZ 000000018002b000     callback_info.obj
 0004:0000000c       $pdata$?FunctionCallbackWrapper@imp@Nan@@YAXAEBV?$FunctionCallbackInfo@VValue@v8@@@v8@@@Z 000000018002b00c     ffi.obj
 0004:00000018       $pdata$??$To@VUint32@v8@@@imp@Nan@@YA?AV?$Local@VUint32@v8@@@v8@@V?$Local@VInteger@v8@@@3@@Z 000000018002b018     ffi.obj
 0004:00000024       $pdata$?New@?$Factory@VFunctionTemplate@v8@@@imp@Nan@@SA?AV?$Local@VFunctionTemplate@v8@@@v8@@P6AXAEBV?$FunctionCallbackInfo@VValue@v8@@@3@@ZV?$Local@VValue@v8@@@5@V?$Local@VSignature@v8@@@5@@Z 000000018002b024     ffi.obj
 0004:00000030       $pdata$0$?New@?$Factory@VFunctionTemplate@v8@@@imp@Nan@@SA?AV?$Local@VFunctionTemplate@v8@@@v8@@P6AXAEBV?$FunctionCallbackInfo@VValue@v8@@@3@@ZV?$Local@VValue@v8@@@5@V?$Local@VSignature@v8@@@5@@Z 000000018002b030     ffi.obj
 0004:0000003c       $pdata$1$?New@?$Factory@VFunctionTemplate@v8@@@imp@Nan@@SA?AV?$Local@VFunctionTemplate@v8@@@v8@@P6AXAEBV?$FunctionCallbackInfo@VValue@v8@@@3@@ZV?$Local@VValue@v8@@@5@V?$Local@VSignature@v8@@@5@@Z 000000018002b03c     ffi.obj
 0004:00000048       $pdata$2$?New@?$Factory@VFunctionTemplate@v8@@@imp@Nan@@SA?AV?$Local@VFunctionTemplate@v8@@@v8@@P6AXAEBV?$FunctionCallbackInfo@VValue@v8@@@3@@ZV?$Local@VValue@v8@@@5@V?$Local@VSignature@v8@@@5@@Z 000000018002b048     ffi.obj
 0004:00000054       $pdata$3$?New@?$Factory@VFunctionTemplate@v8@@@imp@Nan@@SA?AV?$Local@VFunctionTemplate@v8@@@v8@@P6AXAEBV?$FunctionCallbackInfo@VValue@v8@@@3@@ZV?$Local@VValue@v8@@@5@V?$Local@VSignature@v8@@@5@@Z 000000018002b054     ffi.obj
 0004:00000060       $pdata$?ThrowError@Nan@@YAXPEBD@Z 000000018002b060     ffi.obj
 0004:0000006c       $pdata$?Call@Callback@Nan@@QEBA?AV?$Local@VValue@v8@@@v8@@HQEAV34@@Z 000000018002b06c     ffi.obj
 0004:00000078       $pdata$?WrapPointer@@YA?AV?$Local@VValue@v8@@@v8@@PEAD_K@Z 000000018002b078     ffi.obj
 0004:00000084       $pdata$?WrapPointer@@YA?AV?$Local@VValue@v8@@@v8@@PEAD@Z 000000018002b084     ffi.obj
 0004:00000090       $pdata$?node_ffi_errno@@YAHXZ 000000018002b090     ffi.obj
 0004:0000009c       $pdata$?InitializeStaticFunctions@FFI@@SAXV?$Local@VObject@v8@@@v8@@@Z 000000018002b09c     ffi.obj
 0004:000000a8       $pdata$?InitializeBindings@FFI@@SAXV?$Local@VObject@v8@@@v8@@@Z 000000018002b0a8     ffi.obj
 0004:000000b4       $pdata$?FFIPrepCif@FFI@@KAXAEBV?$FunctionCallbackInfo@VValue@v8@@@Nan@@@Z 000000018002b0b4     ffi.obj
 0004:000000c0       $pdata$2$?FFIPrepCif@FFI@@KAXAEBV?$FunctionCallbackInfo@VValue@v8@@@Nan@@@Z 000000018002b0c0     ffi.obj
 0004:000000cc       $pdata$3$?FFIPrepCif@FFI@@KAXAEBV?$FunctionCallbackInfo@VValue@v8@@@Nan@@@Z 000000018002b0cc     ffi.obj
 0004:000000d8       $pdata$?FFIPrepCifVar@FFI@@KAXAEBV?$FunctionCallbackInfo@VValue@v8@@@Nan@@@Z 000000018002b0d8     ffi.obj
 0004:000000e4       $pdata$2$?FFIPrepCifVar@FFI@@KAXAEBV?$FunctionCallbackInfo@VValue@v8@@@Nan@@@Z 000000018002b0e4     ffi.obj
 0004:000000f0       $pdata$3$?FFIPrepCifVar@FFI@@KAXAEBV?$FunctionCallbackInfo@VValue@v8@@@Nan@@@Z 000000018002b0f0     ffi.obj
 0004:000000fc       $pdata$?FFICall@FFI@@KAXAEBV?$FunctionCallbackInfo@VValue@v8@@@Nan@@@Z 000000018002b0fc     ffi.obj
 0004:00000108       $pdata$?FFICallAsync@FFI@@KAXAEBV?$FunctionCallbackInfo@VValue@v8@@@Nan@@@Z 000000018002b108     ffi.obj
 0004:00000114       $pdata$?FinishAsyncFFICall@FFI@@KAXPEAUuv_work_s@@@Z 000000018002b114     ffi.obj
 0004:00000120       $pdata$?init@@YAXV?$Local@VObject@v8@@@v8@@@Z 000000018002b120     ffi.obj
 0004:0000012c       $pdata$?closure_pointer_cb@@YAXPEADPEAX@Z 000000018002b12c     callback_info.obj
 0004:00000138       $pdata$?DispatchToV8@CallbackInfo@@KAXPEAU_callback_info@@PEAXPEAPEAX_N@Z 000000018002b138     callback_info.obj
 0004:00000144       $pdata$0$?DispatchToV8@CallbackInfo@@KAXPEAU_callback_info@@PEAXPEAPEAX_N@Z 000000018002b144     callback_info.obj
 0004:00000150       $pdata$1$?DispatchToV8@CallbackInfo@@KAXPEAU_callback_info@@PEAXPEAPEAX_N@Z 000000018002b150     callback_info.obj
 0004:0000015c       $pdata$?WatcherCallback@CallbackInfo@@SAXPEAUuv_async_s@@H@Z 000000018002b15c     callback_info.obj
 0004:00000168       $pdata$2$?WatcherCallback@CallbackInfo@@SAXPEAUuv_async_s@@H@Z 000000018002b168     callback_info.obj
 0004:00000174       $pdata$3$?WatcherCallback@CallbackInfo@@SAXPEAUuv_async_s@@H@Z 000000018002b174     callback_info.obj
 0004:00000180       $pdata$?Callback@CallbackInfo@@KAXAEBV?$FunctionCallbackInfo@VValue@v8@@@Nan@@@Z 000000018002b180     callback_info.obj
 0004:0000018c       $pdata$3$?Callback@CallbackInfo@@KAXAEBV?$FunctionCallbackInfo@VValue@v8@@@Nan@@@Z 000000018002b18c     callback_info.obj
 0004:00000198       $pdata$5$?Callback@CallbackInfo@@KAXAEBV?$FunctionCallbackInfo@VValue@v8@@@Nan@@@Z 000000018002b198     callback_info.obj
 0004:000001a4       $pdata$6$?Callback@CallbackInfo@@KAXAEBV?$FunctionCallbackInfo@VValue@v8@@@Nan@@@Z 000000018002b1a4     callback_info.obj
 0004:000001b0       $pdata$7$?Callback@CallbackInfo@@KAXAEBV?$FunctionCallbackInfo@VValue@v8@@@Nan@@@Z 000000018002b1b0     callback_info.obj
 0004:000001bc       $pdata$9$?Callback@CallbackInfo@@KAXAEBV?$FunctionCallbackInfo@VValue@v8@@@Nan@@@Z 000000018002b1bc     callback_info.obj
 0004:000001c8       $pdata$10$?Callback@CallbackInfo@@KAXAEBV?$FunctionCallbackInfo@VValue@v8@@@Nan@@@Z 000000018002b1c8     callback_info.obj
 0004:000001d4       $pdata$?Invoke@CallbackInfo@@KAXPEAUffi_cif@@PEAXPEAPEAX1@Z 000000018002b1d4     callback_info.obj
 0004:000001e0       $pdata$?Initialize@CallbackInfo@@SAXV?$Local@VObject@v8@@@v8@@@Z 000000018002b1e0     callback_info.obj
 0004:000001ec       $pdata$?_Tidy@?$deque@PEAVThreadedCallbackInvokation@@V?$allocator@PEAVThreadedCallbackInvokation@@@std@@@std@@IEAAXXZ 000000018002b1ec     callback_info.obj
 0004:000001f8       $pdata$?push_back@?$deque@PEAVThreadedCallbackInvokation@@V?$allocator@PEAVThreadedCallbackInvokation@@@std@@@std@@QEAAXAEBQEAVThreadedCallbackInvokation@@@Z 000000018002b1f8     callback_info.obj
 0004:00000204       $pdata$?_Growmap@?$deque@PEAVThreadedCallbackInvokation@@V?$allocator@PEAVThreadedCallbackInvokation@@@std@@@std@@IEAAX_K@Z 000000018002b204     callback_info.obj
 0004:00000210       $pdata$2$?_Growmap@?$deque@PEAVThreadedCallbackInvokation@@V?$allocator@PEAVThreadedCallbackInvokation@@@std@@@std@@IEAAX_K@Z 000000018002b210     callback_info.obj
 0004:0000021c       $pdata$4$?_Growmap@?$deque@PEAVThreadedCallbackInvokation@@V?$allocator@PEAVThreadedCallbackInvokation@@@std@@@std@@IEAAX_K@Z 000000018002b21c     callback_info.obj
 0004:00000228       $pdata$5$?_Growmap@?$deque@PEAVThreadedCallbackInvokation@@V?$allocator@PEAVThreadedCallbackInvokation@@@std@@@std@@IEAAX_K@Z 000000018002b228     callback_info.obj
 0004:00000234       $pdata$7$?_Growmap@?$deque@PEAVThreadedCallbackInvokation@@V?$allocator@PEAVThreadedCallbackInvokation@@@std@@@std@@IEAAX_K@Z 000000018002b234     callback_info.obj
 0004:00000240       $pdata$8$?_Growmap@?$deque@PEAVThreadedCallbackInvokation@@V?$allocator@PEAVThreadedCallbackInvokation@@@std@@@std@@IEAAX_K@Z 000000018002b240     callback_info.obj
 0004:0000024c       $pdata$?_Xlen@?$deque@PEAVThreadedCallbackInvokation@@V?$allocator@PEAVThreadedCallbackInvokation@@@std@@@std@@IEBAXXZ 000000018002b24c     callback_info.obj
 0004:00000258       $pdata$sprintf             000000018002b258     win32-dlfcn.obj
 0004:00000264       $pdata$UTF8toWCHAR         000000018002b264     win32-dlfcn.obj
 0004:00000270       $pdata$0$UTF8toWCHAR       000000018002b270     win32-dlfcn.obj
 0004:0000027c       $pdata$2$UTF8toWCHAR       000000018002b27c     win32-dlfcn.obj
 0004:00000288       $pdata$4$UTF8toWCHAR       000000018002b288     win32-dlfcn.obj
 0004:00000294       $pdata$dlopen              000000018002b294     win32-dlfcn.obj
 0004:000002a0       $pdata$0$dlopen            000000018002b2a0     win32-dlfcn.obj
 0004:000002ac       $pdata$4$dlopen            000000018002b2ac     win32-dlfcn.obj
 0004:000002b8       $pdata$dlclose             000000018002b2b8     win32-dlfcn.obj
 0004:000002c4       $pdata$dlsym               000000018002b2c4     win32-dlfcn.obj
 0004:000002d0       $pdata$dlerror             000000018002b2d0     win32-dlfcn.obj
 0004:000002dc       $pdata$initialize_aggregate 000000018002b2dc     libffi:prep_cif.obj
 0004:000002e8       $pdata$0$initialize_aggregate 000000018002b2e8     libffi:prep_cif.obj
 0004:000002f4       $pdata$2$initialize_aggregate 000000018002b2f4     libffi:prep_cif.obj
 0004:00000300       $pdata$3$initialize_aggregate 000000018002b300     libffi:prep_cif.obj
 0004:0000030c       $pdata$ffi_prep_cif        000000018002b30c     libffi:prep_cif.obj
 0004:00000318       $pdata$ffi_prep_args       000000018002b318     libffi:ffi.obj
 0004:00000324       $pdata$1$ffi_prep_args     000000018002b324     libffi:ffi.obj
 0004:00000330       $pdata$2$ffi_prep_args     000000018002b330     libffi:ffi.obj
 0004:0000033c       $pdata$ffi_call            000000018002b33c     libffi:ffi.obj
 0004:00000348       $pdata$ffi_closure_win64_inner 000000018002b348     libffi:ffi.obj
 0004:00000354       $pdata$ffi_prep_closure_loc 000000018002b354     libffi:ffi.obj
 0004:00000360       $pdata$1$ffi_prep_closure_loc 000000018002b360     libffi:ffi.obj
 0004:0000036c       $pdata$2$ffi_prep_closure_loc 000000018002b36c     libffi:ffi.obj
 0004:00000378       $pdata$3$ffi_prep_closure_loc 000000018002b378     libffi:ffi.obj
 0004:00000384       $pdata$win32munmap         000000018002b384     libffi:closures.obj
 0004:00000390       $pdata$init_mparams        000000018002b390     libffi:closures.obj
 0004:0000039c       $pdata$0$init_mparams      000000018002b39c     libffi:closures.obj
 0004:000003a8       $pdata$1$init_mparams      000000018002b3a8     libffi:closures.obj
 0004:000003b4       $pdata$mmap_alloc          000000018002b3b4     libffi:closures.obj
 0004:000003c0       $pdata$prepend_alloc       000000018002b3c0     libffi:closures.obj
 0004:000003cc       $pdata$add_segment         000000018002b3cc     libffi:closures.obj
 0004:000003d8       $pdata$sys_alloc           000000018002b3d8     libffi:closures.obj
 0004:000003e4       $pdata$0$sys_alloc         000000018002b3e4     libffi:closures.obj
 0004:000003f0       $pdata$2$sys_alloc         000000018002b3f0     libffi:closures.obj
 0004:000003fc       $pdata$4$sys_alloc         000000018002b3fc     libffi:closures.obj
 0004:00000408       $pdata$5$sys_alloc         000000018002b408     libffi:closures.obj
 0004:00000414       $pdata$6$sys_alloc         000000018002b414     libffi:closures.obj
 0004:00000420       $pdata$release_unused_segments 000000018002b420     libffi:closures.obj
 0004:0000042c       $pdata$sys_trim            000000018002b42c     libffi:closures.obj
 0004:00000438       $pdata$1$sys_trim          000000018002b438     libffi:closures.obj
 0004:00000444       $pdata$2$sys_trim          000000018002b444     libffi:closures.obj
 0004:00000450       $pdata$tmalloc_small       000000018002b450     libffi:closures.obj
 0004:0000045c       $pdata$1$tmalloc_small     000000018002b45c     libffi:closures.obj
 0004:00000468       $pdata$3$tmalloc_small     000000018002b468     libffi:closures.obj
 0004:00000474       $pdata$4$tmalloc_small     000000018002b474     libffi:closures.obj
 0004:00000480       $pdata$dlmalloc            000000018002b480     libffi:closures.obj
 0004:0000048c       $pdata$dlfree              000000018002b48c     libffi:closures.obj
 0004:00000498       $pdata$3$dlfree            000000018002b498     libffi:closures.obj
 0004:000004a4       $pdata$4$dlfree            000000018002b4a4     libffi:closures.obj
 0004:000004b0       $pdata$5$dlfree            000000018002b4b0     libffi:closures.obj
 0004:000004d4       $pdata$??0bad_alloc@std@@QEAA@AEBV01@@Z 000000018002b4d4     libcpmt:xthrow.obj
 0004:000004e0       $pdata$??0exception@std@@QEAA@AEBV01@@Z 000000018002b4e0     libcpmt:xthrow.obj
 0004:000004ec       $pdata$??0length_error@std@@QEAA@AEBV01@@Z 000000018002b4ec     libcpmt:xthrow.obj
 0004:000004f8       $pdata$??0length_error@std@@QEAA@PEBD@Z 000000018002b4f8     libcpmt:xthrow.obj
 0004:00000504       $pdata$??0logic_error@std@@QEAA@AEBV01@@Z 000000018002b504     libcpmt:xthrow.obj
 0004:00000510       $pdata$?_Xlength_error@std@@YAXPEBD@Z 000000018002b510     libcpmt:xthrow.obj
 0004:00000528       $pdata$??2@YAPEAX_K@Z      000000018002b528     LIBCMT:new_scalar.obj
 0004:00000534       $pdata$__scrt_acquire_startup_lock 000000018002b534     LIBCMT:utility.obj
 0004:00000540       $pdata$__scrt_dllmain_after_initialize_c 000000018002b540     LIBCMT:utility.obj
 0004:0000054c       $pdata$__scrt_dllmain_before_initialize_c 000000018002b54c     LIBCMT:utility.obj
 0004:00000558       $pdata$__scrt_dllmain_crt_thread_attach 000000018002b558     LIBCMT:utility.obj
 0004:00000564       $pdata$__scrt_dllmain_crt_thread_detach 000000018002b564     LIBCMT:utility.obj
 0004:00000570       $pdata$__scrt_dllmain_exception_filter 000000018002b570     LIBCMT:utility.obj
 0004:0000057c       $pdata$__scrt_dllmain_uninitialize_c 000000018002b57c     LIBCMT:utility.obj
 0004:00000588       $pdata$__scrt_dllmain_uninitialize_critical 000000018002b588     LIBCMT:utility.obj
 0004:00000594       $pdata$__scrt_initialize_crt 000000018002b594     LIBCMT:utility.obj
 0004:000005a0       $pdata$__scrt_initialize_onexit_tables 000000018002b5a0     LIBCMT:utility.obj
 0004:000005ac       $pdata$__scrt_is_nonwritable_in_current_image 000000018002b5ac     LIBCMT:utility.obj
 0004:000005b8       $pdata$__scrt_release_startup_lock 000000018002b5b8     LIBCMT:utility.obj
 0004:000005c4       $pdata$__scrt_uninitialize_crt 000000018002b5c4     LIBCMT:utility.obj
 0004:000005d0       $pdata$_onexit             000000018002b5d0     LIBCMT:utility.obj
 0004:000005dc       $pdata$atexit              000000018002b5dc     LIBCMT:utility.obj
 0004:000005e8       $pdata$?dllmain_crt_dispatch@@YAHQEAUHINSTANCE__@@KQEAX@Z 000000018002b5e8     LIBCMT:dll_dllmain.obj
 0004:000005f4       $pdata$?dllmain_crt_process_attach@@YAHQEAUHINSTANCE__@@QEAX@Z 000000018002b5f4     LIBCMT:dll_dllmain.obj
 0004:00000600       $pdata$?dllmain_crt_process_detach@@YAH_N@Z 000000018002b600     LIBCMT:dll_dllmain.obj
 0004:0000060c       $pdata$?dllmain_dispatch@@YAHQEAUHINSTANCE__@@KQEAX@Z 000000018002b60c     LIBCMT:dll_dllmain.obj
 0004:00000618       $pdata$?dllmain_raw@@YAHQEAUHINSTANCE__@@KQEAX@Z 000000018002b618     LIBCMT:dll_dllmain.obj
 0004:00000624       $pdata$_DllMainCRTStartup  000000018002b624     LIBCMT:dll_dllmain.obj
 0004:0000063c       $pdata$??_Gtype_info@@UEAAPEAXI@Z 000000018002b63c     LIBCMT:std_type_info_static.obj
 0004:00000648       $pdata$__raise_securityfailure 000000018002b648     LIBCMT:gs_report.obj
 0004:00000654       $pdata$__report_gsfailure  000000018002b654     LIBCMT:gs_report.obj
 0004:00000660       $pdata$__report_rangecheckfailure 000000018002b660     LIBCMT:gs_report.obj
 0004:0000066c       $pdata$__report_securityfailure 000000018002b66c     LIBCMT:gs_report.obj
 0004:00000678       $pdata$capture_current_context 000000018002b678     LIBCMT:gs_report.obj
 0004:00000684       $pdata$capture_previous_context 000000018002b684     LIBCMT:gs_report.obj
 0004:00000690       $pdata$??0bad_array_new_length@std@@QEAA@AEBV01@@Z 000000018002b690     LIBCMT:throw_bad_alloc.obj
 0004:0000069c       $pdata$??_Gexception@std@@UEAAPEAXI@Z 000000018002b69c     libcpmt:xthrow.obj
 0004:0000069c       $pdata$??_Gbad_alloc@std@@UEAAPEAXI@Z 000000018002b69c     libcpmt:xthrow.obj
 0004:0000069c       $pdata$??_Gbad_array_new_length@std@@UEAAPEAXI@Z 000000018002b69c     LIBCMT:throw_bad_alloc.obj
 0004:0000069c       $pdata$??_Glength_error@std@@UEAAPEAXI@Z 000000018002b69c     libcpmt:xthrow.obj
 0004:0000069c       $pdata$??_Glogic_error@std@@UEAAPEAXI@Z 000000018002b69c     libcpmt:xthrow.obj
 0004:000006a8       $pdata$?__scrt_throw_std_bad_alloc@@YAXXZ 000000018002b6a8     LIBCMT:throw_bad_alloc.obj
 0004:000006a8       $pdata$?_Xbad_alloc@std@@YAXXZ 000000018002b6a8     libcpmt:xthrow.obj
 0004:000006b4       $pdata$?__scrt_throw_std_bad_array_new_length@@YAXXZ 000000018002b6b4     LIBCMT:throw_bad_alloc.obj
 0004:000006c0       $pdata$__isa_available_init 000000018002b6c0     LIBCMT:_cpu_disp_.obj
 0004:000006cc       $pdata$__scrt_fastfail     000000018002b6cc     LIBCMT:utility_desktop.obj
 0004:000006d8       $pdata$__security_init_cookie 000000018002b6d8     LIBCMT:gs_support.obj
 0004:000006e4       $pdata$__scrt_initialize_default_local_stdio_options 000000018002b6e4     LIBCMT:default_local_stdio_options.obj
 0004:000006f0       $pdata$_RTC_Initialize     000000018002b6f0     LIBCMT:_initsect_.obj
 0004:000006fc       $pdata$_RTC_Terminate      000000018002b6fc     LIBCMT:_initsect_.obj
 0004:00000714       $pdata$__std_exception_copy 000000018002b714     libvcruntime:std_exception.obj
 0004:00000720       $pdata$__std_exception_destroy 000000018002b720     libvcruntime:std_exception.obj
 0004:0000072c       $pdata$_CxxThrowException  000000018002b72c     libvcruntime:throw.obj
 0004:00000738       $pdata$__vcrt_initialize   000000018002b738     libvcruntime:initialization.obj
 0004:00000744       $pdata$__vcrt_thread_attach 000000018002b744     libvcruntime:initialization.obj
 0004:00000750       $pdata$__vcrt_thread_detach 000000018002b750     libvcruntime:initialization.obj
 0004:0000075c       $pdata$__vcrt_uninitialize 000000018002b75c     libvcruntime:initialization.obj
 0004:00000768       $pdata$__vcrt_uninitialize_critical 000000018002b768     libvcruntime:initialization.obj
 0004:00000774       $pdata$__C_specific_handler 000000018002b774     libvcruntime:_chandler_.obj
 0004:0000078c       $pdata$__std_type_info_destroy_list 000000018002b78c     libvcruntime:std_type_info.obj
 0004:00000798       $pdata$__vcrt_freefls      000000018002b798     libvcruntime:per_thread_data.obj
 0004:000007a4       $pdata$__vcrt_freeptd      000000018002b7a4     libvcruntime:per_thread_data.obj
 0004:000007b0       $pdata$__vcrt_getptd_noexit 000000018002b7b0     libvcruntime:per_thread_data.obj
 0004:000007bc       $pdata$__vcrt_initialize_ptd 000000018002b7bc     libvcruntime:per_thread_data.obj
 0004:000007c8       $pdata$__vcrt_uninitialize_ptd 000000018002b7c8     libvcruntime:per_thread_data.obj
 0004:000007d4       $pdata$__vcrt_initialize_locks 000000018002b7d4     libvcruntime:locks.obj
 0004:000007e0       $pdata$__vcrt_uninitialize_locks 000000018002b7e0     libvcruntime:locks.obj
 0004:000007ec       $pdata$?try_get_function@@YAPEAXW4function_id@?A0x37284e77@@QEBDQEBW4module_id@2@2@Z 000000018002b7ec     libvcruntime:winapi_downlevel.obj
 0004:000007f8       $pdata$__vcrt_FlsAlloc     000000018002b7f8     libvcruntime:winapi_downlevel.obj
 0004:00000804       $pdata$__vcrt_FlsFree      000000018002b804     libvcruntime:winapi_downlevel.obj
 0004:00000810       $pdata$__vcrt_FlsGetValue  000000018002b810     libvcruntime:winapi_downlevel.obj
 0004:0000081c       $pdata$__vcrt_FlsSetValue  000000018002b81c     libvcruntime:winapi_downlevel.obj
 0004:00000828       $pdata$__vcrt_InitializeCriticalSectionEx 000000018002b828     libvcruntime:winapi_downlevel.obj
 0004:00000834       $pdata$__vcrt_initialize_winapi_thunks 000000018002b834     libvcruntime:winapi_downlevel.obj
 0004:00000840       $pdata$__vcrt_uninitialize_winapi_thunks 000000018002b840     libvcruntime:winapi_downlevel.obj
 0004:0000087c       $pdata$__acrt_errno_map_os_error 000000018002b87c     libucrt:errno.obj
 0004:00000888       $pdata$__doserrno          000000018002b888     libucrt:errno.obj
 0004:00000894       $pdata$_errno              000000018002b894     libucrt:errno.obj
 0004:000008a0       $pdata$??$common_assert_to_message_box@_W@@YAXQEB_W0IQEAX@Z 000000018002b8a0     libucrt:assert.obj
 0004:000008ac       $pdata$??$common_assert_to_message_box_build_string@_W@@YAXQEA_W_KQEB_W2IQEAX@Z 000000018002b8ac     libucrt:assert.obj
 0004:000008b8       $pdata$??$common_assert_to_stderr@_W@@YAXQEB_W0I@Z 000000018002b8b8     libucrt:assert.obj
 0004:000008c4       $pdata$_wassert            000000018002b8c4     libucrt:assert.obj
 0004:000008d0       $pdata$fwprintf            000000018002b8d0     libucrt:assert.obj
 0004:000008dc       $pdata$swprintf            000000018002b8dc     libucrt:assert.obj
 0004:000008e8       $pdata$__acrt_call_reportfault 000000018002b8e8     libucrt:invalid_parameter.obj
 0004:000008f4       $pdata$_invalid_parameter  000000018002b8f4     libucrt:invalid_parameter.obj
 0004:00000900       $pdata$_invalid_parameter_noinfo 000000018002b900     libucrt:invalid_parameter.obj
 0004:0000090c       $pdata$_invalid_parameter_noinfo_noreturn 000000018002b90c     libucrt:invalid_parameter.obj
 0004:00000918       $pdata$_invoke_watson      000000018002b918     libucrt:invalid_parameter.obj
 0004:00000924       $pdata$??$?RV<lambda_0d412022a4b28cc8a401ea49574e8ae6>@@AEAV<lambda_a775ed57af18ba8e4d5dc780aa9068fe>@@V<lambda_975a71a6baa488a08f4e15f6b0339b9e>@@@?$__crt_seh_guarded_call@H@@QEAAH$$QEAV<lambda_0d412022a4b28cc8a401ea49574e8ae6>@@AEAV<lambda_a775ed57af18ba8e4d5dc780aa9068fe>@@$$QEAV<lambda_975a71a6baa488a08f4e15f6b0339b9e>@@@Z 000000018002b924     libucrt:output.obj
 0004:00000930       $pdata$??$common_vsprintf@Vstandard_base@__crt_stdio_output@@D@@YAH_KQEAD0QEBDQEAU__crt_locale_pointers@@1@Z 000000018002b930     libucrt:output.obj
 0004:0000093c       $pdata$??$common_vsprintf@Vstandard_base@__crt_stdio_output@@_W@@YAH_KQEA_W0QEB_WQEAU__crt_locale_pointers@@QEAD@Z 000000018002b93c     libucrt:output.obj
 0004:00000948       $pdata$??$ensure_buffer_is_big_enough@D@formatting_buffer@__crt_stdio_output@@QEAA_N_K@Z 000000018002b948     libucrt:output.obj
 0004:00000954       $pdata$??$type_case_integer_parse_into_buffer@I@?$output_processor@DV?$string_output_adapter@D@__crt_stdio_output@@V?$standard_base@DV?$string_output_adapter@D@__crt_stdio_output@@@2@@__crt_stdio_output@@AEAAXII_N@Z 000000018002b954     libucrt:output.obj
 0004:00000960       $pdata$??$type_case_integer_parse_into_buffer@I@?$output_processor@_WV?$string_output_adapter@_W@__crt_stdio_output@@V?$standard_base@_WV?$string_output_adapter@_W@__crt_stdio_output@@@2@@__crt_stdio_output@@AEAAXII_N@Z 000000018002b960     libucrt:output.obj
 0004:00000960       $pdata$??$type_case_integer_parse_into_buffer@I@?$output_processor@_WV?$stream_output_adapter@_W@__crt_stdio_output@@V?$standard_base@_WV?$stream_output_adapter@_W@__crt_stdio_output@@@2@@__crt_stdio_output@@AEAAXII_N@Z 000000018002b960     libucrt:output.obj
 0004:0000096c       $pdata$??$type_case_integer_parse_into_buffer@_K@?$output_processor@DV?$string_output_adapter@D@__crt_stdio_output@@V?$standard_base@DV?$string_output_adapter@D@__crt_stdio_output@@@2@@__crt_stdio_output@@AEAAX_KI_N@Z 000000018002b96c     libucrt:output.obj
 0004:00000978       $pdata$??$type_case_integer_parse_into_buffer@_K@?$output_processor@_WV?$string_output_adapter@_W@__crt_stdio_output@@V?$standard_base@_WV?$string_output_adapter@_W@__crt_stdio_output@@@2@@__crt_stdio_output@@AEAAX_KI_N@Z 000000018002b978     libucrt:output.obj
 0004:00000978       $pdata$??$type_case_integer_parse_into_buffer@_K@?$output_processor@_WV?$stream_output_adapter@_W@__crt_stdio_output@@V?$standard_base@_WV?$stream_output_adapter@_W@__crt_stdio_output@@@2@@__crt_stdio_output@@AEAAX_KI_N@Z 000000018002b978     libucrt:output.obj
 0004:00000984       $pdata$??$write_multiple_characters@V?$stream_output_adapter@_W@__crt_stdio_output@@D@__crt_stdio_output@@YAXAEBV?$stream_output_adapter@_W@0@DHQEAH@Z 000000018002b984     libucrt:output.obj
 0004:00000990       $pdata$??$write_multiple_characters@V?$string_output_adapter@D@__crt_stdio_output@@D@__crt_stdio_output@@YAXAEBV?$string_output_adapter@D@0@DHQEAH@Z 000000018002b990     libucrt:output.obj
 0004:0000099c       $pdata$??$write_multiple_characters@V?$string_output_adapter@_W@__crt_stdio_output@@D@__crt_stdio_output@@YAXAEBV?$string_output_adapter@_W@0@DHQEAH@Z 000000018002b99c     libucrt:output.obj
 0004:000009a8       $pdata$??0_LocaleUpdate@@QEAA@QEAU__crt_locale_pointers@@@Z 000000018002b9a8     libucrt:output.obj
 0004:000009b4       $pdata$??R<lambda_a775ed57af18ba8e4d5dc780aa9068fe>@@QEBAHXZ 000000018002b9b4     libucrt:output.obj
 0004:000009c0       $pdata$?force_decimal_point@__crt_stdio_output@@YAXPEADQEAU__crt_locale_pointers@@@Z 000000018002b9c0     libucrt:output.obj
 0004:000009cc       $pdata$?parse_int_from_format_string@?$output_processor@DV?$string_output_adapter@D@__crt_stdio_output@@V?$standard_base@DV?$string_output_adapter@D@__crt_stdio_output@@@2@@__crt_stdio_output@@AEAA_NQEAH@Z 000000018002b9cc     libucrt:output.obj
 0004:000009d8       $pdata$?parse_int_from_format_string@?$output_processor@_WV?$stream_output_adapter@_W@__crt_stdio_output@@V?$standard_base@_WV?$stream_output_adapter@_W@__crt_stdio_output@@@2@@__crt_stdio_output@@AEAA_NQEAH@Z 000000018002b9d8     libucrt:output.obj
 0004:000009d8       $pdata$?parse_int_from_format_string@?$output_processor@_WV?$string_output_adapter@_W@__crt_stdio_output@@V?$standard_base@_WV?$string_output_adapter@_W@__crt_stdio_output@@@2@@__crt_stdio_output@@AEAA_NQEAH@Z 000000018002b9d8     libucrt:output.obj
 0004:000009e4       $pdata$?process@?$output_processor@DV?$string_output_adapter@D@__crt_stdio_output@@V?$standard_base@DV?$string_output_adapter@D@__crt_stdio_output@@@2@@__crt_stdio_output@@QEAAHXZ 000000018002b9e4     libucrt:output.obj
 0004:000009f0       $pdata$?process@?$output_processor@_WV?$stream_output_adapter@_W@__crt_stdio_output@@V?$standard_base@_WV?$stream_output_adapter@_W@__crt_stdio_output@@@2@@__crt_stdio_output@@QEAAHXZ 000000018002b9f0     libucrt:output.obj
 0004:000009fc       $pdata$?process@?$output_processor@_WV?$string_output_adapter@_W@__crt_stdio_output@@V?$standard_base@_WV?$string_output_adapter@_W@__crt_stdio_output@@@2@@__crt_stdio_output@@QEAAHXZ 000000018002b9fc     libucrt:output.obj
 0004:00000a08       $pdata$?state_case_normal@?$output_processor@DV?$string_output_adapter@D@__crt_stdio_output@@V?$standard_base@DV?$string_output_adapter@D@__crt_stdio_output@@@2@@__crt_stdio_output@@AEAA_NXZ 000000018002ba08     libucrt:output.obj
 0004:00000a14       $pdata$?state_case_normal_tchar@?$output_processor@DV?$string_output_adapter@D@__crt_stdio_output@@V?$standard_base@DV?$string_output_adapter@D@__crt_stdio_output@@@2@@__crt_stdio_output@@AEAA_ND@Z 000000018002ba14     libucrt:output.obj
 0004:00000a20       $pdata$?state_case_size@?$output_processor@DV?$string_output_adapter@D@__crt_stdio_output@@V?$standard_base@DV?$string_output_adapter@D@__crt_stdio_output@@@2@@__crt_stdio_output@@AEAA_NXZ 000000018002ba20     libucrt:output.obj
 0004:00000a2c       $pdata$?state_case_size@?$output_processor@_WV?$stream_output_adapter@_W@__crt_stdio_output@@V?$standard_base@_WV?$stream_output_adapter@_W@__crt_stdio_output@@@2@@__crt_stdio_output@@AEAA_NXZ 000000018002ba2c     libucrt:output.obj
 0004:00000a38       $pdata$?state_case_size@?$output_processor@_WV?$string_output_adapter@_W@__crt_stdio_output@@V?$standard_base@_WV?$string_output_adapter@_W@__crt_stdio_output@@@2@@__crt_stdio_output@@AEAA_NXZ 000000018002ba38     libucrt:output.obj
 0004:00000a44       $pdata$?state_case_type@?$output_processor@DV?$string_output_adapter@D@__crt_stdio_output@@V?$standard_base@DV?$string_output_adapter@D@__crt_stdio_output@@@2@@__crt_stdio_output@@AEAA_NXZ 000000018002ba44     libucrt:output.obj
 0004:00000a50       $pdata$?state_case_type@?$output_processor@_WV?$stream_output_adapter@_W@__crt_stdio_output@@V?$standard_base@_WV?$stream_output_adapter@_W@__crt_stdio_output@@@2@@__crt_stdio_output@@AEAA_NXZ 000000018002ba50     libucrt:output.obj
 0004:00000a5c       $pdata$?state_case_type@?$output_processor@_WV?$string_output_adapter@_W@__crt_stdio_output@@V?$standard_base@_WV?$string_output_adapter@_W@__crt_stdio_output@@@2@@__crt_stdio_output@@AEAA_NXZ 000000018002ba5c     libucrt:output.obj
 0004:00000a68       $pdata$?type_case_Z@?$output_processor@DV?$string_output_adapter@D@__crt_stdio_output@@V?$standard_base@DV?$string_output_adapter@D@__crt_stdio_output@@@2@@__crt_stdio_output@@AEAA_NXZ 000000018002ba68     libucrt:output.obj
 0004:00000a74       $pdata$?type_case_Z@?$output_processor@_WV?$stream_output_adapter@_W@__crt_stdio_output@@V?$standard_base@_WV?$stream_output_adapter@_W@__crt_stdio_output@@@2@@__crt_stdio_output@@AEAA_NXZ 000000018002ba74     libucrt:output.obj
 0004:00000a74       $pdata$?type_case_Z@?$output_processor@_WV?$string_output_adapter@_W@__crt_stdio_output@@V?$standard_base@_WV?$string_output_adapter@_W@__crt_stdio_output@@@2@@__crt_stdio_output@@AEAA_NXZ 000000018002ba74     libucrt:output.obj
 0004:00000a80       $pdata$?type_case_a@?$output_processor@DV?$string_output_adapter@D@__crt_stdio_output@@V?$standard_base@DV?$string_output_adapter@D@__crt_stdio_output@@@2@@__crt_stdio_output@@AEAA_NXZ 000000018002ba80     libucrt:output.obj
 0004:00000a8c       $pdata$?type_case_a@?$output_processor@_WV?$stream_output_adapter@_W@__crt_stdio_output@@V?$standard_base@_WV?$stream_output_adapter@_W@__crt_stdio_output@@@2@@__crt_stdio_output@@AEAA_NXZ 000000018002ba8c     libucrt:output.obj
 0004:00000a8c       $pdata$?type_case_a@?$output_processor@_WV?$string_output_adapter@_W@__crt_stdio_output@@V?$standard_base@_WV?$string_output_adapter@_W@__crt_stdio_output@@@2@@__crt_stdio_output@@AEAA_NXZ 000000018002ba8c     libucrt:output.obj
 0004:00000a98       $pdata$?type_case_c_tchar@?$output_processor@DV?$string_output_adapter@D@__crt_stdio_output@@V?$standard_base@DV?$string_output_adapter@D@__crt_stdio_output@@@2@@__crt_stdio_output@@AEAA_ND@Z 000000018002ba98     libucrt:output.obj
 0004:00000aa4       $pdata$?type_case_c_tchar@?$output_processor@_WV?$stream_output_adapter@_W@__crt_stdio_output@@V?$standard_base@_WV?$stream_output_adapter@_W@__crt_stdio_output@@@2@@__crt_stdio_output@@AEAA_N_W@Z 000000018002baa4     libucrt:output.obj
 0004:00000aa4       $pdata$?type_case_c_tchar@?$output_processor@_WV?$string_output_adapter@_W@__crt_stdio_output@@V?$standard_base@_WV?$string_output_adapter@_W@__crt_stdio_output@@@2@@__crt_stdio_output@@AEAA_N_W@Z 000000018002baa4     libucrt:output.obj
 0004:00000ab0       $pdata$?type_case_integer@?$output_processor@DV?$string_output_adapter@D@__crt_stdio_output@@V?$standard_base@DV?$string_output_adapter@D@__crt_stdio_output@@@2@@__crt_stdio_output@@AEAA_NI_N@Z 000000018002bab0     libucrt:output.obj
 0004:00000abc       $pdata$?type_case_integer@?$output_processor@_WV?$string_output_adapter@_W@__crt_stdio_output@@V?$standard_base@_WV?$string_output_adapter@_W@__crt_stdio_output@@@2@@__crt_stdio_output@@AEAA_NI_N@Z 000000018002babc     libucrt:output.obj
 0004:00000abc       $pdata$?type_case_integer@?$output_processor@_WV?$stream_output_adapter@_W@__crt_stdio_output@@V?$standard_base@_WV?$stream_output_adapter@_W@__crt_stdio_output@@@2@@__crt_stdio_output@@AEAA_NI_N@Z 000000018002babc     libucrt:output.obj
 0004:00000ac8       $pdata$?type_case_n@?$output_processor@_WV?$string_output_adapter@_W@__crt_stdio_output@@V?$standard_base@_WV?$string_output_adapter@_W@__crt_stdio_output@@@2@@__crt_stdio_output@@AEAA_NXZ 000000018002bac8     libucrt:output.obj
 0004:00000ac8       $pdata$?type_case_n@?$output_processor@_WV?$stream_output_adapter@_W@__crt_stdio_output@@V?$standard_base@_WV?$stream_output_adapter@_W@__crt_stdio_output@@@2@@__crt_stdio_output@@AEAA_NXZ 000000018002bac8     libucrt:output.obj
 0004:00000ac8       $pdata$?type_case_n@?$output_processor@DV?$string_output_adapter@D@__crt_stdio_output@@V?$standard_base@DV?$string_output_adapter@D@__crt_stdio_output@@@2@@__crt_stdio_output@@AEAA_NXZ 000000018002bac8     libucrt:output.obj
 0004:00000ad4       $pdata$?type_case_s@?$output_processor@DV?$string_output_adapter@D@__crt_stdio_output@@V?$standard_base@DV?$string_output_adapter@D@__crt_stdio_output@@@2@@__crt_stdio_output@@AEAA_NXZ 000000018002bad4     libucrt:output.obj
 0004:00000ae0       $pdata$?type_case_s@?$output_processor@_WV?$string_output_adapter@_W@__crt_stdio_output@@V?$standard_base@_WV?$string_output_adapter@_W@__crt_stdio_output@@@2@@__crt_stdio_output@@AEAA_NXZ 000000018002bae0     libucrt:output.obj
 0004:00000ae0       $pdata$?type_case_s@?$output_processor@_WV?$stream_output_adapter@_W@__crt_stdio_output@@V?$standard_base@_WV?$stream_output_adapter@_W@__crt_stdio_output@@@2@@__crt_stdio_output@@AEAA_NXZ 000000018002bae0     libucrt:output.obj
 0004:00000aec       $pdata$?write_stored_string_tchar@?$output_processor@DV?$string_output_adapter@D@__crt_stdio_output@@V?$standard_base@DV?$string_output_adapter@D@__crt_stdio_output@@@2@@__crt_stdio_output@@AEAA_ND@Z 000000018002baec     libucrt:output.obj
 0004:00000af8       $pdata$?write_stored_string_tchar@?$output_processor@_WV?$stream_output_adapter@_W@__crt_stdio_output@@V?$standard_base@_WV?$stream_output_adapter@_W@__crt_stdio_output@@@2@@__crt_stdio_output@@AEAA_N_W@Z 000000018002baf8     libucrt:output.obj
 0004:00000b04       $pdata$?write_stored_string_tchar@?$output_processor@_WV?$string_output_adapter@_W@__crt_stdio_output@@V?$standard_base@_WV?$string_output_adapter@_W@__crt_stdio_output@@@2@@__crt_stdio_output@@AEAA_N_W@Z 000000018002bb04     libucrt:output.obj
 0004:00000b10       $pdata$?write_string@?$string_output_adapter@D@__crt_stdio_output@@QEBAXQEBDHQEAHAEAV__crt_deferred_errno_cache@@@Z 000000018002bb10     libucrt:output.obj
 0004:00000b1c       $pdata$?write_string@?$string_output_adapter@_W@__crt_stdio_output@@QEBAXQEB_WHQEAHAEAV__crt_deferred_errno_cache@@@Z 000000018002bb1c     libucrt:output.obj
 0004:00000b28       $pdata$?write_string_impl@?$output_adapter_common@_WV?$stream_output_adapter@_W@__crt_stdio_output@@@__crt_stdio_output@@IEBAXQEB_WHQEAHAEAV__crt_deferred_errno_cache@@@Z 000000018002bb28     libucrt:output.obj
 0004:00000b34       $pdata$__stdio_common_vfwprintf 000000018002bb34     libucrt:output.obj
 0004:00000b40       $pdata$abort               000000018002bb40     libucrt:abort.obj
 0004:00000b4c       $pdata$_callnewh           000000018002bb4c     libucrt:new_handler.obj
 0004:00000b58       $pdata$_query_new_handler  000000018002bb58     libucrt:new_handler.obj
 0004:00000b64       $pdata$_seh_filter_exe     000000018002bb64     libucrt:exception_filter.obj
 0004:00000b70       $pdata$??$?RV<lambda_d80eeec6fff315bfe5c115232f3240e3>@@AEAV<lambda_6e4b09c48022b2350581041d5f6b0c4c>@@V<lambda_2358e3775559c9db80273638284d5e45>@@@?$__crt_seh_guarded_call@X@@QEAAX$$QEAV<lambda_d80eeec6fff315bfe5c115232f3240e3>@@AEAV<lambda_6e4b09c48022b2350581041d5f6b0c4c>@@$$QEAV<lambda_2358e3775559c9db80273638284d5e45>@@@Z 000000018002bb70     libucrt:exit.obj
 0004:00000b7c       $pdata$??R<lambda_6e4b09c48022b2350581041d5f6b0c4c>@@QEBA@XZ 000000018002bb7c     libucrt:exit.obj
 0004:00000b88       $pdata$?common_exit@@YAXHW4_crt_exit_cleanup_mode@@W4_crt_exit_return_mode@@@Z 000000018002bb88     libucrt:exit.obj
 0004:00000b94       $pdata$?exit_or_terminate_process@@YAXI@Z 000000018002bb94     libucrt:exit.obj
 0004:00000ba0       $pdata$?try_cor_exit_process@@YAXI@Z 000000018002bba0     libucrt:exit.obj
 0004:00000bac       $pdata$??$parse_command_line@D@@YAXPEADPEAPEAD0PEA_K2@Z 000000018002bbac     libucrt:argv_parsing.obj
 0004:00000bb8       $pdata$__acrt_allocate_buffer_for_argv 000000018002bbb8     libucrt:argv_parsing.obj
 0004:00000bc4       $pdata$_configure_narrow_argv 000000018002bbc4     libucrt:argv_parsing.obj
 0004:00000bd0       $pdata$??$common_initialize_environment_nolock@D@@YAHXZ 000000018002bbd0     libucrt:environment_initialization.obj
 0004:00000bdc       $pdata$??$create_environment@D@@YAQEAPEADQEAD@Z 000000018002bbdc     libucrt:environment_initialization.obj
 0004:00000be8       $pdata$??$free_environment@_W@@YAXQEAPEA_W@Z 000000018002bbe8     libucrt:environment_initialization.obj
 0004:00000be8       $pdata$??$free_environment@D@@YAXQEAPEAD@Z 000000018002bbe8     libucrt:environment_initialization.obj
 0004:00000bf4       $pdata$??$uninitialize_environment_internal@D@@YAXAEAPEAPEAD@Z 000000018002bbf4     libucrt:environment_initialization.obj
 0004:00000c00       $pdata$??$uninitialize_environment_internal@_W@@YAXAEAPEAPEA_W@Z 000000018002bc00     libucrt:environment_initialization.obj
 0004:00000c0c       $pdata$__dcrt_uninitialize_environments_nolock 000000018002bc0c     libucrt:environment_initialization.obj
 0004:00000c18       $pdata$??$?RV<lambda_7777bce6b2f8c936911f934f8298dc43>@@AEAV<lambda_f03950bc5685219e0bcd2087efbe011e>@@V<lambda_3883c3dff614d5e0c5f61bb1ac94921c>@@@?$__crt_seh_guarded_call@H@@QEAAH$$QEAV<lambda_7777bce6b2f8c936911f934f8298dc43>@@AEAV<lambda_f03950bc5685219e0bcd2087efbe011e>@@$$QEAV<lambda_3883c3dff614d5e0c5f61bb1ac94921c>@@@Z 000000018002bc18     libucrt:onexit.obj
 0004:00000c24       $pdata$??$?RV<lambda_8369fcb7c4df1e85de37618bd2b85f07>@@AEAV<lambda_a10e4b102d4a2c3aac6f4f48bbdf488f>@@V<lambda_5b7707bd6d7a0c4713179f36c7fd995d>@@@?$__crt_seh_guarded_call@H@@QEAAH$$QEAV<lambda_8369fcb7c4df1e85de37618bd2b85f07>@@AEAV<lambda_a10e4b102d4a2c3aac6f4f48bbdf488f>@@$$QEAV<lambda_5b7707bd6d7a0c4713179f36c7fd995d>@@@Z 000000018002bc24     libucrt:onexit.obj
 0004:00000c30       $pdata$??R<lambda_a10e4b102d4a2c3aac6f4f48bbdf488f>@@QEBAHXZ 000000018002bc30     libucrt:onexit.obj
 0004:00000c3c       $pdata$??R<lambda_f03950bc5685219e0bcd2087efbe011e>@@QEBAHXZ 000000018002bc3c     libucrt:onexit.obj
 0004:00000c48       $pdata$_execute_onexit_table 000000018002bc48     libucrt:onexit.obj
 0004:00000c54       $pdata$_register_onexit_function 000000018002bc54     libucrt:onexit.obj
 0004:00000c60       $pdata$initialize_c        000000018002bc60     libucrt:initialization.obj
 0004:00000c6c       $pdata$uninitialize_environment 000000018002bc6c     libucrt:initialization.obj
 0004:00000c78       $pdata$initialize_pointers 000000018002bc78     libucrt:initialization.obj
 0004:00000c84       $pdata$uninitialize_allocated_memory 000000018002bc84     libucrt:initialization.obj
 0004:00000c90       $pdata$__acrt_thread_attach 000000018002bc90     libucrt:initialization.obj
 0004:00000c9c       $pdata$__acrt_thread_detach 000000018002bc9c     libucrt:initialization.obj
 0004:00000ca8       $pdata$__acrt_uninitialize_critical 000000018002bca8     libucrt:initialization.obj
 0004:00000cb4       $pdata$_initterm           000000018002bcb4     libucrt:initterm.obj
 0004:00000cc0       $pdata$_initterm_e         000000018002bcc0     libucrt:initterm.obj
 0004:00000ccc       $pdata$terminate           000000018002bccc     libucrt:terminate.obj
 0004:00000cd8       $pdata$strcpy_s            000000018002bcd8     libucrt:strcpy_s.obj
 0004:00000ce4       $pdata$_free_base          000000018002bce4     libucrt:free_base.obj
 0004:00000cf0       $pdata$_malloc_base        000000018002bcf0     libucrt:malloc_base.obj
 0004:00000cfc       $pdata$_calloc_base        000000018002bcfc     libucrt:calloc_base.obj
 0004:00000d08       $pdata$??$parse_integer@KV?$c_string_character_source@D@__crt_strtox@@@__crt_strtox@@YAKQEAU__crt_locale_pointers@@V?$c_string_character_source@D@0@H_N@Z 000000018002bd08     libucrt:atox.obj
 0004:00000d14       $pdata$??$parse_integer@KV?$c_string_character_source@_W@__crt_strtox@@@__crt_strtox@@YAKQEAU__crt_locale_pointers@@V?$c_string_character_source@_W@0@H_N@Z 000000018002bd14     libucrt:atox.obj
 0004:00000d20       $pdata$??$?RV<lambda_0ae27a3a962d80f24befdcbee591983d>@@AEAV<lambda_8d0ee55de4b1038c4002e0adecdf1839>@@V<lambda_dc504788e8f1664fe9b84e20bfb512f2>@@@?$__crt_seh_guarded_call@X@@QEAAX$$QEAV<lambda_0ae27a3a962d80f24befdcbee591983d>@@AEAV<lambda_8d0ee55de4b1038c4002e0adecdf1839>@@$$QEAV<lambda_dc504788e8f1664fe9b84e20bfb512f2>@@@Z 000000018002bd20     libucrt:per_thread_data.obj
 0004:00000d2c       $pdata$??$?RV<lambda_2d41944a1d46af3157314b8a01080d33>@@AEAV<lambda_8f455de75cd7d7f24b4096f044d8b9e6>@@V<lambda_aa500f224e6afead328df44964fe2772>@@@?$__crt_seh_guarded_call@X@@QEAAX$$QEAV<lambda_2d41944a1d46af3157314b8a01080d33>@@AEAV<lambda_8f455de75cd7d7f24b4096f044d8b9e6>@@$$QEAV<lambda_aa500f224e6afead328df44964fe2772>@@@Z 000000018002bd2c     libucrt:per_thread_data.obj
 0004:00000d38       $pdata$??$?RV<lambda_aa87e3671a710a21b5dc78c0bdf72e11>@@AEAV<lambda_92619d2358a28f41a33ba319515a20b9>@@V<lambda_6992ecaafeb10aed2b74cb1fae11a551>@@@?$__crt_seh_guarded_call@X@@QEAAX$$QEAV<lambda_aa87e3671a710a21b5dc78c0bdf72e11>@@AEAV<lambda_92619d2358a28f41a33ba319515a20b9>@@$$QEAV<lambda_6992ecaafeb10aed2b74cb1fae11a551>@@@Z 000000018002bd38     libucrt:per_thread_data.obj
 0004:00000d44       $pdata$??$?RV<lambda_f2e299630e499de9f9a165e60fcd3db5>@@AEAV<lambda_2ae9d31cdba2644fcbeaf08da7c24588>@@V<lambda_40d01ff24d0e7b3814fdbdcee8eab3c7>@@@?$__crt_seh_guarded_call@X@@QEAAX$$QEAV<lambda_f2e299630e499de9f9a165e60fcd3db5>@@AEAV<lambda_2ae9d31cdba2644fcbeaf08da7c24588>@@$$QEAV<lambda_40d01ff24d0e7b3814fdbdcee8eab3c7>@@@Z 000000018002bd44     libucrt:per_thread_data.obj
 0004:00000d50       $pdata$?construct_ptd_array@@YAXQEAU__acrt_ptd@@@Z 000000018002bd50     libucrt:per_thread_data.obj
 0004:00000d5c       $pdata$?destroy_fls@@YAXPEAX@Z 000000018002bd5c     libucrt:per_thread_data.obj
 0004:00000d68       $pdata$?destroy_ptd_array@@YAXQEAU__acrt_ptd@@@Z 000000018002bd68     libucrt:per_thread_data.obj
 0004:00000d74       $pdata$?replace_current_thread_locale_nolock@@YAXQEAU__acrt_ptd@@QEAU__crt_locale_data@@@Z 000000018002bd74     libucrt:per_thread_data.obj
 0004:00000d80       $pdata$__acrt_freeptd      000000018002bd80     libucrt:per_thread_data.obj
 0004:00000d8c       $pdata$__acrt_getptd       000000018002bd8c     libucrt:per_thread_data.obj
 0004:00000d98       $pdata$__acrt_getptd_head  000000018002bd98     libucrt:per_thread_data.obj
 0004:00000da4       $pdata$__acrt_getptd_noexit 000000018002bda4     libucrt:per_thread_data.obj
 0004:00000db0       $pdata$__acrt_initialize_ptd 000000018002bdb0     libucrt:per_thread_data.obj
 0004:00000dbc       $pdata$__acrt_uninitialize_ptd 000000018002bdbc     libucrt:per_thread_data.obj
 0004:00000dc8       $pdata$??$common_xtox@K_W@@YAHKQEA_W_KI_N@Z 000000018002bdc8     libucrt:xtoa.obj
 0004:00000dd4       $pdata$??$common_xtox_s@K_W@@YAHKQEA_W_KI_N@Z 000000018002bdd4     libucrt:xtoa.obj
 0004:00000de0       $pdata$_itow_s             000000018002bde0     libucrt:xtoa.obj
 0004:00000dec       $pdata$_set_error_mode     000000018002bdec     libucrt:set_error_mode.obj
 0004:00000df8       $pdata$wcscat_s            000000018002bdf8     libucrt:wcscat_s.obj
 0004:00000e04       $pdata$wcscpy_s            000000018002be04     libucrt:wcscpy_s.obj
 0004:00000e10       $pdata$wcsncat_s           000000018002be10     libucrt:wcsncat_s.obj
 0004:00000e1c       $pdata$__acrt_show_wide_message_box 000000018002be1c     libucrt:crtmbox.obj
 0004:00000e28       $pdata$__acrt_initialize_stdio 000000018002be28     libucrt:_file.obj
 0004:00000e34       $pdata$__acrt_uninitialize_stdio 000000018002be34     libucrt:_file.obj
 0004:00000e40       $pdata$??$?RV<lambda_842d9ff0dc9ef11c61343bbaebe7f885>@@AEAV<lambda_c5860995281e5c4ce005b3de8f5874ee>@@V<lambda_d90129c13df834fdcbf8d2b88dafcf2d>@@@?$__crt_seh_guarded_call@X@@QEAAX$$QEAV<lambda_842d9ff0dc9ef11c61343bbaebe7f885>@@AEAV<lambda_c5860995281e5c4ce005b3de8f5874ee>@@$$QEAV<lambda_d90129c13df834fdcbf8d2b88dafcf2d>@@@Z 000000018002be40     libucrt:fflush.obj
 0004:00000e4c       $pdata$??$?RV<lambda_886d6c58226a84441f68b9f2b8217b83>@@AEAV<lambda_ab61a845afdef5b7c387490eaf3616ee>@@V<lambda_f7f22ab5edc0698d5f6905b0d3f44752>@@@?$__crt_seh_guarded_call@X@@QEAAX$$QEAV<lambda_886d6c58226a84441f68b9f2b8217b83>@@AEAV<lambda_ab61a845afdef5b7c387490eaf3616ee>@@$$QEAV<lambda_f7f22ab5edc0698d5f6905b0d3f44752>@@@Z 000000018002be4c     libucrt:fflush.obj
 0004:00000e58       $pdata$??$?RV<lambda_c376a267cfb53b6959b3b692ec76b120>@@AEAV<lambda_9a32fed5bf61b6b509b2d3f6003082a1>@@V<lambda_572fbb9fa0ab338edf41edfd4b5fcc8d>@@@?$__crt_seh_guarded_call@H@@QEAAH$$QEAV<lambda_c376a267cfb53b6959b3b692ec76b120>@@AEAV<lambda_9a32fed5bf61b6b509b2d3f6003082a1>@@$$QEAV<lambda_572fbb9fa0ab338edf41edfd4b5fcc8d>@@@Z 000000018002be58     libucrt:fflush.obj
 0004:00000e64       $pdata$?common_flush_all@@YAH_N@Z 000000018002be64     libucrt:fflush.obj
 0004:00000e70       $pdata$__acrt_stdio_flush_nolock 000000018002be70     libucrt:fflush.obj
 0004:00000e7c       $pdata$_fflush_nolock      000000018002be7c     libucrt:fflush.obj
 0004:00000e88       $pdata$fflush              000000018002be88     libucrt:fflush.obj
 0004:00000e94       $pdata$??$?RV<lambda_84ec643ea9557e2f7dc01bb0e9624395>@@AEAV<lambda_ca71763b3c0644891230e4f79ea54fa6>@@V<lambda_439a761618c59b0600e24586724d733b>@@@?$__crt_seh_guarded_call@H@@QEAAH$$QEAV<lambda_84ec643ea9557e2f7dc01bb0e9624395>@@AEAV<lambda_ca71763b3c0644891230e4f79ea54fa6>@@$$QEAV<lambda_439a761618c59b0600e24586724d733b>@@@Z 000000018002be94     libucrt:setvbuf.obj
 0004:00000ea0       $pdata$??R<lambda_ca71763b3c0644891230e4f79ea54fa6>@@QEBAHXZ 000000018002bea0     libucrt:setvbuf.obj
 0004:00000eac       $pdata$setvbuf             000000018002beac     libucrt:setvbuf.obj
 0004:00000eb8       $pdata$??$?RV<lambda_450d765d439847d4c735a33c368b5fc0>@@AEAV<lambda_44731a7d0e6d81c3e6aa82d741081786>@@V<lambda_601a2a7da3b7a96e9554ac7215c4b07c>@@@?$__crt_seh_guarded_call@P6AXH@Z@@QEAAP6AXH@Z$$QEAV<lambda_450d765d439847d4c735a33c368b5fc0>@@AEAV<lambda_44731a7d0e6d81c3e6aa82d741081786>@@$$QEAV<lambda_601a2a7da3b7a96e9554ac7215c4b07c>@@@Z 000000018002beb8     libucrt:signal.obj
 0004:00000ec4       $pdata$__acrt_get_sigabrt_handler 000000018002bec4     libucrt:signal.obj
 0004:00000ed0       $pdata$raise               000000018002bed0     libucrt:signal.obj
 0004:00000edc       $pdata$isdigit             000000018002bedc     libucrt:_ctype.obj
 0004:00000ee8       $pdata$?internal_isupper_l@@YA_NHQEAU__crt_locale_pointers@@@Z 000000018002bee8     libucrt:tolower_toupper.obj
 0004:00000ef4       $pdata$_tolower_l          000000018002bef4     libucrt:tolower_toupper.obj
 0004:00000f00       $pdata$tolower             000000018002bf00     libucrt:tolower_toupper.obj
 0004:00000f0c       $pdata$strtol              000000018002bf0c     libucrt:strtox.obj
 0004:00000f18       $pdata$wcstol              000000018002bf18     libucrt:strtox.obj
 0004:00000f24       $pdata$_mbtowc_l           000000018002bf24     libucrt:mbtowc.obj
 0004:00000f30       $pdata$_wctomb_s_l         000000018002bf30     libucrt:wctomb.obj
 0004:00000f3c       $pdata$wctomb_s            000000018002bf3c     libucrt:wctomb.obj
 0004:00000f48       $pdata$__acrt_update_locale_info 000000018002bf48     libucrt:locale_update.obj
 0004:00000f54       $pdata$__acrt_update_multibyte_info 000000018002bf54     libucrt:locale_update.obj
 0004:00000f60       $pdata$?fp_format_a@@YAHQEBNPEAD_KQEAD2H_NIQEAU__crt_locale_pointers@@@Z 000000018002bf60     libucrt:cvt.obj
 0004:00000f6c       $pdata$?fp_format_e@@YAHQEBNQEAD_K12H_NIQEAU__crt_locale_pointers@@@Z 000000018002bf6c     libucrt:cvt.obj
 0004:00000f78       $pdata$?fp_format_e_internal@@YAHQEAD_KH_NIQEAU_strflt@@2QEAU__crt_locale_pointers@@@Z 000000018002bf78     libucrt:cvt.obj
 0004:00000f84       $pdata$?fp_format_f_internal@@YAHQEAD_KHQEAU_strflt@@_NQEAU__crt_locale_pointers@@@Z 000000018002bf84     libucrt:cvt.obj
 0004:00000f90       $pdata$?fp_format_g@@YAHQEBNQEAD_K12H_NIQEAU__crt_locale_pointers@@@Z 000000018002bf90     libucrt:cvt.obj
 0004:00000f9c       $pdata$?fp_format_nan_or_infinity@@YAHW4__acrt_fp_class@@_NPEAD_K1@Z 000000018002bf9c     libucrt:cvt.obj
 0004:00000fa8       $pdata$__acrt_fp_format    000000018002bfa8     libucrt:cvt.obj
 0004:00000fb4       $pdata$_fputwc_nolock      000000018002bfb4     libucrt:fputwc.obj
 0004:00000fc0       $pdata$_fileno             000000018002bfc0     libucrt:fileno.obj
 0004:00000fcc       $pdata$__acrt_stdio_begin_temporary_buffering_nolock 000000018002bfcc     libucrt:_sftbuf.obj
 0004:00000fd8       $pdata$__acrt_stdio_end_temporary_buffering_nolock 000000018002bfd8     libucrt:_sftbuf.obj
 0004:00000fe4       $pdata$??$?RV<lambda_410d79af7f07d98d83a3f525b3859a53>@@AEAV<lambda_3e16ef9562a7dcce91392c22ab16ea36>@@V<lambda_38119f0e861e05405d8a144b9b982f0a>@@@?$__crt_seh_guarded_call@X@@QEAAX$$QEAV<lambda_410d79af7f07d98d83a3f525b3859a53>@@AEAV<lambda_3e16ef9562a7dcce91392c22ab16ea36>@@$$QEAV<lambda_38119f0e861e05405d8a144b9b982f0a>@@@Z 000000018002bfe4     libucrt:wsetlocale.obj
 0004:00000ff0       $pdata$__acrt_uninitialize_locale 000000018002bff0     libucrt:wsetlocale.obj
 0004:00000ffc       $pdata$?initialize_inherited_file_handles_nolock@@YAXXZ 000000018002bffc     libucrt:ioinit.obj
 0004:00001008       $pdata$?initialize_stdio_handles_nolock@@YAXXZ 000000018002c008     libucrt:ioinit.obj
 0004:00001014       $pdata$__acrt_initialize_lowio 000000018002c014     libucrt:ioinit.obj
 0004:00001020       $pdata$__acrt_uninitialize_lowio 000000018002c020     libucrt:ioinit.obj
 0004:0000102c       $pdata$__acrt_initialize_locks 000000018002c02c     libucrt:locks.obj
 0004:00001038       $pdata$__acrt_uninitialize_locks 000000018002c038     libucrt:locks.obj
 0004:00001044       $pdata$__acrt_get_developer_information_policy 000000018002c044     libucrt:win_policies.obj
 0004:00001050       $pdata$__acrt_get_process_end_policy 000000018002c050     libucrt:win_policies.obj
 0004:0000105c       $pdata$__acrt_get_windowing_model_policy 000000018002c05c     libucrt:win_policies.obj
 0004:00001068       $pdata$??$common_expand_argv_wildcards@D@@YAHQEAPEADQEAPEAPEAD@Z 000000018002c068     libucrt:argv_wildcards.obj
 0004:00001074       $pdata$??$copy_and_add_argument_to_buffer@D@@YAHQEBD0_KAEAV?$argument_list@D@?A0x5f5c8891@@@Z 000000018002c074     libucrt:argv_wildcards.obj
 0004:00001080       $pdata$??$expand_argument_wildcards@D@@YAHQEAD0AEAV?$argument_list@D@?A0x5f5c8891@@@Z 000000018002c080     libucrt:argv_wildcards.obj
 0004:0000108c       $pdata$??$?RV<lambda_efdfa57d1f175319df784efa44bb7b81>@@AEAV<lambda_5f0a4c1567f8adc6734073e5d1e1b35c>@@V<lambda_2e8a7d3640ea6ccb4c2413664c2db6fd>@@@?$__crt_seh_guarded_call@X@@QEAAX$$QEAV<lambda_efdfa57d1f175319df784efa44bb7b81>@@AEAV<lambda_5f0a4c1567f8adc6734073e5d1e1b35c>@@$$QEAV<lambda_2e8a7d3640ea6ccb4c2413664c2db6fd>@@@Z 000000018002c08c     libucrt:mbctype.obj
 0004:00001098       $pdata$?getSystemCP@@YAHH@Z 000000018002c098     libucrt:mbctype.obj
 0004:000010a4       $pdata$?setSBCS@@YAXPEAU__crt_multibyte_data@@@Z 000000018002c0a4     libucrt:mbctype.obj
 0004:000010b0       $pdata$?setSBUpLow@@YAXPEAU__crt_multibyte_data@@@Z 000000018002c0b0     libucrt:mbctype.obj
 0004:000010bc       $pdata$?setmbcp_internal@@YAHH_NQEAU__acrt_ptd@@QEAPEAU__crt_multibyte_data@@@Z 000000018002c0bc     libucrt:mbctype.obj
 0004:000010c8       $pdata$?update_thread_multibyte_data_internal@@YAPEAU__crt_multibyte_data@@QEAU__acrt_ptd@@QEAU1@@Z 000000018002c0c8     libucrt:mbctype.obj
 0004:000010d4       $pdata$__acrt_initialize_multibyte 000000018002c0d4     libucrt:mbctype.obj
 0004:000010e0       $pdata$__acrt_update_thread_multibyte_data 000000018002c0e0     libucrt:mbctype.obj
 0004:000010ec       $pdata$_setmbcp_nolock     000000018002c0ec     libucrt:mbctype.obj
 0004:000010f8       $pdata$?x_ismbbtype_l@@YAHPEAU__crt_locale_pointers@@IHH@Z 000000018002c0f8     libucrt:ismbbyte.obj
 0004:00001104       $pdata$__acrt_initialize_command_line 000000018002c104     libucrt:argv_data.obj
 0004:00001110       $pdata$__dcrt_get_narrow_environment_from_os 000000018002c110     libucrt:get_environment_from_os.obj
 0004:0000111c       $pdata$_recalloc_base      000000018002c11c     libucrt:recalloc.obj
 0004:00001128       $pdata$?try_get_function@@YAPEAXW4function_id@?A0x391cf84c@@QEBDQEBW4module_id@2@2@Z 000000018002c128     libucrt:winapi_thunks.obj
 0004:00001134       $pdata$__acrt_AppPolicyGetProcessTerminationMethodInternal 000000018002c134     libucrt:winapi_thunks.obj
 0004:00001140       $pdata$__acrt_AppPolicyGetShowDeveloperDiagnosticInternal 000000018002c140     libucrt:winapi_thunks.obj
 0004:0000114c       $pdata$__acrt_AppPolicyGetWindowingModelInternal 000000018002c14c     libucrt:winapi_thunks.obj
 0004:00001158       $pdata$__acrt_FlsAlloc     000000018002c158     libucrt:winapi_thunks.obj
 0004:00001164       $pdata$__acrt_FlsFree      000000018002c164     libucrt:winapi_thunks.obj
 0004:00001170       $pdata$__acrt_FlsGetValue  000000018002c170     libucrt:winapi_thunks.obj
 0004:0000117c       $pdata$__acrt_FlsSetValue  000000018002c17c     libucrt:winapi_thunks.obj
 0004:00001188       $pdata$__acrt_InitializeCriticalSectionEx 000000018002c188     libucrt:winapi_thunks.obj
 0004:00001194       $pdata$__acrt_LCMapStringEx 000000018002c194     libucrt:winapi_thunks.obj
 0004:000011a0       $pdata$__acrt_LocaleNameToLCID 000000018002c1a0     libucrt:winapi_thunks.obj
 0004:000011ac       $pdata$__acrt_MessageBoxW  000000018002c1ac     libucrt:winapi_thunks.obj
 0004:000011b8       $pdata$__acrt_can_show_message_box 000000018002c1b8     libucrt:winapi_thunks.obj
 0004:000011c4       $pdata$__acrt_get_parent_window 000000018002c1c4     libucrt:winapi_thunks.obj
 0004:000011d0       $pdata$__acrt_initialize_winapi_thunks 000000018002c1d0     libucrt:winapi_thunks.obj
 0004:000011dc       $pdata$__acrt_is_interactive 000000018002c1dc     libucrt:winapi_thunks.obj
 0004:000011e8       $pdata$__acrt_uninitialize_winapi_thunks 000000018002c1e8     libucrt:winapi_thunks.obj
 0004:000011f4       $pdata$__acrt_initialize_heap 000000018002c1f4     libucrt:heap_handle.obj
 0004:00001200       $pdata$__acrt_execute_initializers 000000018002c200     libucrt:shared_initialization.obj
 0004:0000120c       $pdata$__acrt_execute_uninitializers 000000018002c20c     libucrt:shared_initialization.obj
 0004:00001218       $pdata$__pctype_func       000000018002c218     libucrt:ctype.obj
 0004:00001224       $pdata$iswctype            000000018002c224     libucrt:iswctype.obj
 0004:00001230       $pdata$_isctype_l          000000018002c230     libucrt:isctype.obj
 0004:0000123c       $pdata$__acrt_free_locale  000000018002c23c     libucrt:locale_refcounting.obj
 0004:00001248       $pdata$__acrt_locale_free_lc_time_if_unreferenced 000000018002c248     libucrt:locale_refcounting.obj
 0004:00001254       $pdata$__acrt_release_locale_ref 000000018002c254     libucrt:locale_refcounting.obj
 0004:00001260       $pdata$__acrt_update_thread_locale_data 000000018002c260     libucrt:locale_refcounting.obj
 0004:0000126c       $pdata$_updatetlocinfoEx_nolock 000000018002c26c     libucrt:locale_refcounting.obj
 0004:00001278       $pdata$_fcloseall          000000018002c278     libucrt:closeall.obj
 0004:00001284       $pdata$__acrt_stdio_free_buffer_nolock 000000018002c284     libucrt:_freebuf.obj
 0004:00001290       $pdata$??$?RV<lambda_a37b2b86f63e897a80ea819b0eb08c01>@@AEAV<lambda_38ce7e780aa69e748d6df282ebc68efe>@@V<lambda_99fb1378e971ab6e7edea83e3a7a83a2>@@@?$__crt_seh_guarded_call@H@@QEAAH$$QEAV<lambda_a37b2b86f63e897a80ea819b0eb08c01>@@AEAV<lambda_38ce7e780aa69e748d6df282ebc68efe>@@$$QEAV<lambda_99fb1378e971ab6e7edea83e3a7a83a2>@@@Z 000000018002c290     libucrt:commit.obj
 0004:0000129c       $pdata$_commit             000000018002c29c     libucrt:commit.obj
 0004:000012a8       $pdata$?write_double_translated_ansi_nolock@@YA?AUwrite_result@?A0x17268360@@HQEBDI@Z 000000018002c2a8     libucrt:write.obj
 0004:000012b4       $pdata$?write_requires_double_translation_nolock@@YA_NH@Z 000000018002c2b4     libucrt:write.obj
 0004:000012c0       $pdata$?write_text_ansi_nolock@@YA?AUwrite_result@?A0x17268360@@HQEBDI@Z 000000018002c2c0     libucrt:write.obj
 0004:000012cc       $pdata$?write_text_utf16le_nolock@@YA?AUwrite_result@?A0x17268360@@HQEBDI@Z 000000018002c2cc     libucrt:write.obj
 0004:000012d8       $pdata$?write_text_utf8_nolock@@YA?AUwrite_result@?A0x17268360@@HQEBDI@Z 000000018002c2d8     libucrt:write.obj
 0004:000012e4       $pdata$_write              000000018002c2e4     libucrt:write.obj
 0004:000012f0       $pdata$_write_nolock       000000018002c2f0     libucrt:write.obj
 0004:000012fc       $pdata$_isleadbyte_l       000000018002c2fc     libucrt:_wctype.obj
 0004:00001308       $pdata$?__acrt_LCMapStringA_stat@@YAHPEAU__crt_locale_pointers@@PEB_WKPEBDHPEADHHH@Z 000000018002c308     libucrt:lcmapstringa.obj
 0004:00001314       $pdata$__acrt_LCMapStringA 000000018002c314     libucrt:lcmapstringa.obj
 0004:00001320       $pdata$__acrt_fp_strflt_to_string 000000018002c320     libucrt:_fptostr.obj
 0004:0000132c       $pdata$?divide@__crt_strtox@@YA_KAEAUbig_integer@1@AEBU21@@Z 000000018002c32c     libucrt:cfout.obj
 0004:00001338       $pdata$5$?divide@__crt_strtox@@YA_KAEAUbig_integer@1@AEBU21@@Z 000000018002c338     libucrt:cfout.obj
 0004:00001344       $pdata$6$?divide@__crt_strtox@@YA_KAEAUbig_integer@1@AEBU21@@Z 000000018002c344     libucrt:cfout.obj
 0004:00001350       $pdata$__acrt_fltout       000000018002c350     libucrt:cfout.obj
 0004:0000135c       $pdata$memcpy_s            000000018002c35c     libucrt:cfout.obj
 0004:00001368       $pdata$??$write_buffer_nolock@D@@YA_NDV__crt_stdio_stream@@@Z 000000018002c368     libucrt:_flsbuf.obj
 0004:00001374       $pdata$??$write_buffer_nolock@_W@@YA_N_WV__crt_stdio_stream@@@Z 000000018002c374     libucrt:_flsbuf.obj
 0004:00001380       $pdata$__acrt_stdio_flush_and_write_narrow_nolock 000000018002c380     libucrt:_flsbuf.obj
 0004:0000138c       $pdata$__acrt_stdio_flush_and_write_wide_nolock 000000018002c38c     libucrt:_flsbuf.obj
 0004:00001398       $pdata$_isatty             000000018002c398     libucrt:isatty.obj
 0004:000013a4       $pdata$__acrt_locale_free_monetary 000000018002c3a4     libucrt:initmon.obj
 0004:000013b0       $pdata$__acrt_locale_free_numeric 000000018002c3b0     libucrt:initnum.obj
 0004:000013bc       $pdata$?free_crt_array_internal@@YAXQEAPEBX_K@Z 000000018002c3bc     libucrt:inittime.obj
 0004:000013c8       $pdata$__acrt_locale_free_time 000000018002c3c8     libucrt:inittime.obj
 0004:000013d4       $pdata$__acrt_GetStringTypeA 000000018002c3d4     libucrt:getstringtypea.obj
 0004:000013e0       $pdata$__acrt_lowio_create_handle_array 000000018002c3e0     libucrt:osfinfo.obj
 0004:000013ec       $pdata$__acrt_lowio_destroy_handle_array 000000018002c3ec     libucrt:osfinfo.obj
 0004:000013f8       $pdata$__acrt_lowio_ensure_fh_exists 000000018002c3f8     libucrt:osfinfo.obj
 0004:00001404       $pdata$_free_osfhnd        000000018002c404     libucrt:osfinfo.obj
 0004:00001410       $pdata$_get_osfhandle      000000018002c410     libucrt:osfinfo.obj
 0004:0000141c       $pdata$?shortsort@@YAXPEAD0_KP6AHPEBX2@Z@Z 000000018002c41c     libucrt:qsort.obj
 0004:00001428       $pdata$2$?shortsort@@YAXPEAD0_KP6AHPEBX2@Z@Z 000000018002c428     libucrt:qsort.obj
 0004:00001434       $pdata$3$?shortsort@@YAXPEAD0_KP6AHPEBX2@Z@Z 000000018002c434     libucrt:qsort.obj
 0004:00001440       $pdata$qsort               000000018002c440     libucrt:qsort.obj
 0004:0000144c       $pdata$4$qsort             000000018002c44c     libucrt:qsort.obj
 0004:00001458       $pdata$5$qsort             000000018002c458     libucrt:qsort.obj
 0004:00001464       $pdata$strncpy_s           000000018002c464     libucrt:strncpy_s.obj
 0004:00001470       $pdata$strpbrk             000000018002c470     libucrt:strpbrk.obj
 0004:0000147c       $pdata$_mbsdec_l           000000018002c47c     libucrt:mbsdec.obj
 0004:00001488       $pdata$?initialize_multibyte@@YAHXZ 000000018002c488     libucrt:multibyte_initializer.obj
 0004:00001494       $pdata$_msize_base         000000018002c494     libucrt:msize.obj
 0004:000014a0       $pdata$_realloc_base       000000018002c4a0     libucrt:realloc_base.obj
 0004:000014ac       $pdata$?GetTableIndexFromLocaleName@@YAHPEB_W@Z 000000018002c4ac     libucrt:lcidtoname_downlevel.obj
 0004:000014b8       $pdata$__acrt_DownlevelLocaleNameToLCID 000000018002c4b8     libucrt:lcidtoname_downlevel.obj
 0004:000014c4       $pdata$_fclose_nolock      000000018002c4c4     libucrt:fclose.obj
 0004:000014d0       $pdata$fclose              000000018002c4d0     libucrt:fclose.obj
 0004:000014dc       $pdata$??$common_lseek@_J@@YA_JH_JH@Z 000000018002c4dc     libucrt:lseek.obj
 0004:000014e8       $pdata$??$common_lseek_nolock@_J@@YA_JH_JH@Z 000000018002c4e8     libucrt:lseek.obj
 0004:000014f4       $pdata$_putwch_nolock      000000018002c4f4     libucrt:putwch.obj
 0004:00001500       $pdata$fegetenv            000000018002c500     libucrt:fegetenv.obj
 0004:0000150c       $pdata$fesetenv            000000018002c50c     libucrt:fesetenv.obj
 0004:00001518       $pdata$feholdexcept        000000018002c518     libucrt:feholdexcept.obj
 0004:00001530       $pdata$__acrt_stdio_allocate_buffer_nolock 000000018002c530     libucrt:_getbuf.obj
 0004:0000153c       $pdata$??$?RV<lambda_751a882b2c74d4b022dec766aa51a29a>@@AEAV<lambda_628dfdc04ba53c8bfc02c9951375f3f5>@@V<lambda_f6c7be5f7998530c34de24c7437d6b54>@@@?$__crt_seh_guarded_call@H@@QEAAH$$QEAV<lambda_751a882b2c74d4b022dec766aa51a29a>@@AEAV<lambda_628dfdc04ba53c8bfc02c9951375f3f5>@@$$QEAV<lambda_f6c7be5f7998530c34de24c7437d6b54>@@@Z 000000018002c53c     libucrt:close.obj
 0004:00001548       $pdata$_close              000000018002c548     libucrt:close.obj
 0004:00001554       $pdata$_close_nolock       000000018002c554     libucrt:close.obj
 0004:00001560       $pdata$__dcrt_lowio_ensure_console_output_initialized 000000018002c560     libucrt:initcon.obj
 0004:0000156c       $pdata$__dcrt_terminate_console_output 000000018002c56c     libucrt:initcon.obj
 0004:00001578       $pdata$__dcrt_write_console_w 000000018002c578     libucrt:initcon.obj
 0004:00001584       $pdata$__acrt_fenv_set_control 000000018002c584     libucrt:_fenvutils.obj
 0004:00001590       $pdata$_clearfp            000000018002c590     libucrt:ieee.obj
 0004:0000159c       $pdata$_call_matherr       000000018002c59c     libucrt:libm_error.obj
 0004:000015a8       $pdata$_exception_enabled  000000018002c5a8     libucrt:libm_error.obj
 0004:000015b4       $pdata$_handle_error       000000018002c5b4     libucrt:libm_error.obj
 0004:000015c0       $pdata$__acrt_initialize_fma3 000000018002c5c0     libucrt:fma3_available.obj
 0004:000015cc       $pdata$_log10_special      000000018002c5cc     libucrt:log_special.obj
 0004:000015d8       $pdata$_log_special_common 000000018002c5d8     libucrt:log_special.obj
 0004:000015f0       $pdata$_raise_exc          000000018002c5f0     libucrt:fpexcept.obj
 0004:000015fc       $pdata$_raise_exc_ex       000000018002c5fc     libucrt:fpexcept.obj
 0004:00001608       $pdata$_set_errno_from_matherr 000000018002c608     libucrt:fpexcept.obj
 0004:00001614       $pdata$_clrfp              000000018002c614     libucrt:fpctrl.obj
 0004:00001620       $pdata$_ctrlfp             000000018002c620     libucrt:fpctrl.obj
 0004:0000162c       $pdata$_set_statfp         000000018002c62c     libucrt:fpctrl.obj
 0004:00001638       $pdata$_statfp             000000018002c638     libucrt:fpctrl.obj
 0004:00001644       $pdata$_IsNonwritableInCurrentImage 000000018002c644     LIBCMT:pesect.obj
 0004:00001650       $pdata$__GSHandlerCheck    000000018002c650     LIBCMT:_gshandler_.obj
 0004:0000165c       $pdata$__GSHandlerCheckCommon 000000018002c65c     LIBCMT:_gshandler_.obj
 0004:00001668       $pdata$strrchr             000000018002c668     libvcruntime:strrchr.obj
 0004:0000168c       $pdata$__scrt_is_nonwritable_in_current_image$filt$0 000000018002c68c     LIBCMT:utility.obj
 0004:00001698       $pdata$?fin$0@?0??dllmain_crt_process_attach@@YAHQEAUHINSTANCE__@@QEAX@Z@4HA 000000018002c698     LIBCMT:dll_dllmain.obj
 0004:000016a4       $pdata$?fin$0@?0??dllmain_crt_process_detach@@YAH_N@Z@4HA 000000018002c6a4     LIBCMT:dll_dllmain.obj
 0004:000016b0       $pdata$?filt$0@?0??dllmain_dispatch@@YAHQEAUHINSTANCE__@@KQEAX@Z@4HA 000000018002c6b0     LIBCMT:dll_dllmain.obj
 0004:000016bc       $pdata$_query_new_handler$fin$0 000000018002c6bc     libucrt:new_handler.obj
 0004:000016c8       $pdata$?filt$0@?0???R<lambda_6e4b09c48022b2350581041d5f6b0c4c>@@QEBA@XZ@4HA 000000018002c6c8     libucrt:exit.obj
 0004:000016d4       $pdata$?fin$0@?0???$?RV<lambda_450d765d439847d4c735a33c368b5fc0>@@AEAV<lambda_44731a7d0e6d81c3e6aa82d741081786>@@V<lambda_601a2a7da3b7a96e9554ac7215c4b07c>@@@?$__crt_seh_guarded_call@P6AXH@Z@@QEAAP6AXH@Z$$QEAV<lambda_450d765d439847d4c735a33c368b5fc0>@@AEAV<lambda_44731a7d0e6d81c3e6aa82d741081786>@@$$QEAV<lambda_601a2a7da3b7a96e9554ac7215c4b07c>@@@Z@4HA 000000018002c6d4     libucrt:signal.obj
 0004:000016d4       $pdata$?fin$0@?0???$?RV<lambda_0ae27a3a962d80f24befdcbee591983d>@@AEAV<lambda_8d0ee55de4b1038c4002e0adecdf1839>@@V<lambda_dc504788e8f1664fe9b84e20bfb512f2>@@@?$__crt_seh_guarded_call@X@@QEAAX$$QEAV<lambda_0ae27a3a962d80f24befdcbee591983d>@@AEAV<lambda_8d0ee55de4b1038c4002e0adecdf1839>@@$$QEAV<lambda_dc504788e8f1664fe9b84e20bfb512f2>@@@Z@4HA 000000018002c6d4     libucrt:per_thread_data.obj
 0004:000016d4       $pdata$?fin$0@?0???$?RV<lambda_aa87e3671a710a21b5dc78c0bdf72e11>@@AEAV<lambda_92619d2358a28f41a33ba319515a20b9>@@V<lambda_6992ecaafeb10aed2b74cb1fae11a551>@@@?$__crt_seh_guarded_call@X@@QEAAX$$QEAV<lambda_aa87e3671a710a21b5dc78c0bdf72e11>@@AEAV<lambda_92619d2358a28f41a33ba319515a20b9>@@$$QEAV<lambda_6992ecaafeb10aed2b74cb1fae11a551>@@@Z@4HA 000000018002c6d4     libucrt:per_thread_data.obj
 0004:000016d4       $pdata$?fin$0@?0???$?RV<lambda_f2e299630e499de9f9a165e60fcd3db5>@@AEAV<lambda_2ae9d31cdba2644fcbeaf08da7c24588>@@V<lambda_40d01ff24d0e7b3814fdbdcee8eab3c7>@@@?$__crt_seh_guarded_call@X@@QEAAX$$QEAV<lambda_f2e299630e499de9f9a165e60fcd3db5>@@AEAV<lambda_2ae9d31cdba2644fcbeaf08da7c24588>@@$$QEAV<lambda_40d01ff24d0e7b3814fdbdcee8eab3c7>@@@Z@4HA 000000018002c6d4     libucrt:per_thread_data.obj
 0004:000016d4       $pdata$?fin$0@?0???$?RV<lambda_2d41944a1d46af3157314b8a01080d33>@@AEAV<lambda_8f455de75cd7d7f24b4096f044d8b9e6>@@V<lambda_aa500f224e6afead328df44964fe2772>@@@?$__crt_seh_guarded_call@X@@QEAAX$$QEAV<lambda_2d41944a1d46af3157314b8a01080d33>@@AEAV<lambda_8f455de75cd7d7f24b4096f044d8b9e6>@@$$QEAV<lambda_aa500f224e6afead328df44964fe2772>@@@Z@4HA 000000018002c6d4     libucrt:per_thread_data.obj
 0004:000016d4       $pdata$?fin$0@?0???$?RV<lambda_efdfa57d1f175319df784efa44bb7b81>@@AEAV<lambda_5f0a4c1567f8adc6734073e5d1e1b35c>@@V<lambda_2e8a7d3640ea6ccb4c2413664c2db6fd>@@@?$__crt_seh_guarded_call@X@@QEAAX$$QEAV<lambda_efdfa57d1f175319df784efa44bb7b81>@@AEAV<lambda_5f0a4c1567f8adc6734073e5d1e1b35c>@@$$QEAV<lambda_2e8a7d3640ea6ccb4c2413664c2db6fd>@@@Z@4HA 000000018002c6d4     libucrt:mbctype.obj
 0004:000016d4       $pdata$?fin$0@?0???$?RV<lambda_d80eeec6fff315bfe5c115232f3240e3>@@AEAV<lambda_6e4b09c48022b2350581041d5f6b0c4c>@@V<lambda_2358e3775559c9db80273638284d5e45>@@@?$__crt_seh_guarded_call@X@@QEAAX$$QEAV<lambda_d80eeec6fff315bfe5c115232f3240e3>@@AEAV<lambda_6e4b09c48022b2350581041d5f6b0c4c>@@$$QEAV<lambda_2358e3775559c9db80273638284d5e45>@@@Z@4HA 000000018002c6d4     libucrt:exit.obj
 0004:000016d4       $pdata$?fin$0@?0???$?RV<lambda_7777bce6b2f8c936911f934f8298dc43>@@AEAV<lambda_f03950bc5685219e0bcd2087efbe011e>@@V<lambda_3883c3dff614d5e0c5f61bb1ac94921c>@@@?$__crt_seh_guarded_call@H@@QEAAH$$QEAV<lambda_7777bce6b2f8c936911f934f8298dc43>@@AEAV<lambda_f03950bc5685219e0bcd2087efbe011e>@@$$QEAV<lambda_3883c3dff614d5e0c5f61bb1ac94921c>@@@Z@4HA 000000018002c6d4     libucrt:onexit.obj
 0004:000016d4       $pdata$?fin$0@?0???$?RV<lambda_8369fcb7c4df1e85de37618bd2b85f07>@@AEAV<lambda_a10e4b102d4a2c3aac6f4f48bbdf488f>@@V<lambda_5b7707bd6d7a0c4713179f36c7fd995d>@@@?$__crt_seh_guarded_call@H@@QEAAH$$QEAV<lambda_8369fcb7c4df1e85de37618bd2b85f07>@@AEAV<lambda_a10e4b102d4a2c3aac6f4f48bbdf488f>@@$$QEAV<lambda_5b7707bd6d7a0c4713179f36c7fd995d>@@@Z@4HA 000000018002c6d4     libucrt:onexit.obj
 0004:000016e0       $pdata$?fin$0@?0???$?RV<lambda_842d9ff0dc9ef11c61343bbaebe7f885>@@AEAV<lambda_c5860995281e5c4ce005b3de8f5874ee>@@V<lambda_d90129c13df834fdcbf8d2b88dafcf2d>@@@?$__crt_seh_guarded_call@X@@QEAAX$$QEAV<lambda_842d9ff0dc9ef11c61343bbaebe7f885>@@AEAV<lambda_c5860995281e5c4ce005b3de8f5874ee>@@$$QEAV<lambda_d90129c13df834fdcbf8d2b88dafcf2d>@@@Z@4HA 000000018002c6e0     libucrt:fflush.obj
 0004:000016e0       $pdata$?fin$0@?0???$?RV<lambda_84ec643ea9557e2f7dc01bb0e9624395>@@AEAV<lambda_ca71763b3c0644891230e4f79ea54fa6>@@V<lambda_439a761618c59b0600e24586724d733b>@@@?$__crt_seh_guarded_call@H@@QEAAH$$QEAV<lambda_84ec643ea9557e2f7dc01bb0e9624395>@@AEAV<lambda_ca71763b3c0644891230e4f79ea54fa6>@@$$QEAV<lambda_439a761618c59b0600e24586724d733b>@@@Z@4HA 000000018002c6e0     libucrt:setvbuf.obj
 0004:000016e0       $pdata$?fin$0@?0???$?RV<lambda_0d412022a4b28cc8a401ea49574e8ae6>@@AEAV<lambda_a775ed57af18ba8e4d5dc780aa9068fe>@@V<lambda_975a71a6baa488a08f4e15f6b0339b9e>@@@?$__crt_seh_guarded_call@H@@QEAAH$$QEAV<lambda_0d412022a4b28cc8a401ea49574e8ae6>@@AEAV<lambda_a775ed57af18ba8e4d5dc780aa9068fe>@@$$QEAV<lambda_975a71a6baa488a08f4e15f6b0339b9e>@@@Z@4HA 000000018002c6e0     libucrt:output.obj
 0004:000016e0       $pdata$?fin$0@?0???$?RV<lambda_c376a267cfb53b6959b3b692ec76b120>@@AEAV<lambda_9a32fed5bf61b6b509b2d3f6003082a1>@@V<lambda_572fbb9fa0ab338edf41edfd4b5fcc8d>@@@?$__crt_seh_guarded_call@H@@QEAAH$$QEAV<lambda_c376a267cfb53b6959b3b692ec76b120>@@AEAV<lambda_9a32fed5bf61b6b509b2d3f6003082a1>@@$$QEAV<lambda_572fbb9fa0ab338edf41edfd4b5fcc8d>@@@Z@4HA 000000018002c6e0     libucrt:fflush.obj
 0004:000016ec       $pdata$?fin$0@?0???$?RV<lambda_886d6c58226a84441f68b9f2b8217b83>@@AEAV<lambda_ab61a845afdef5b7c387490eaf3616ee>@@V<lambda_f7f22ab5edc0698d5f6905b0d3f44752>@@@?$__crt_seh_guarded_call@X@@QEAAX$$QEAV<lambda_886d6c58226a84441f68b9f2b8217b83>@@AEAV<lambda_ab61a845afdef5b7c387490eaf3616ee>@@$$QEAV<lambda_f7f22ab5edc0698d5f6905b0d3f44752>@@@Z@4HA 000000018002c6ec     libucrt:fflush.obj
 0004:000016f8       $pdata$raise$fin$0         000000018002c6f8     libucrt:signal.obj
 0004:00001704       $pdata$?fin$0@?0???$?RV<lambda_410d79af7f07d98d83a3f525b3859a53>@@AEAV<lambda_3e16ef9562a7dcce91392c22ab16ea36>@@V<lambda_38119f0e861e05405d8a144b9b982f0a>@@@?$__crt_seh_guarded_call@X@@QEAAX$$QEAV<lambda_410d79af7f07d98d83a3f525b3859a53>@@AEAV<lambda_3e16ef9562a7dcce91392c22ab16ea36>@@$$QEAV<lambda_38119f0e861e05405d8a144b9b982f0a>@@@Z@4HA 000000018002c704     libucrt:wsetlocale.obj
 0004:00001710       $pdata$__acrt_initialize_lowio$fin$0 000000018002c710     libucrt:ioinit.obj
 0004:00001710       $pdata$__acrt_lowio_ensure_fh_exists$fin$0 000000018002c710     libucrt:osfinfo.obj
 0004:0000171c       $pdata$?fin$0@?0??update_thread_multibyte_data_internal@@YAPEAU__crt_multibyte_data@@QEAU__acrt_ptd@@QEAU1@@Z@4HA 000000018002c71c     libucrt:mbctype.obj
 0004:00001728       $pdata$__acrt_update_thread_locale_data$fin$0 000000018002c728     libucrt:locale_refcounting.obj
 0004:00001734       $pdata$_fcloseall$fin$0    000000018002c734     libucrt:closeall.obj
 0004:00001740       $pdata$_write$fin$0        000000018002c740     libucrt:write.obj
 0004:00001740       $pdata$?fin$0@?0???$common_lseek@_J@@YA_JH_JH@Z@4HA 000000018002c740     libucrt:lseek.obj
 0004:0000174c       $pdata$fclose$fin$0        000000018002c74c     libucrt:fclose.obj
 0004:00001758       $pdata$?fin$0@?0???$?RV<lambda_751a882b2c74d4b022dec766aa51a29a>@@AEAV<lambda_628dfdc04ba53c8bfc02c9951375f3f5>@@V<lambda_f6c7be5f7998530c34de24c7437d6b54>@@@?$__crt_seh_guarded_call@H@@QEAAH$$QEAV<lambda_751a882b2c74d4b022dec766aa51a29a>@@AEAV<lambda_628dfdc04ba53c8bfc02c9951375f3f5>@@$$QEAV<lambda_f6c7be5f7998530c34de24c7437d6b54>@@@Z@4HA 000000018002c758     libucrt:close.obj
 0004:00001758       $pdata$?fin$0@?0???$?RV<lambda_a37b2b86f63e897a80ea819b0eb08c01>@@AEAV<lambda_38ce7e780aa69e748d6df282ebc68efe>@@V<lambda_99fb1378e971ab6e7edea83e3a7a83a2>@@@?$__crt_seh_guarded_call@H@@QEAAH$$QEAV<lambda_a37b2b86f63e897a80ea819b0eb08c01>@@AEAV<lambda_38ce7e780aa69e748d6df282ebc68efe>@@$$QEAV<lambda_99fb1378e971ab6e7edea83e3a7a83a2>@@@Z@4HA 000000018002c758     libucrt:commit.obj
 0004:00001764       $pdata$_ctrlfp$filt$0      000000018002c764     libucrt:fpctrl.obj
 0004:00001770       $pdata$_IsNonwritableInCurrentImage$filt$0 000000018002c770     LIBCMT:pesect.obj
 0004:0000177c       $pdata$??__F?g_queue@CallbackInfo@@0V?$queue@PEAVThreadedCallbackInvokation@@V?$deque@PEAVThreadedCallbackInvokation@@V?$allocator@PEAVThreadedCallbackInvokation@@@std@@@std@@@std@@A@@YAXXZ 000000018002c77c     callback_info.obj
 0005:00000060       $R000000                   000000018002d060     * linker generated manifest res *

 Exports

  ordinal    name

        1    _register_ffi_bindings_
