 ffi_bindings

 Timestamp is 5b44721b (Tue Jul 10 16:45:15 2018)

 Preferred load address is 0000000180000000

 Start         Length     Name                   Class
 0001:00000000 00000060H .text$di                CODE
 0001:00000060 0001c550H .text$mn                CODE
 0001:0001c5b0 00000020H .text$mn$00             CODE
 0001:0001c5d0 000003d0H .text$x                 CODE
 0001:0001c9a0 000000eaH .text$yd                CODE
 0002:00000000 00000458H .idata$5                DATA
 0002:00000458 00000010H .00cfg                  DATA
 0002:00000468 00000008H .CRT$XCA                DATA
 0002:00000470 00000010H .CRT$XCU                DATA
 0002:00000480 00000008H .CRT$XCZ                DATA
 0002:00000488 00000008H .CRT$XIA                DATA
 0002:00000490 00000018H .CRT$XIC                DATA
 0002:000004a8 00000008H .CRT$XIZ                DATA
 0002:000004b0 00000008H .CRT$XPA                DATA
 0002:000004b8 00000010H .CRT$XPX                DATA
 0002:000004c8 00000008H .CRT$XPXA               DATA
 0002:000004d0 00000008H .CRT$XPZ                DATA
 0002:000004d8 00000008H .CRT$XTA                DATA
 0002:000004e0 00000010H .CRT$XTZ                DATA
 0002:000004e8 00000000H .gfids$y                DATA
 0002:000004f0 00008930H .rdata                  DATA
 0002:00008e20 0000037cH .rdata$r                DATA
 0002:0000919c 0000037cH .rdata$zzzdbg           DATA
 0002:00009518 00000008H .rtc$IAA                DATA
 0002:00009520 00000008H .rtc$IZZ                DATA
 0002:00009528 00000008H .rtc$TAA                DATA
 0002:00009530 00000008H .rtc$TZZ                DATA
 0002:00009538 00001740H .xdata                  DATA
 0002:0000ac78 000001e8H .xdata$x                DATA
 0002:0000ae60 0000005cH .edata                  DATA
 0002:0000aebc 00000028H .idata$2                DATA
 0002:0000aee4 00000014H .idata$3                DATA
 0002:0000aef8 00000458H .idata$4                DATA
 0002:0000b350 000012aeH .idata$6                DATA
 0003:00000000 00000970H .data                   DATA
 0003:00000970 00000120H .data$r                 DATA
 0003:00000a90 0000172cH .bss                    DATA
 0004:00000000 00001950H .pdata                  DATA
 0005:00000000 00000060H .rsrc$01                DATA
 0005:00000060 00000180H .rsrc$02                DATA

  Address         Publics by Value              Rva+Base               Lib:Object

 0000:00000000       __guard_iat_table          0000000000000000     <absolute>
 0000:00000000       __dynamic_value_reloc_table 0000000000000000     <absolute>
 0000:00000000       __hybrid_code_map          0000000000000000     <absolute>
 0000:00000000       __hybrid_code_map_count    0000000000000000     <absolute>
 0000:00000000       __guard_iat_count          0000000000000000     <absolute>
 0000:00000000       __hybrid_auxiliary_iat     0000000000000000     <absolute>
 0000:00000000       __guard_longjmp_table      0000000000000000     <absolute>
 0000:00000000       __guard_longjmp_count      0000000000000000     <absolute>
 0000:00000000       __guard_fids_count         0000000000000000     <absolute>
 0000:00000000       __enclave_config           0000000000000000     <absolute>
 0000:00000000       ___safe_se_handler_table   0000000000000000     <absolute>
 0000:00000000       ___safe_se_handler_count   0000000000000000     <absolute>
 0000:00000000       __guard_fids_table         0000000000000000     <absolute>
 0000:00000100       __guard_flags              0000000000000100     <absolute>
 0000:00000000       __ImageBase                0000000180000000     <linker-defined>
 0001:00000130       ?ThrowError@Nan@@YAXPEBD@Z 0000000180001130 f i ffi.obj
 0001:000001c0       ?Call@Callback@Nan@@QEBA?AV?$Local@VValue@v8@@@v8@@HQEAV34@@Z 00000001800011c0 f i ffi.obj
 0001:000002c0       ?WrapPointer@@YA?AV?$Local@VValue@v8@@@v8@@PEAD_K@Z 00000001800012c0 f i ffi.obj
 0001:00000380       _guard_check_icall_nop     0000000180001380 f   LIBCMT:guard_support.obj
 0001:00000380       ?wrap_pointer_cb@@YAXPEADPEAX@Z 0000000180001380 f   ffi.obj
 0001:00000390       ?node_ffi_errno@@YAHXZ     0000000180001390 f   ffi.obj
 0001:000003a0       ?InitializeStaticFunctions@FFI@@SAXV?$Local@VObject@v8@@@v8@@@Z 00000001800013a0 f   ffi.obj
 0001:00000770       ?InitializeBindings@FFI@@SAXV?$Local@VObject@v8@@@v8@@@Z 0000000180001770 f   ffi.obj
 0001:000023d0       ?FFIPrepCif@FFI@@KAXAEBV?$FunctionCallbackInfo@VValue@v8@@@Nan@@@Z 00000001800033d0 f   ffi.obj
 0001:000025d0       ?FFIPrepCifVar@FFI@@KAXAEBV?$FunctionCallbackInfo@VValue@v8@@@Nan@@@Z 00000001800035d0 f   ffi.obj
 0001:000027f0       ?FFICall@FFI@@KAXAEBV?$FunctionCallbackInfo@VValue@v8@@@Nan@@@Z 00000001800037f0 f   ffi.obj
 0001:00002920       ?FFICallAsync@FFI@@KAXAEBV?$FunctionCallbackInfo@VValue@v8@@@Nan@@@Z 0000000180003920 f   ffi.obj
 0001:00002b00       ?AsyncFFICall@FFI@@KAXPEAUuv_work_s@@@Z 0000000180003b00 f   ffi.obj
 0001:00002b20       ?FinishAsyncFFICall@FFI@@KAXPEAUuv_work_s@@@Z 0000000180003b20 f   ffi.obj
 0001:00002d30       ?init@@YAXV?$Local@VObject@v8@@@v8@@@Z 0000000180003d30 f   ffi.obj
 0001:00002eb0       ??$New@VFunctionTemplate@v8@@@Nan@@YA?AV?$Local@VFunctionTemplate@v8@@@v8@@P6AXAEBV?$FunctionCallbackInfo@VValue@v8@@@0@@ZV?$Local@VValue@v8@@@2@@Z 0000000180003eb0 f i ffi.obj
 0001:00003060       ?closure_pointer_cb@@YAXPEADPEAX@Z 0000000180004060 f   callback_info.obj
 0001:000030c0       ?DispatchToV8@CallbackInfo@@KAXPEAU_callback_info@@PEAXPEAPEAX_N@Z 00000001800040c0 f   callback_info.obj
 0001:00003300       ?WatcherCallback@CallbackInfo@@SAXPEAUuv_async_s@@H@Z 0000000180004300 f   callback_info.obj
 0001:000033f0       ?Callback@CallbackInfo@@KAXAEBV?$FunctionCallbackInfo@VValue@v8@@@Nan@@@Z 00000001800043f0 f   callback_info.obj
 0001:00003670       ?Invoke@CallbackInfo@@KAXPEAUffi_cif@@PEAXPEAPEAX1@Z 0000000180004670 f   callback_info.obj
 0001:00003840       ?_Growmap@?$deque@PEAVThreadedCallbackInvokation@@V?$allocator@PEAVThreadedCallbackInvokation@@@std@@@std@@IEAAX_K@Z 0000000180004840 f i callback_info.obj
 0001:00003a50       ?_Xlen@?$deque@PEAVThreadedCallbackInvokation@@V?$allocator@PEAVThreadedCallbackInvokation@@@std@@@std@@IEBAXXZ 0000000180004a50 f i callback_info.obj
 0001:00003a70       __local_stdio_printf_options 0000000180004a70 f i win32-dlfcn.obj
 0001:00003a80       sprintf                    0000000180004a80 f i win32-dlfcn.obj
 0001:00003ae0       dlopen                     0000000180004ae0 f   win32-dlfcn.obj
 0001:00003bf0       dlclose                    0000000180004bf0 f   win32-dlfcn.obj
 0001:00003c40       dlsym                      0000000180004c40 f   win32-dlfcn.obj
 0001:00003c70       dlerror                    0000000180004c70 f   win32-dlfcn.obj
 0001:00003d80       ffi_prep_cif_core          0000000180004d80 f   libffi:prep_cif.obj
 0001:00003f40       ffi_prep_args              0000000180004f40 f   libffi:ffi.obj
 0001:00004100       ffi_call                   0000000180005100 f   libffi:ffi.obj
 0001:000041c0       ffi_closure_win64_inner    00000001800051c0 f   libffi:ffi.obj
 0001:00004310       ffi_prep_closure_loc       0000000180005310 f   libffi:ffi.obj
 0001:000063a0       ffi_closure_win64          00000001800073a0 f   libffi:win64.obj
 0001:0000641c       ffi_call_win64             000000018000741c f   libffi:win64.obj
 0001:00006570       ??0bad_alloc@std@@QEAA@AEBV01@@Z 0000000180007570 f i libcpmt:xthrow.obj
 0001:000065b0       ??0bad_alloc@std@@QEAA@XZ  00000001800075b0 f i libcpmt:xthrow.obj
 0001:000065d0       ??0exception@std@@QEAA@AEBV01@@Z 00000001800075d0 f i libcpmt:xthrow.obj
 0001:00006608       ??0length_error@std@@QEAA@AEBV01@@Z 0000000180007608 f i libcpmt:xthrow.obj
 0001:00006648       ??0length_error@std@@QEAA@PEBD@Z 0000000180007648 f i libcpmt:xthrow.obj
 0001:00006694       ??0logic_error@std@@QEAA@AEBV01@@Z 0000000180007694 f i libcpmt:xthrow.obj
 0001:000066d4       ??1bad_alloc@std@@UEAA@XZ  00000001800076d4 f i libcpmt:xthrow.obj
 0001:000066d4       ??1length_error@std@@UEAA@XZ 00000001800076d4 f i libcpmt:xthrow.obj
 0001:000066d4       ??1bad_array_new_length@std@@UEAA@XZ 00000001800076d4 f i LIBCMT:throw_bad_alloc.obj
 0001:000066d4       ??1bad_exception@std@@UEAA@XZ 00000001800076d4 f i libvcruntime:frame.obj
 0001:000066e8       ??_Eexception@std@@UEAAPEAXI@Z 00000001800076e8 f i libcpmt:xthrow.obj
 0001:000066e8       ??_Glogic_error@std@@UEAAPEAXI@Z 00000001800076e8 f i libcpmt:xthrow.obj
 0001:000066e8       ??_Ebad_alloc@std@@UEAAPEAXI@Z 00000001800076e8 f i libcpmt:xthrow.obj
 0001:000066e8       ??_Gbad_array_new_length@std@@UEAAPEAXI@Z 00000001800076e8 f i LIBCMT:throw_bad_alloc.obj
 0001:000066e8       ??_Ebad_array_new_length@std@@UEAAPEAXI@Z 00000001800076e8 f i LIBCMT:throw_bad_alloc.obj
 0001:000066e8       ??_Elength_error@std@@UEAAPEAXI@Z 00000001800076e8 f i libcpmt:xthrow.obj
 0001:000066e8       ??_Gbad_alloc@std@@UEAAPEAXI@Z 00000001800076e8 f i libcpmt:xthrow.obj
 0001:000066e8       ??_Elogic_error@std@@UEAAPEAXI@Z 00000001800076e8 f i libcpmt:xthrow.obj
 0001:000066e8       ??_Gexception@std@@UEAAPEAXI@Z 00000001800076e8 f i libcpmt:xthrow.obj
 0001:000066e8       ??_Ebad_exception@std@@UEAAPEAXI@Z 00000001800076e8 f i libvcruntime:frame.obj
 0001:000066e8       ??_Gbad_exception@std@@UEAAPEAXI@Z 00000001800076e8 f i libvcruntime:frame.obj
 0001:000066e8       ??_Glength_error@std@@UEAAPEAXI@Z 00000001800076e8 f i libcpmt:xthrow.obj
 0001:0000672c       ?_Xlength_error@std@@YAXPEBD@Z 000000018000772c f   libcpmt:xthrow.obj
 0001:00006750       ?what@exception@std@@UEBAPEBDXZ 0000000180007750 f i libcpmt:xthrow.obj
 0001:00006780       __security_check_cookie    0000000180007780 f   LIBCMT:_amdsecgs_.obj
 0001:000067a4       ??2@YAPEAX_K@Z             00000001800077a4 f   LIBCMT:new_scalar.obj
 0001:000067e0       ??3@YAXPEAX_K@Z            00000001800077e0 f   LIBCMT:delete_scalar_size.obj
 0001:000067e8       __scrt_acquire_startup_lock 00000001800077e8 f   LIBCMT:utility.obj
 0001:00006824       __scrt_dllmain_after_initialize_c 0000000180007824 f   LIBCMT:utility.obj
 0001:00006858       __scrt_dllmain_before_initialize_c 0000000180007858 f   LIBCMT:utility.obj
 0001:00006870       __scrt_dllmain_crt_thread_attach 0000000180007870 f   LIBCMT:utility.obj
 0001:00006898       __scrt_dllmain_crt_thread_detach 0000000180007898 f   LIBCMT:utility.obj
 0001:000068b0       __scrt_dllmain_exception_filter 00000001800078b0 f   LIBCMT:utility.obj
 0001:00006910       __scrt_dllmain_uninitialize_c 0000000180007910 f   LIBCMT:utility.obj
 0001:00006940       __scrt_dllmain_uninitialize_critical 0000000180007940 f   LIBCMT:utility.obj
 0001:00006954       __scrt_initialize_crt      0000000180007954 f   LIBCMT:utility.obj
 0001:000069a0       __scrt_initialize_onexit_tables 00000001800079a0 f   LIBCMT:utility.obj
 0001:00006a7c       __scrt_is_nonwritable_in_current_image 0000000180007a7c f   LIBCMT:utility.obj
 0001:00006b18       __scrt_release_startup_lock 0000000180007b18 f   LIBCMT:utility.obj
 0001:00006b3c       __scrt_uninitialize_crt    0000000180007b3c f   LIBCMT:utility.obj
 0001:00006b68       _onexit                    0000000180007b68 f   LIBCMT:utility.obj
 0001:00006bb8       atexit                     0000000180007bb8 f   LIBCMT:utility.obj
 0001:00006ef0       _DllMainCRTStartup         0000000180007ef0 f   LIBCMT:dll_dllmain.obj
 0001:00006f40       _alloca_probe              0000000180007f40 f   LIBCMT:_chkstk_.obj
 0001:00006f40       __chkstk                   0000000180007f40 f   LIBCMT:_chkstk_.obj
 0001:00006f94       ??_Etype_info@@UEAAPEAXI@Z 0000000180007f94 f i LIBCMT:std_type_info_static.obj
 0001:00006f94       ??_Gtype_info@@UEAAPEAXI@Z 0000000180007f94 f i LIBCMT:std_type_info_static.obj
 0001:00006fc0       __raise_securityfailure    0000000180007fc0 f   LIBCMT:gs_report.obj
 0001:00006ff4       __report_gsfailure         0000000180007ff4 f   LIBCMT:gs_report.obj
 0001:000070c8       __report_rangecheckfailure 00000001800080c8 f   LIBCMT:gs_report.obj
 0001:000070dc       __report_securityfailure   00000001800080dc f   LIBCMT:gs_report.obj
 0001:0000725c       ??0bad_array_new_length@std@@QEAA@AEBV01@@Z 000000018000825c f i LIBCMT:throw_bad_alloc.obj
 0001:0000729c       ??0bad_array_new_length@std@@QEAA@XZ 000000018000829c f i LIBCMT:throw_bad_alloc.obj
 0001:000072bc       ?__scrt_throw_std_bad_alloc@@YAXXZ 00000001800082bc f   LIBCMT:throw_bad_alloc.obj
 0001:000072dc       ?__scrt_throw_std_bad_array_new_length@@YAXXZ 00000001800082dc f   LIBCMT:throw_bad_alloc.obj
 0001:000072fc       ??3@YAXPEAX@Z              00000001800082fc f   LIBCMT:delete_scalar.obj
 0001:00007304       __isa_available_init       0000000180008304 f   LIBCMT:_cpu_disp_.obj
 0001:000074c0       _get_startup_argv_mode     00000001800084c0 f   LIBCMT:argv_mode.obj
 0001:000074c0       DllMain                    00000001800084c0 f   LIBCMT:dll_dllmain_stub.obj
 0001:000074c8       __scrt_is_ucrt_dll_in_use  00000001800084c8 f   LIBCMT:ucrt_detection.obj
 0001:000074d4       __crt_debugger_hook        00000001800084d4 f   LIBCMT:utility_desktop.obj
 0001:000074dc       __scrt_fastfail            00000001800084dc f   LIBCMT:utility_desktop.obj
 0001:00007628       __security_init_cookie     0000000180008628 f   LIBCMT:gs_support.obj
 0001:000076d8       ?__scrt_initialize_type_info@@YAXXZ 00000001800086d8 f   LIBCMT:tncleanup.obj
 0001:000076e8       ?__scrt_uninitialize_type_info@@YAXXZ 00000001800086e8 f   LIBCMT:tncleanup.obj
 0001:000076f4       __local_stdio_scanf_options 00000001800086f4 f i LIBCMT:default_local_stdio_options.obj
 0001:000076fc       __scrt_initialize_default_local_stdio_options 00000001800086fc f   LIBCMT:default_local_stdio_options.obj
 0001:00007718       __scrt_get_dyn_tls_init_callback 0000000180008718 f   LIBCMT:dyn_tls_init.obj
 0001:00007720       _RTC_Initialize            0000000180008720 f   LIBCMT:_initsect_.obj
 0001:0000775c       _RTC_Terminate             000000018000875c f   LIBCMT:_initsect_.obj
 0001:000077a0       __std_exception_copy       00000001800087a0 f   libvcruntime:std_exception.obj
 0001:00007830       __std_exception_destroy    0000000180008830 f   libvcruntime:std_exception.obj
 0001:00007858       _CxxThrowException         0000000180008858 f   libvcruntime:throw.obj
 0001:00007918       __vcrt_initialize          0000000180008918 f   libvcruntime:initialization.obj
 0001:0000794c       __vcrt_thread_attach       000000018000894c f   libvcruntime:initialization.obj
 0001:00007960       __vcrt_thread_detach       0000000180008960 f   libvcruntime:initialization.obj
 0001:00007974       __vcrt_uninitialize        0000000180008974 f   libvcruntime:initialization.obj
 0001:00007994       __vcrt_uninitialize_critical 0000000180008994 f   libvcruntime:initialization.obj
 0001:000079a4       __C_specific_handler       00000001800089a4 f   libvcruntime:_riscchandler_.obj
 0001:00007bc0       memset                     0000000180008bc0 f   libvcruntime:memset.obj
 0001:00007d70       __std_type_info_compare    0000000180008d70 f   libvcruntime:std_type_info.obj
 0001:00007d98       __std_type_info_destroy_list 0000000180008d98 f   libvcruntime:std_type_info.obj
 0001:00007dc4       __vcrt_freefls             0000000180008dc4 f   libvcruntime:per_thread_data.obj
 0001:00007de4       __vcrt_freeptd             0000000180008de4 f   libvcruntime:per_thread_data.obj
 0001:00007e34       __vcrt_getptd              0000000180008e34 f   libvcruntime:per_thread_data.obj
 0001:00007e50       __vcrt_getptd_noexit       0000000180008e50 f   libvcruntime:per_thread_data.obj
 0001:00007f08       __vcrt_initialize_ptd      0000000180008f08 f   libvcruntime:per_thread_data.obj
 0001:00007f58       __vcrt_uninitialize_ptd    0000000180008f58 f   libvcruntime:per_thread_data.obj
 0001:00007f7c       __vcrt_initialize_locks    0000000180008f7c f   libvcruntime:locks.obj
 0001:00007fc4       __vcrt_uninitialize_locks  0000000180008fc4 f   libvcruntime:locks.obj
 0001:000081d4       __vcrt_FlsAlloc            00000001800091d4 f   libvcruntime:winapi_downlevel.obj
 0001:0000821c       __vcrt_FlsFree             000000018000921c f   libvcruntime:winapi_downlevel.obj
 0001:00008264       __vcrt_FlsGetValue         0000000180009264 f   libvcruntime:winapi_downlevel.obj
 0001:000082ac       __vcrt_FlsSetValue         00000001800092ac f   libvcruntime:winapi_downlevel.obj
 0001:00008300       __vcrt_InitializeCriticalSectionEx 0000000180009300 f   libvcruntime:winapi_downlevel.obj
 0001:00008364       __vcrt_initialize_winapi_thunks 0000000180009364 f   libvcruntime:winapi_downlevel.obj
 0001:00008394       __vcrt_uninitialize_winapi_thunks 0000000180009394 f   libvcruntime:winapi_downlevel.obj
 0001:000083d4       __vcrt_initialize_pure_virtual_call_handler 00000001800093d4 f   libvcruntime:purevirt_data.obj
 0001:00008400       _local_unwind              0000000180009400 f   libvcruntime:_jmpuwind_.obj
 0001:00008430       _NLG_Notify                0000000180009430 f   libvcruntime:_jmpuwind_.obj
 0001:00008450       __NLG_Dispatch2            0000000180009450 f   libvcruntime:_jmpuwind_.obj
 0001:00008460       __NLG_Return2              0000000180009460 f   libvcruntime:_jmpuwind_.obj
 0001:00008464       __except_validate_context_record 0000000180009464 f   libvcruntime:jbcxrval.obj
 0001:0000849c       ?_ExecutionInCatch@@YAHPEAU_xDISPATCHER_CONTEXT@@PEBU_s_FuncInfo@@@Z 000000018000949c f   libvcruntime:risctrnsctrl.obj
 0001:00008510       ?_GetEstablisherFrame@@YAPEA_KPEA_KPEAU_xDISPATCHER_CONTEXT@@PEBU_s_FuncInfo@@0@Z 0000000180009510 f   libvcruntime:risctrnsctrl.obj
 0001:000085dc       ?_GetRangeOfTrysToCheck@@YAPEBU_s_TryBlockMapEntry@@PEA_KPEBU_s_FuncInfo@@HHPEAI2PEAU_xDISPATCHER_CONTEXT@@@Z 00000001800095dc f   libvcruntime:risctrnsctrl.obj
 0001:00008708       ?__FrameUnwindToEmptyState@@YAXPEA_KPEAU_xDISPATCHER_CONTEXT@@PEBU_s_FuncInfo@@@Z 0000000180009708 f   libvcruntime:risctrnsctrl.obj
 0001:0000879c       _CallSETranslator          000000018000979c f   libvcruntime:risctrnsctrl.obj
 0001:000087f0       _CreateFrameInfo           00000001800097f0 f   libvcruntime:risctrnsctrl.obj
 0001:0000882c       _FindAndUnlinkFrame        000000018000982c f   libvcruntime:risctrnsctrl.obj
 0001:00008880       _GetImageBase              0000000180009880 f   libvcruntime:risctrnsctrl.obj
 0001:00008894       _GetThrowImageBase         0000000180009894 f   libvcruntime:risctrnsctrl.obj
 0001:000088a8       _SetImageBase              00000001800098a8 f   libvcruntime:risctrnsctrl.obj
 0001:000088c0       _SetThrowImageBase         00000001800098c0 f   libvcruntime:risctrnsctrl.obj
 0001:000088d8       _UnwindNestedFrames        00000001800098d8 f   libvcruntime:risctrnsctrl.obj
 0001:000089fc       __CxxFrameHandler3         00000001800099fc f   libvcruntime:risctrnsctrl.obj
 0001:00008a90       memcpy                     0000000180009a90 f   libvcruntime:memcpy.obj
 0001:00008a90       memmove                    0000000180009a90 f   libvcruntime:memcpy.obj
 0001:00008ed8       ?__GetCurrentState@@YAHPEA_KPEAU_xDISPATCHER_CONTEXT@@PEBU_s_FuncInfo@@@Z 0000000180009ed8 f   libvcruntime:riscehstate.obj
 0001:00008f00       ?__GetUnwindTryBlock@@YAHPEA_KPEAU_xDISPATCHER_CONTEXT@@PEBU_s_FuncInfo@@@Z 0000000180009f00 f   libvcruntime:riscehstate.obj
 0001:00008f2c       ?__SetState@@YAXPEA_KPEAU_xDISPATCHER_CONTEXT@@PEBU_s_FuncInfo@@H@Z 0000000180009f2c f   libvcruntime:riscehstate.obj
 0001:00008f38       ?__SetUnwindTryBlock@@YAXPEA_KPEAU_xDISPATCHER_CONTEXT@@PEBU_s_FuncInfo@@H@Z 0000000180009f38 f   libvcruntime:riscehstate.obj
 0001:00008f74       ?__StateFromControlPc@@YAHPEBU_s_FuncInfo@@PEAU_xDISPATCHER_CONTEXT@@@Z 0000000180009f74 f   libvcruntime:riscehstate.obj
 0001:00008f7c       ?__StateFromIp@@YAHPEBU_s_FuncInfo@@PEAU_xDISPATCHER_CONTEXT@@_K@Z 0000000180009f7c f   libvcruntime:riscehstate.obj
 0001:00008fe4       ??0bad_exception@std@@QEAA@AEBV01@@Z 0000000180009fe4 f i libvcruntime:frame.obj
 0001:00009024       ??0bad_exception@std@@QEAA@XZ 000000018000a024 f i libvcruntime:frame.obj
 0001:0000996c       ?_CallMemberFunction1@@YAXQEAX00@Z 000000018000a96c f i libvcruntime:frame.obj
 0001:00009978       ?_CallMemberFunction2@@YAXQEAX00H@Z 000000018000a978 f i libvcruntime:frame.obj
 0001:00009988       __BuildCatchObject         000000018000a988 f   libvcruntime:frame.obj
 0001:00009a48       __BuildCatchObjectHelper   000000018000aa48 f   libvcruntime:frame.obj
 0001:00009c48       __CxxCallCatchBlock        000000018000ac48 f   libvcruntime:frame.obj
 0001:00009e34       __FrameUnwindToState       000000018000ae34 f   libvcruntime:frame.obj
 0001:00009fc8       __InternalCxxFrameHandler  000000018000afc8 f   libvcruntime:frame.obj
 0001:0000a20c       __TypeMatch                000000018000b20c f   libvcruntime:frame.obj
 0001:0000a360       _CallSettingFrame          000000018000b360 f   libvcruntime:handlers.obj
 0001:0000a3a0       __DestructExceptionObject  000000018000b3a0 f   libvcruntime:ehhelpers.obj
 0001:0000a414       ?_CallMemberFunction0@@YAXQEAX0@Z 000000018000b414 f i libvcruntime:ehhelpers.obj
 0001:0000a418       _IsExceptionObjectToBeDestroyed 000000018000b418 f   libvcruntime:ehhelpers.obj
 0001:0000a448       __AdjustPointer            000000018000b448 f   libvcruntime:ehhelpers.obj
 0001:0000a46c       __FrameUnwindFilter        000000018000b46c f   libvcruntime:ehhelpers.obj
 0001:0000a4b8       __acrt_errno_from_os_error 000000018000b4b8 f   libucrt:errno.obj
 0001:0000a500       __acrt_errno_map_os_error  000000018000b500 f   libucrt:errno.obj
 0001:0000a550       __doserrno                 000000018000b550 f   libucrt:errno.obj
 0001:0000a570       _errno                     000000018000b570 f   libucrt:errno.obj
 0001:0000af68       ??$ftprintf@PEAU_iobuf@@PEB_WAEBQEB_WAEBQEB_WAEBI@?$__crt_char_traits@_W@@SAH$$QEAPEAU_iobuf@@$$QEAPEB_WAEBQEB_W2AEBI@Z 000000018000bf68 f i libucrt:assert.obj
 0001:0000af90       _wassert                   000000018000bf90 f   libucrt:assert.obj
 0001:0000b014       fwprintf                   000000018000c014 f i libucrt:assert.obj
 0001:0000b058       swprintf                   000000018000c058 f i libucrt:assert.obj
 0001:0000b0ac       __acrt_call_reportfault    000000018000c0ac f   libucrt:invalid_parameter.obj
 0001:0000b208       __acrt_initialize_invalid_parameter_handler 000000018000c208 f   libucrt:invalid_parameter.obj
 0001:0000b210       _invalid_parameter         000000018000c210 f   libucrt:invalid_parameter.obj
 0001:0000b2c0       _invalid_parameter_noinfo  000000018000c2c0 f   libucrt:invalid_parameter.obj
 0001:0000b2e0       _invalid_parameter_noinfo_noreturn 000000018000c2e0 f   libucrt:invalid_parameter.obj
 0001:0000b310       _invoke_watson             000000018000c310 f   libucrt:invalid_parameter.obj
 0001:0000b738       ??$ensure_buffer_is_big_enough@D@formatting_buffer@__crt_stdio_output@@QEAA_N_K@Z 000000018000c738 f i libucrt:output.obj
 0001:0000b7e0       ??$ensure_buffer_is_big_enough@_W@formatting_buffer@__crt_stdio_output@@QEAA_N_K@Z 000000018000c7e0 f i libucrt:output.obj
 0001:0000b88c       ??$is_wide_character_specifier@_W@__crt_stdio_output@@YA_N_K_WW4length_modifier@0@@Z 000000018000c88c f i libucrt:output.obj
 0001:0000b8cc       ??$type_case_integer_parse_into_buffer@I@?$output_processor@DV?$string_output_adapter@D@__crt_stdio_output@@V?$standard_base@DV?$string_output_adapter@D@__crt_stdio_output@@@2@@__crt_stdio_output@@AEAAXII_N@Z 000000018000c8cc f i libucrt:output.obj
 0001:0000b95c       ??$type_case_integer_parse_into_buffer@I@?$output_processor@_WV?$stream_output_adapter@_W@__crt_stdio_output@@V?$standard_base@_WV?$stream_output_adapter@_W@__crt_stdio_output@@@2@@__crt_stdio_output@@AEAAXII_N@Z 000000018000c95c f i libucrt:output.obj
 0001:0000b95c       ??$type_case_integer_parse_into_buffer@I@?$output_processor@_WV?$string_output_adapter@_W@__crt_stdio_output@@V?$standard_base@_WV?$string_output_adapter@_W@__crt_stdio_output@@@2@@__crt_stdio_output@@AEAAXII_N@Z 000000018000c95c f i libucrt:output.obj
 0001:0000b9fc       ??$type_case_integer_parse_into_buffer@_K@?$output_processor@DV?$string_output_adapter@D@__crt_stdio_output@@V?$standard_base@DV?$string_output_adapter@D@__crt_stdio_output@@@2@@__crt_stdio_output@@AEAAX_KI_N@Z 000000018000c9fc f i libucrt:output.obj
 0001:0000ba90       ??$type_case_integer_parse_into_buffer@_K@?$output_processor@_WV?$string_output_adapter@_W@__crt_stdio_output@@V?$standard_base@_WV?$string_output_adapter@_W@__crt_stdio_output@@@2@@__crt_stdio_output@@AEAAX_KI_N@Z 000000018000ca90 f i libucrt:output.obj
 0001:0000ba90       ??$type_case_integer_parse_into_buffer@_K@?$output_processor@_WV?$stream_output_adapter@_W@__crt_stdio_output@@V?$standard_base@_WV?$stream_output_adapter@_W@__crt_stdio_output@@@2@@__crt_stdio_output@@AEAAX_KI_N@Z 000000018000ca90 f i libucrt:output.obj
 0001:0000bb34       ??$write_multiple_characters@V?$stream_output_adapter@_W@__crt_stdio_output@@D@__crt_stdio_output@@YAXAEBV?$stream_output_adapter@_W@0@DHQEAH@Z 000000018000cb34 f i libucrt:output.obj
 0001:0000bbc8       ??$write_multiple_characters@V?$string_output_adapter@D@__crt_stdio_output@@D@__crt_stdio_output@@YAXAEBV?$string_output_adapter@D@0@DHQEAH@Z 000000018000cbc8 f i libucrt:output.obj
 0001:0000bc40       ??$write_multiple_characters@V?$string_output_adapter@_W@__crt_stdio_output@@D@__crt_stdio_output@@YAXAEBV?$string_output_adapter@_W@0@DHQEAH@Z 000000018000cc40 f i libucrt:output.obj
 0001:0000bcbc       ??0_LocaleUpdate@@QEAA@QEAU__crt_locale_pointers@@@Z 000000018000ccbc f i libucrt:output.obj
 0001:0000bd58       ??1_LocaleUpdate@@QEAA@XZ  000000018000cd58 f i libucrt:output.obj
 0001:0000bea0       ?crop_zeroes@__crt_stdio_output@@YAXPEADQEAU__crt_locale_pointers@@@Z 000000018000cea0 f i libucrt:output.obj
 0001:0000bf0c       ?force_decimal_point@__crt_stdio_output@@YAXPEADQEAU__crt_locale_pointers@@@Z 000000018000cf0c f i libucrt:output.obj
 0001:0000bf7c       ?parse_int_from_format_string@?$output_processor@DV?$string_output_adapter@D@__crt_stdio_output@@V?$standard_base@DV?$string_output_adapter@D@__crt_stdio_output@@@2@@__crt_stdio_output@@AEAA_NQEAH@Z 000000018000cf7c f i libucrt:output.obj
 0001:0000c020       ?parse_int_from_format_string@?$output_processor@_WV?$string_output_adapter@_W@__crt_stdio_output@@V?$standard_base@_WV?$string_output_adapter@_W@__crt_stdio_output@@@2@@__crt_stdio_output@@AEAA_NQEAH@Z 000000018000d020 f i libucrt:output.obj
 0001:0000c020       ?parse_int_from_format_string@?$output_processor@_WV?$stream_output_adapter@_W@__crt_stdio_output@@V?$standard_base@_WV?$stream_output_adapter@_W@__crt_stdio_output@@@2@@__crt_stdio_output@@AEAA_NQEAH@Z 000000018000d020 f i libucrt:output.obj
 0001:0000c0c4       ?process@?$output_processor@DV?$string_output_adapter@D@__crt_stdio_output@@V?$standard_base@DV?$string_output_adapter@D@__crt_stdio_output@@@2@@__crt_stdio_output@@QEAAHXZ 000000018000d0c4 f i libucrt:output.obj
 0001:0000c2c8       ?process@?$output_processor@_WV?$stream_output_adapter@_W@__crt_stdio_output@@V?$standard_base@_WV?$stream_output_adapter@_W@__crt_stdio_output@@@2@@__crt_stdio_output@@QEAAHXZ 000000018000d2c8 f i libucrt:output.obj
 0001:0000c520       ?process@?$output_processor@_WV?$string_output_adapter@_W@__crt_stdio_output@@V?$standard_base@_WV?$string_output_adapter@_W@__crt_stdio_output@@@2@@__crt_stdio_output@@QEAAHXZ 000000018000d520 f i libucrt:output.obj
 0001:0000c77c       ?state_case_normal@?$output_processor@DV?$string_output_adapter@D@__crt_stdio_output@@V?$standard_base@DV?$string_output_adapter@D@__crt_stdio_output@@@2@@__crt_stdio_output@@AEAA_NXZ 000000018000d77c f i libucrt:output.obj
 0001:0000c7f0       ?state_case_normal_tchar@?$output_processor@DV?$string_output_adapter@D@__crt_stdio_output@@V?$standard_base@DV?$string_output_adapter@D@__crt_stdio_output@@@2@@__crt_stdio_output@@AEAA_ND@Z 000000018000d7f0 f i libucrt:output.obj
 0001:0000c888       ?state_case_size@?$output_processor@DV?$string_output_adapter@D@__crt_stdio_output@@V?$standard_base@DV?$string_output_adapter@D@__crt_stdio_output@@@2@@__crt_stdio_output@@AEAA_NXZ 000000018000d888 f i libucrt:output.obj
 0001:0000c9fc       ?state_case_size@?$output_processor@_WV?$stream_output_adapter@_W@__crt_stdio_output@@V?$standard_base@_WV?$stream_output_adapter@_W@__crt_stdio_output@@@2@@__crt_stdio_output@@AEAA_NXZ 000000018000d9fc f i libucrt:output.obj
 0001:0000cb94       ?state_case_size@?$output_processor@_WV?$string_output_adapter@_W@__crt_stdio_output@@V?$standard_base@_WV?$string_output_adapter@_W@__crt_stdio_output@@@2@@__crt_stdio_output@@AEAA_NXZ 000000018000db94 f i libucrt:output.obj
 0001:0000cd2c       ?state_case_type@?$output_processor@DV?$string_output_adapter@D@__crt_stdio_output@@V?$standard_base@DV?$string_output_adapter@D@__crt_stdio_output@@@2@@__crt_stdio_output@@AEAA_NXZ 000000018000dd2c f i libucrt:output.obj
 0001:0000cf98       ?state_case_type@?$output_processor@_WV?$stream_output_adapter@_W@__crt_stdio_output@@V?$standard_base@_WV?$stream_output_adapter@_W@__crt_stdio_output@@@2@@__crt_stdio_output@@AEAA_NXZ 000000018000df98 f i libucrt:output.obj
 0001:0000d284       ?state_case_type@?$output_processor@_WV?$string_output_adapter@_W@__crt_stdio_output@@V?$standard_base@_WV?$string_output_adapter@_W@__crt_stdio_output@@@2@@__crt_stdio_output@@AEAA_NXZ 000000018000e284 f i libucrt:output.obj
 0001:0000d558       ?type_case_Z@?$output_processor@DV?$string_output_adapter@D@__crt_stdio_output@@V?$standard_base@DV?$string_output_adapter@D@__crt_stdio_output@@@2@@__crt_stdio_output@@AEAA_NXZ 000000018000e558 f i libucrt:output.obj
 0001:0000d5d0       ?type_case_Z@?$output_processor@_WV?$stream_output_adapter@_W@__crt_stdio_output@@V?$standard_base@_WV?$stream_output_adapter@_W@__crt_stdio_output@@@2@@__crt_stdio_output@@AEAA_NXZ 000000018000e5d0 f i libucrt:output.obj
 0001:0000d5d0       ?type_case_Z@?$output_processor@_WV?$string_output_adapter@_W@__crt_stdio_output@@V?$standard_base@_WV?$string_output_adapter@_W@__crt_stdio_output@@@2@@__crt_stdio_output@@AEAA_NXZ 000000018000e5d0 f i libucrt:output.obj
 0001:0000d64c       ?type_case_a@?$output_processor@DV?$string_output_adapter@D@__crt_stdio_output@@V?$standard_base@DV?$string_output_adapter@D@__crt_stdio_output@@@2@@__crt_stdio_output@@AEAA_NXZ 000000018000e64c f i libucrt:output.obj
 0001:0000d808       ?type_case_a@?$output_processor@_WV?$stream_output_adapter@_W@__crt_stdio_output@@V?$standard_base@_WV?$stream_output_adapter@_W@__crt_stdio_output@@@2@@__crt_stdio_output@@AEAA_NXZ 000000018000e808 f i libucrt:output.obj
 0001:0000d808       ?type_case_a@?$output_processor@_WV?$string_output_adapter@_W@__crt_stdio_output@@V?$standard_base@_WV?$string_output_adapter@_W@__crt_stdio_output@@@2@@__crt_stdio_output@@AEAA_NXZ 000000018000e808 f i libucrt:output.obj
 0001:0000d9e8       ?type_case_c_tchar@?$output_processor@DV?$string_output_adapter@D@__crt_stdio_output@@V?$standard_base@DV?$string_output_adapter@D@__crt_stdio_output@@@2@@__crt_stdio_output@@AEAA_ND@Z 000000018000e9e8 f i libucrt:output.obj
 0001:0000daac       ?type_case_c_tchar@?$output_processor@_WV?$string_output_adapter@_W@__crt_stdio_output@@V?$standard_base@_WV?$string_output_adapter@_W@__crt_stdio_output@@@2@@__crt_stdio_output@@AEAA_N_W@Z 000000018000eaac f i libucrt:output.obj
 0001:0000daac       ?type_case_c_tchar@?$output_processor@_WV?$stream_output_adapter@_W@__crt_stdio_output@@V?$standard_base@_WV?$stream_output_adapter@_W@__crt_stdio_output@@@2@@__crt_stdio_output@@AEAA_N_W@Z 000000018000eaac f i libucrt:output.obj
 0001:0000db54       ?type_case_integer@?$output_processor@DV?$string_output_adapter@D@__crt_stdio_output@@V?$standard_base@DV?$string_output_adapter@D@__crt_stdio_output@@@2@@__crt_stdio_output@@AEAA_NI_N@Z 000000018000eb54 f i libucrt:output.obj
 0001:0000dd1c       ?type_case_integer@?$output_processor@_WV?$stream_output_adapter@_W@__crt_stdio_output@@V?$standard_base@_WV?$stream_output_adapter@_W@__crt_stdio_output@@@2@@__crt_stdio_output@@AEAA_NI_N@Z 000000018000ed1c f i libucrt:output.obj
 0001:0000dd1c       ?type_case_integer@?$output_processor@_WV?$string_output_adapter@_W@__crt_stdio_output@@V?$standard_base@_WV?$string_output_adapter@_W@__crt_stdio_output@@@2@@__crt_stdio_output@@AEAA_NI_N@Z 000000018000ed1c f i libucrt:output.obj
 0001:0000dee8       ?type_case_n@?$output_processor@_WV?$stream_output_adapter@_W@__crt_stdio_output@@V?$standard_base@_WV?$stream_output_adapter@_W@__crt_stdio_output@@@2@@__crt_stdio_output@@AEAA_NXZ 000000018000eee8 f i libucrt:output.obj
 0001:0000dee8       ?type_case_n@?$output_processor@DV?$string_output_adapter@D@__crt_stdio_output@@V?$standard_base@DV?$string_output_adapter@D@__crt_stdio_output@@@2@@__crt_stdio_output@@AEAA_NXZ 000000018000eee8 f i libucrt:output.obj
 0001:0000dee8       ?type_case_n@?$output_processor@_WV?$string_output_adapter@_W@__crt_stdio_output@@V?$standard_base@_WV?$string_output_adapter@_W@__crt_stdio_output@@@2@@__crt_stdio_output@@AEAA_NXZ 000000018000eee8 f i libucrt:output.obj
 0001:0000dfc4       ?type_case_s@?$output_processor@DV?$string_output_adapter@D@__crt_stdio_output@@V?$standard_base@DV?$string_output_adapter@D@__crt_stdio_output@@@2@@__crt_stdio_output@@AEAA_NXZ 000000018000efc4 f i libucrt:output.obj
 0001:0000e05c       ?type_case_s@?$output_processor@_WV?$stream_output_adapter@_W@__crt_stdio_output@@V?$standard_base@_WV?$stream_output_adapter@_W@__crt_stdio_output@@@2@@__crt_stdio_output@@AEAA_NXZ 000000018000f05c f i libucrt:output.obj
 0001:0000e05c       ?type_case_s@?$output_processor@_WV?$string_output_adapter@_W@__crt_stdio_output@@V?$standard_base@_WV?$string_output_adapter@_W@__crt_stdio_output@@@2@@__crt_stdio_output@@AEAA_NXZ 000000018000f05c f i libucrt:output.obj
 0001:0000e120       ?write_stored_string_tchar@?$output_processor@DV?$string_output_adapter@D@__crt_stdio_output@@V?$standard_base@DV?$string_output_adapter@D@__crt_stdio_output@@@2@@__crt_stdio_output@@AEAA_ND@Z 000000018000f120 f i libucrt:output.obj
 0001:0000e1f8       ?write_stored_string_tchar@?$output_processor@_WV?$stream_output_adapter@_W@__crt_stdio_output@@V?$standard_base@_WV?$stream_output_adapter@_W@__crt_stdio_output@@@2@@__crt_stdio_output@@AEAA_N_W@Z 000000018000f1f8 f i libucrt:output.obj
 0001:0000e300       ?write_stored_string_tchar@?$output_processor@_WV?$string_output_adapter@_W@__crt_stdio_output@@V?$standard_base@_WV?$string_output_adapter@_W@__crt_stdio_output@@@2@@__crt_stdio_output@@AEAA_N_W@Z 000000018000f300 f i libucrt:output.obj
 0001:0000e3ec       ?write_string@?$string_output_adapter@D@__crt_stdio_output@@QEBAXQEBDHQEAHAEAV__crt_deferred_errno_cache@@@Z 000000018000f3ec f i libucrt:output.obj
 0001:0000e490       ?write_string@?$string_output_adapter@_W@__crt_stdio_output@@QEBAXQEB_WHQEAHAEAV__crt_deferred_errno_cache@@@Z 000000018000f490 f i libucrt:output.obj
 0001:0000e538       ?write_string_impl@?$output_adapter_common@_WV?$stream_output_adapter@_W@__crt_stdio_output@@@__crt_stdio_output@@IEBAXQEB_WHQEAHAEAV__crt_deferred_errno_cache@@@Z 000000018000f538 f i libucrt:output.obj
 0001:0000e63c       __stdio_common_vfwprintf   000000018000f63c f   libucrt:output.obj
 0001:0000e6c8       __stdio_common_vsprintf    000000018000f6c8 f   libucrt:output.obj
 0001:0000e6d0       __stdio_common_vswprintf   000000018000f6d0 f   libucrt:output.obj
 0001:0000e6d8       free                       000000018000f6d8 f   libucrt:free.obj
 0001:0000e6ec       malloc                     000000018000f6ec f   libucrt:malloc.obj
 0001:0000e6f4       abort                      000000018000f6f4 f   libucrt:abort.obj
 0001:0000e74c       __acrt_initialize_new_handler 000000018000f74c f   libucrt:new_handler.obj
 0001:0000e754       _callnewh                  000000018000f754 f   libucrt:new_handler.obj
 0001:0000e784       _query_new_handler         000000018000f784 f   libucrt:new_handler.obj
 0001:0000e7b8       _seh_filter_dll            000000018000f7b8 f   libucrt:exception_filter.obj
 0001:0000e7cc       _seh_filter_exe            000000018000f7cc f   libucrt:exception_filter.obj
 0001:0000ebc4       __acrt_initialize_thread_local_exit_callback 000000018000fbc4 f   libucrt:exit.obj
 0001:0000ebcc       _cexit                     000000018000fbcc f   libucrt:exit.obj
 0001:0000ebdc       _exit                      000000018000fbdc f   libucrt:exit.obj
 0001:0000ebe8       _is_c_termination_complete 000000018000fbe8 f   libucrt:exit.obj
 0001:0000edb4       __acrt_allocate_buffer_for_argv 000000018000fdb4 f   libucrt:argv_parsing.obj
 0001:0000ee14       _configure_narrow_argv     000000018000fe14 f   libucrt:argv_parsing.obj
 0001:0000f18c       __dcrt_uninitialize_environments_nolock 000000018001018c f   libucrt:environment_initialization.obj
 0001:0000f1c4       _initialize_narrow_environment 00000001800101c4 f   libucrt:environment_initialization.obj
 0001:0000f554       _crt_atexit                0000000180010554 f   libucrt:onexit.obj
 0001:0000f564       _execute_onexit_table      0000000180010564 f   libucrt:onexit.obj
 0001:0000f5a0       _initialize_onexit_table   00000001800105a0 f   libucrt:onexit.obj
 0001:0000f5e0       _register_onexit_function  00000001800105e0 f   libucrt:onexit.obj
 0001:0000f660       __acrt_uninitialize_command_line 0000000180010660 f   libucrt:argv_data.obj
 0001:0000f76c       __acrt_initialize          000000018001076c f   libucrt:initialization.obj
 0001:0000f780       __acrt_thread_attach       0000000180010780 f   libucrt:initialization.obj
 0001:0000f794       __acrt_thread_detach       0000000180010794 f   libucrt:initialization.obj
 0001:0000f7a4       __acrt_uninitialize        00000001800107a4 f   libucrt:initialization.obj
 0001:0000f7dc       __acrt_uninitialize_critical 00000001800107dc f   libucrt:initialization.obj
 0001:0000f7ec       _initterm                  00000001800107ec f   libucrt:initterm.obj
 0001:0000f850       _initterm_e                0000000180010850 f   libucrt:initterm.obj
 0001:0000f890       terminate                  0000000180010890 f   libucrt:terminate.obj
 0001:0000f8b0       strcpy_s                   00000001800108b0 f   libucrt:strcpy_s.obj
 0001:0000f920       calloc                     0000000180010920 f   libucrt:calloc.obj
 0001:0000f928       wcsncmp                    0000000180010928 f   libucrt:wcsncmp.obj
 0001:0000f954       ??$parse_integer@KV?$c_string_character_source@D@__crt_strtox@@@__crt_strtox@@YAKQEAU__crt_locale_pointers@@V?$c_string_character_source@D@0@H_N@Z 0000000180010954 f i libucrt:atox.obj
 0001:0000fc90       ??$parse_integer@KV?$c_string_character_source@_W@__crt_strtox@@@__crt_strtox@@YAKQEAU__crt_locale_pointers@@V?$c_string_character_source@_W@0@H_N@Z 0000000180010c90 f i libucrt:atox.obj
 0001:00010360       strncmp                    0000000180011360 f   libucrt:strncmp.obj
 0001:00010758       __acrt_freeptd             0000000180011758 f   libucrt:per_thread_data.obj
 0001:0001079c       __acrt_getptd              000000018001179c f   libucrt:per_thread_data.obj
 0001:00010860       __acrt_getptd_head         0000000180011860 f   libucrt:per_thread_data.obj
 0001:00010908       __acrt_getptd_noexit       0000000180011908 f   libucrt:per_thread_data.obj
 0001:000109c0       __acrt_initialize_ptd      00000001800119c0 f   libucrt:per_thread_data.obj
 0001:000109fc       __acrt_uninitialize_ptd    00000001800119fc f   libucrt:per_thread_data.obj
 0001:00010a20       _query_app_type            0000000180011a20 f   libucrt:report_runtime_error.obj
 0001:00010b58       _itow_s                    0000000180011b58 f   libucrt:xtoa.obj
 0001:00010b78       _set_error_mode            0000000180011b78 f   libucrt:set_error_mode.obj
 0001:00010bb8       wcscat_s                   0000000180011bb8 f   libucrt:wcscat_s.obj
 0001:00010c44       wcscpy_s                   0000000180011c44 f   libucrt:wcscpy_s.obj
 0001:00010cbc       wcsncat_s                  0000000180011cbc f   libucrt:wcsncat_s.obj
 0001:00010dd0       __acrt_GetModuleFileNameA  0000000180011dd0 f   libucrt:getmodulefilenamea.obj
 0001:00010e4c       __acrt_show_wide_message_box 0000000180011e4c f   libucrt:crtmbox.obj
 0001:00010ef0       __acrt_initialize_stdio    0000000180011ef0 f   libucrt:_file.obj
 0001:00011010       __acrt_iob_func            0000000180012010 f   libucrt:_file.obj
 0001:00011024       __acrt_uninitialize_stdio  0000000180012024 f   libucrt:_file.obj
 0001:00011080       _lock_file                 0000000180012080 f   libucrt:_file.obj
 0001:0001108c       _unlock_file               000000018001208c f   libucrt:_file.obj
 0001:000112b4       __acrt_stdio_flush_nolock  00000001800122b4 f   libucrt:fflush.obj
 0001:00011330       _fflush_nolock             0000000180012330 f   libucrt:fflush.obj
 0001:0001137c       _flushall                  000000018001237c f   libucrt:fflush.obj
 0001:00011384       fflush                     0000000180012384 f   libucrt:fflush.obj
 0001:0001151c       setvbuf                    000000018001251c f   libucrt:setvbuf.obj
 0001:00011600       __acrt_get_sigabrt_handler 0000000180012600 f   libucrt:signal.obj
 0001:00011630       __acrt_initialize_signal_handlers 0000000180012630 f   libucrt:signal.obj
 0001:00011650       raise                      0000000180012650 f   libucrt:signal.obj
 0001:000118d0       isdigit                    00000001800128d0 f i libucrt:_ctype.obj
 0001:00011998       _tolower_l                 0000000180012998 f   libucrt:tolower_toupper.obj
 0001:00011ad8       tolower                    0000000180012ad8 f   libucrt:tolower_toupper.obj
 0001:00011b04       _free_base                 0000000180012b04 f   libucrt:free_base.obj
 0001:00011b44       _malloc_base               0000000180012b44 f   libucrt:malloc_base.obj
 0001:00011ba4       strtol                     0000000180012ba4 f   libucrt:strtox.obj
 0001:00011bd0       wcstol                     0000000180012bd0 f   libucrt:strtox.obj
 0001:00011bfc       _mbtowc_l                  0000000180012bfc f   libucrt:mbtowc.obj
 0001:00011d78       mbtowc                     0000000180012d78 f   libucrt:mbtowc.obj
 0001:00011d80       _wctomb_s_l                0000000180012d80 f   libucrt:wctomb.obj
 0001:00011f04       wctomb_s                   0000000180012f04 f   libucrt:wctomb.obj
 0001:00011f18       strnlen                    0000000180012f18 f   libucrt:strnlen.obj
 0001:00012068       wcsnlen                    0000000180013068 f   libucrt:strnlen.obj
 0001:00012240       __acrt_update_locale_info  0000000180013240 f   libucrt:locale_update.obj
 0001:00012274       __acrt_update_multibyte_info 0000000180013274 f   libucrt:locale_update.obj
 0001:00012c78       __acrt_fp_format           0000000180013c78 f   libucrt:cvt.obj
 0001:00012f00       _fputwc_nolock             0000000180013f00 f   libucrt:fputwc.obj
 0001:00013078       _fileno                    0000000180014078 f   libucrt:fileno.obj
 0001:000130a0       _fputc_nolock              00000001800140a0 f   libucrt:fputc.obj
 0001:000130b8       _get_printf_count_output   00000001800140b8 f   libucrt:printf_count_output.obj
 0001:000130d0       __acrt_stdio_begin_temporary_buffering_nolock 00000001800140d0 f   libucrt:_sftbuf.obj
 0001:000131a0       __acrt_stdio_end_temporary_buffering_nolock 00000001800141a0 f   libucrt:_sftbuf.obj
 0001:0001324c       __acrt_set_locale_changed  000000018001424c f   libucrt:wsetlocale.obj
 0001:00013258       __acrt_uninitialize_locale 0000000180014258 f   libucrt:wsetlocale.obj
 0001:00013470       __acrt_initialize_lowio    0000000180014470 f   libucrt:ioinit.obj
 0001:000134ac       __acrt_uninitialize_lowio  00000001800144ac f   libucrt:ioinit.obj
 0001:000134ec       __acrt_initialize_locks    00000001800144ec f   libucrt:locks.obj
 0001:00013534       __acrt_lock                0000000180014534 f   libucrt:locks.obj
 0001:00013550       __acrt_uninitialize_locks  0000000180014550 f   libucrt:locks.obj
 0001:00013588       __acrt_unlock              0000000180014588 f   libucrt:locks.obj
 0001:000135a4       __acrt_get_developer_information_policy 00000001800145a4 f   libucrt:win_policies.obj
 0001:000135f8       __acrt_get_process_end_policy 00000001800145f8 f   libucrt:win_policies.obj
 0001:00013634       __acrt_get_windowing_model_policy 0000000180014634 f   libucrt:win_policies.obj
 0001:000136a0       _calloc_base               00000001800146a0 f   libucrt:calloc_base.obj
 0001:00013c80       __acrt_expand_narrow_argv_wildcards 0000000180014c80 f   libucrt:argv_wildcards.obj
 0001:000143b4       __acrt_initialize_multibyte 00000001800153b4 f   libucrt:mbctype.obj
 0001:00014414       __acrt_update_thread_multibyte_data 0000000180015414 f   libucrt:mbctype.obj
 0001:00014430       _setmbcp_nolock            0000000180015430 f   libucrt:mbctype.obj
 0001:00014760       _ismbblead                 0000000180015760 f   libucrt:ismbbyte.obj
 0001:00014774       __acrt_initialize_command_line 0000000180015774 f   libucrt:argv_data.obj
 0001:0001479c       __acrt_MultiByteToWideChar 000000018001579c f   libucrt:multibytetowidechar.obj
 0001:000147f8       __acrt_WideCharToMultiByte 00000001800157f8 f   libucrt:widechartomultibyte.obj
 0001:00014890       __dcrt_get_narrow_environment_from_os 0000000180015890 f   libucrt:get_environment_from_os.obj
 0001:00014994       _recalloc                  0000000180015994 f   libucrt:recalloc.obj
 0001:0001499c       _recalloc_base             000000018001599c f   libucrt:recalloc.obj
 0001:00014c0c       __acrt_AppPolicyGetProcessTerminationMethodInternal 0000000180015c0c f   libucrt:winapi_thunks.obj
 0001:00014c5c       __acrt_AppPolicyGetShowDeveloperDiagnosticInternal 0000000180015c5c f   libucrt:winapi_thunks.obj
 0001:00014cac       __acrt_AppPolicyGetWindowingModelInternal 0000000180015cac f   libucrt:winapi_thunks.obj
 0001:00014cfc       __acrt_FlsAlloc            0000000180015cfc f   libucrt:winapi_thunks.obj
 0001:00014d44       __acrt_FlsFree             0000000180015d44 f   libucrt:winapi_thunks.obj
 0001:00014d8c       __acrt_FlsGetValue         0000000180015d8c f   libucrt:winapi_thunks.obj
 0001:00014dd4       __acrt_FlsSetValue         0000000180015dd4 f   libucrt:winapi_thunks.obj
 0001:00014e28       __acrt_InitializeCriticalSectionEx 0000000180015e28 f   libucrt:winapi_thunks.obj
 0001:00014e8c       __acrt_LCMapStringEx       0000000180015e8c f   libucrt:winapi_thunks.obj
 0001:00014f68       __acrt_LocaleNameToLCID    0000000180015f68 f   libucrt:winapi_thunks.obj
 0001:00014fb8       __acrt_MessageBoxW         0000000180015fb8 f   libucrt:winapi_thunks.obj
 0001:0001502c       __acrt_can_show_message_box 000000018001602c f   libucrt:winapi_thunks.obj
 0001:0001509c       __acrt_get_parent_window   000000018001609c f   libucrt:winapi_thunks.obj
 0001:00015118       __acrt_initialize_winapi_thunks 0000000180016118 f   libucrt:winapi_thunks.obj
 0001:00015160       __acrt_is_interactive      0000000180016160 f   libucrt:winapi_thunks.obj
 0001:00015228       __acrt_uninitialize_winapi_thunks 0000000180016228 f   libucrt:winapi_thunks.obj
 0001:0001526c       __acrt_initialize_heap     000000018001626c f   libucrt:heap_handle.obj
 0001:00015288       __acrt_uninitialize_heap   0000000180016288 f   libucrt:heap_handle.obj
 0001:00015294       __acrt_execute_initializers 0000000180016294 f   libucrt:shared_initialization.obj
 0001:00015314       __acrt_execute_uninitializers 0000000180016314 f   libucrt:shared_initialization.obj
 0001:00015350       __acrt_has_user_matherr    0000000180016350 f   libucrt:matherr.obj
 0001:00015370       __acrt_initialize_user_matherr 0000000180016370 f   libucrt:matherr.obj
 0001:00015378       __acrt_invoke_user_matherr 0000000180016378 f   libucrt:matherr.obj
 0001:000153a8       __pctype_func              00000001800163a8 f   libucrt:ctype.obj
 0001:000153d8       iswctype                   00000001800163d8 f   libucrt:iswctype.obj
 0001:00015448       _isctype_l                 0000000180016448 f   libucrt:isctype.obj
 0001:0001555c       __acrt_add_locale_ref      000000018001655c f   libucrt:locale_refcounting.obj
 0001:000155e8       __acrt_free_locale         00000001800165e8 f   libucrt:locale_refcounting.obj
 0001:00015760       __acrt_locale_add_lc_time_reference 0000000180016760 f   libucrt:locale_refcounting.obj
 0001:00015788       __acrt_locale_free_lc_time_if_unreferenced 0000000180016788 f   libucrt:locale_refcounting.obj
 0001:000157c0       __acrt_locale_release_lc_time_reference 00000001800167c0 f   libucrt:locale_refcounting.obj
 0001:000157e8       __acrt_release_locale_ref  00000001800167e8 f   libucrt:locale_refcounting.obj
 0001:00015890       __acrt_update_thread_locale_data 0000000180016890 f   libucrt:locale_refcounting.obj
 0001:00015900       _updatetlocinfoEx_nolock   0000000180016900 f   libucrt:locale_refcounting.obj
 0001:00015b6c       _mbstowcs_l                0000000180016b6c f   libucrt:mbstowcs.obj
 0001:00015b74       mbstowcs                   0000000180016b74 f   libucrt:mbstowcs.obj
 0001:00015b90       _fcloseall                 0000000180016b90 f   libucrt:closeall.obj
 0001:00015c44       __acrt_stdio_free_buffer_nolock 0000000180016c44 f   libucrt:_freebuf.obj
 0001:00015d10       _commit                    0000000180016d10 f   libucrt:commit.obj
 0001:0001634c       _write                     000000018001734c f   libucrt:write.obj
 0001:00016438       _write_nolock              0000000180017438 f   libucrt:write.obj
 0001:00016718       _isleadbyte_l              0000000180017718 f i libucrt:_wctype.obj
 0001:00016a70       __acrt_LCMapStringA        0000000180017a70 f   libucrt:lcmapstringa.obj
 0001:00016b08       _query_new_mode            0000000180017b08 f   libucrt:new_mode.obj
 0001:00016b10       ?__mbrtowc_utf8@__crt_mbstring@@YA_KPEA_WPEBD_KPEAU_Mbstatet@@@Z 0000000180017b10 f   libucrt:mbrtowc.obj
 0001:00016b4c       ?__mbsrtowcs_utf8@__crt_mbstring@@YA_KPEA_WPEAPEBD_KPEAU_Mbstatet@@@Z 0000000180017b4c f   libucrt:mbrtowc.obj
 0001:00016cc4       __acrt_fp_strflt_to_string 0000000180017cc4 f   libucrt:_fptostr.obj
 0001:00016db0       ?divide@__crt_strtox@@YA_KAEAUbig_integer@1@AEBU21@@Z 0000000180017db0 f i libucrt:cfout.obj
 0001:00017240       __acrt_fltout              0000000180018240 f   libucrt:cfout.obj
 0001:00018764       __acrt_stdio_flush_and_write_narrow_nolock 0000000180019764 f   libucrt:_flsbuf.obj
 0001:0001884c       __acrt_stdio_flush_and_write_wide_nolock 000000018001984c f   libucrt:_flsbuf.obj
 0001:00018938       _isatty                    0000000180019938 f   libucrt:isatty.obj
 0001:00018998       __acrt_locale_free_monetary 0000000180019998 f   libucrt:initmon.obj
 0001:00018aa4       __acrt_locale_free_numeric 0000000180019aa4 f   libucrt:initnum.obj
 0001:00018b64       __acrt_locale_free_time    0000000180019b64 f   libucrt:inittime.obj
 0001:00018c6c       __acrt_GetStringTypeA      0000000180019c6c f   libucrt:getstringtypea.obj
 0001:00018dfc       __acrt_lowio_create_handle_array 0000000180019dfc f   libucrt:osfinfo.obj
 0001:00018e94       __acrt_lowio_destroy_handle_array 0000000180019e94 f   libucrt:osfinfo.obj
 0001:00018ee4       __acrt_lowio_ensure_fh_exists 0000000180019ee4 f   libucrt:osfinfo.obj
 0001:00018f8c       __acrt_lowio_lock_fh       0000000180019f8c f   libucrt:osfinfo.obj
 0001:00018fb0       __acrt_lowio_unlock_fh     0000000180019fb0 f   libucrt:osfinfo.obj
 0001:00018fd4       _free_osfhnd               0000000180019fd4 f   libucrt:osfinfo.obj
 0001:00019090       _get_osfhandle             000000018001a090 f   libucrt:osfinfo.obj
 0001:00019110       qsort                      000000018001a110 f   libucrt:qsort.obj
 0001:000194c0       strncpy_s                  000000018001a4c0 f   libucrt:strncpy_s.obj
 0001:00019650       strpbrk                    000000018001a650 f   libucrt:strpbrk.obj
 0001:00019a30       ??$__acrt_convert_wcs_mbs@D_W$$A6A_KPEA_WPEBD_KPEAU__crt_locale_pointers@@@ZU__crt_win32_buffer_internal_dynamic_resizing@@@@YAHQEBDAEAV?$__crt_win32_buffer@_WU__crt_win32_buffer_internal_dynamic_resizing@@@@A6A_KPEA_WPEBD_KPEAU__crt_locale_pointers@@@Z5@Z 000000018001aa30 f i libucrt:findfirstfileexa.obj
 0001:00019b38       __acrt_FindFirstFileExA    000000018001ab38 f   libucrt:findfirstfileexa.obj
 0001:00019bdc       ??$__acrt_convert_wcs_mbs@_WD$$A6A_KPEADPEB_W_KPEAU__crt_locale_pointers@@@ZU__crt_win32_buffer_no_resizing@@@@YAHQEB_WAEAV?$__crt_win32_buffer@DU__crt_win32_buffer_no_resizing@@@@A6A_KPEADPEB_W_KPEAU__crt_locale_pointers@@@Z5@Z 000000018001abdc f i libucrt:findnextfilea.obj
 0001:00019ca8       __acrt_FindNextFileA       000000018001aca8 f   libucrt:findnextfilea.obj
 0001:00019ddc       _mbsdec                    000000018001addc f   libucrt:mbsdec.obj
 0001:00019de4       _mbsdec_l                  000000018001ade4 f   libucrt:mbsdec.obj
 0001:00019e90       _msize                     000000018001ae90 f   libucrt:msize.obj
 0001:00019e98       _msize_base                000000018001ae98 f   libucrt:msize.obj
 0001:00019ed4       _realloc_base              000000018001aed4 f   libucrt:realloc_base.obj
 0001:0001a038       __acrt_DownlevelLocaleNameToLCID 000000018001b038 f   libucrt:lcidtoname_downlevel.obj
 0001:0001a06c       __acrt_GetStringTypeW      000000018001b06c f   libucrt:getstringtypew.obj
 0001:0001a074       _fclose_nolock             000000018001b074 f   libucrt:fclose.obj
 0001:0001a0f8       fclose                     000000018001b0f8 f   libucrt:fclose.obj
 0001:0001a2e8       _lseeki64                  000000018001b2e8 f   libucrt:lseek.obj
 0001:0001a2f0       _lseeki64_nolock           000000018001b2f0 f   libucrt:lseek.obj
 0001:0001a2f8       _putwch_nolock             000000018001b2f8 f   libucrt:putwch.obj
 0001:0001a334       __strncnt                  000000018001b334 f   libucrt:strncnt.obj
 0001:0001a34c       ?__mbrtoc32_utf8@__crt_mbstring@@YA_KPEA_UPEBD_KPEAU_Mbstatet@@@Z 000000018001b34c f   libucrt:mbrtoc32.obj
 0001:0001a528       fegetenv                   000000018001b528 f   libucrt:fegetenv.obj
 0001:0001a548       fesetenv                   000000018001b548 f   libucrt:fesetenv.obj
 0001:0001a598       feholdexcept               000000018001b598 f   libucrt:feholdexcept.obj
 0001:0001a5e8       ceil                       000000018001b5e8 f   libucrt:ceil.obj
 0001:0001a6b0       log10                      000000018001b6b0 f   libucrt:log10.obj
 0001:0001ac5c       __acrt_stdio_allocate_buffer_nolock 000000018001bc5c f   libucrt:_getbuf.obj
 0001:0001b02c       _wcstombs_l                000000018001c02c f   libucrt:wcstombs.obj
 0001:0001b0a8       _close                     000000018001c0a8 f   libucrt:close.obj
 0001:0001b14c       _close_nolock              000000018001c14c f   libucrt:close.obj
 0001:0001b208       ?__acrt_stdio_free_stream@@YAXV__crt_stdio_stream@@@Z 000000018001c208 f   libucrt:stream.obj
 0001:0001b224       __dcrt_lowio_ensure_console_output_initialized 000000018001c224 f   libucrt:initcon.obj
 0001:0001b278       __dcrt_terminate_console_output 000000018001c278 f   libucrt:initcon.obj
 0001:0001b294       __dcrt_write_console       000000018001c294 f   libucrt:initcon.obj
 0001:0001b354       __acrt_fenv_get_control    000000018001c354 f   libucrt:_fenvutils.obj
 0001:0001b454       __acrt_fenv_get_status     000000018001c454 f   libucrt:_fenvutils.obj
 0001:0001b4ac       __acrt_fenv_set_control    000000018001c4ac f   libucrt:_fenvutils.obj
 0001:0001b5f4       __acrt_fenv_set_status     000000018001c5f4 f   libucrt:_fenvutils.obj
 0001:0001b678       _clearfp                   000000018001c678 f   libucrt:ieee.obj
 0001:0001b80c       _handle_error              000000018001c80c f   libucrt:libm_error.obj
 0001:0001b934       _handle_nan                000000018001c934 f   libucrt:libm_error.obj
 0001:0001b950       __acrt_initialize_fma3     000000018001c950 f   libucrt:fma3_available.obj
 0001:0001b9c0       _log10_special             000000018001c9c0 f   libucrt:log_special.obj
 0001:0001ba78       ?__wcsrtombs_utf8@__crt_mbstring@@YA_KPEADPEAPEB_W_KPEAU_Mbstatet@@@Z 000000018001ca78 f   libucrt:wcrtomb.obj
 0001:0001bbb0       _get_fpsr                  000000018001cbb0 f   libucrt:fpsr.obj
 0001:0001bbc0       _set_fpsr                  000000018001cbc0 f   libucrt:fpsr.obj
 0001:0001bbca       _fclrf                     000000018001cbca f   libucrt:fpsr.obj
 0001:0001bbde       _frnd                      000000018001cbde f   libucrt:fpsr.obj
 0001:0001bc00       _raise_exc                 000000018001cc00 f   libucrt:fpexcept.obj
 0001:0001bc28       _raise_exc_ex              000000018001cc28 f   libucrt:fpexcept.obj
 0001:0001bf38       _set_errno_from_matherr    000000018001cf38 f   libucrt:fpexcept.obj
 0001:0001bf68       _clrfp                     000000018001cf68 f   libucrt:fpctrl.obj
 0001:0001bf88       _ctrlfp                    000000018001cf88 f   libucrt:fpctrl.obj
 0001:0001c004       _set_statfp                000000018001d004 f   libucrt:fpctrl.obj
 0001:0001c024       _statfp                    000000018001d024 f   libucrt:fpctrl.obj
 0001:0001c038       ?__c16rtomb_utf8@__crt_mbstring@@YA_KPEAD_SPEAU_Mbstatet@@@Z 000000018001d038 f   libucrt:c16rtomb.obj
 0001:0001c0e0       ?__c32rtomb_utf8@__crt_mbstring@@YA_KPEAD_UPEAU_Mbstatet@@@Z 000000018001d0e0 f   libucrt:c32rtomb.obj
 0001:0001c198       c32rtomb                   000000018001d198 f   libucrt:c32rtomb.obj
 0001:0001c19d       IsProcessorFeaturePresent  000000018001d19d f   kernel32:KERNEL32.dll
 0001:0001c1a3       RtlUnwindEx                000000018001d1a3 f   kernel32:KERNEL32.dll
 0001:0001c1b0       _FindPESection             000000018001d1b0 f   LIBCMT:pesect.obj
 0001:0001c200       _IsNonwritableInCurrentImage 000000018001d200 f   LIBCMT:pesect.obj
 0001:0001c250       _ValidateImageBase         000000018001d250 f   LIBCMT:pesect.obj
 0001:0001c280       __GSHandlerCheck           000000018001d280 f   LIBCMT:_gshandler_.obj
 0001:0001c2a0       __GSHandlerCheckCommon     000000018001d2a0 f   LIBCMT:_gshandler_.obj
 0001:0001c2fc       __GSHandlerCheck_EH        000000018001d2fc f   LIBCMT:gshandlereh.obj
 0001:0001c37c       strrchr                    000000018001d37c f   libvcruntime:strrchr.obj
 0001:0001c4e0       memcmp                     000000018001d4e0 f   libvcruntime:memcmp.obj
 0001:0001c5c0       _guard_dispatch_icall_nop  000000018001d5c0 f   LIBCMT:_guard_dispatch_.obj
 0002:00000000       __imp_GetCurrentThreadId   000000018001e000     kernel32:KERNEL32.dll
 0002:00000008       __imp_SetLastError         000000018001e008     kernel32:KERNEL32.dll
 0002:00000010       __imp_SetErrorMode         000000018001e010     kernel32:KERNEL32.dll
 0002:00000018       __imp_GetModuleHandleA     000000018001e018     kernel32:KERNEL32.dll
 0002:00000020       __imp_MultiByteToWideChar  000000018001e020     kernel32:KERNEL32.dll
 0002:00000028       __imp_GetLastError         000000018001e028     kernel32:KERNEL32.dll
 0002:00000030       __imp_LoadLibraryW         000000018001e030     kernel32:KERNEL32.dll
 0002:00000038       __imp_GetErrorMode         000000018001e038     kernel32:KERNEL32.dll
 0002:00000040       __imp_GetProcAddress       000000018001e040     kernel32:KERNEL32.dll
 0002:00000048       __imp_FreeLibrary          000000018001e048     kernel32:KERNEL32.dll
 0002:00000050       __imp_CloseHandle          000000018001e050     kernel32:KERNEL32.dll
 0002:00000058       __imp_SetFilePointerEx     000000018001e058     kernel32:KERNEL32.dll
 0002:00000060       __imp_HeapReAlloc          000000018001e060     kernel32:KERNEL32.dll
 0002:00000068       __imp_HeapSize             000000018001e068     kernel32:KERNEL32.dll
 0002:00000070       __imp_SetStdHandle         000000018001e070     kernel32:KERNEL32.dll
 0002:00000078       __imp_GetStringTypeW       000000018001e078     kernel32:KERNEL32.dll
 0002:00000080       __imp_GetConsoleMode       000000018001e080     kernel32:KERNEL32.dll
 0002:00000088       __imp_GetConsoleCP         000000018001e088     kernel32:KERNEL32.dll
 0002:00000090       __imp_FlushFileBuffers     000000018001e090     kernel32:KERNEL32.dll
 0002:00000098       __imp_GetProcessHeap       000000018001e098     kernel32:KERNEL32.dll
 0002:000000a0       __imp_LCMapStringW         000000018001e0a0     kernel32:KERNEL32.dll
 0002:000000a8       __imp_FreeEnvironmentStringsW 000000018001e0a8     kernel32:KERNEL32.dll
 0002:000000b0       __imp_GetEnvironmentStringsW 000000018001e0b0     kernel32:KERNEL32.dll
 0002:000000b8       __imp_WideCharToMultiByte  000000018001e0b8     kernel32:KERNEL32.dll
 0002:000000c0       __imp_GetCommandLineW      000000018001e0c0     kernel32:KERNEL32.dll
 0002:000000c8       __imp_GetCommandLineA      000000018001e0c8     kernel32:KERNEL32.dll
 0002:000000d0       __imp_GetCPInfo            000000018001e0d0     kernel32:KERNEL32.dll
 0002:000000d8       __imp_GetOEMCP             000000018001e0d8     kernel32:KERNEL32.dll
 0002:000000e0       __imp_GetACP               000000018001e0e0     kernel32:KERNEL32.dll
 0002:000000e8       __imp_IsValidCodePage      000000018001e0e8     kernel32:KERNEL32.dll
 0002:000000f0       __imp_FindNextFileW        000000018001e0f0     kernel32:KERNEL32.dll
 0002:000000f8       __imp_FindFirstFileExW     000000018001e0f8     kernel32:KERNEL32.dll
 0002:00000100       __imp_FindClose            000000018001e100     kernel32:KERNEL32.dll
 0002:00000108       __imp_HeapAlloc            000000018001e108     kernel32:KERNEL32.dll
 0002:00000110       __imp_HeapFree             000000018001e110     kernel32:KERNEL32.dll
 0002:00000118       __imp_OutputDebugStringW   000000018001e118     kernel32:KERNEL32.dll
 0002:00000120       __imp_WriteFile            000000018001e120     kernel32:KERNEL32.dll
 0002:00000128       __imp_ExitProcess          000000018001e128     kernel32:KERNEL32.dll
 0002:00000130       __imp_WriteConsoleW        000000018001e130     kernel32:KERNEL32.dll
 0002:00000138       __imp_GetModuleHandleExW   000000018001e138     kernel32:KERNEL32.dll
 0002:00000140       __imp_GetModuleFileNameW   000000018001e140     kernel32:KERNEL32.dll
 0002:00000148       __imp_GetFileType          000000018001e148     kernel32:KERNEL32.dll
 0002:00000150       __imp_GetStdHandle         000000018001e150     kernel32:KERNEL32.dll
 0002:00000158       __imp_EncodePointer        000000018001e158     kernel32:KERNEL32.dll
 0002:00000160       __imp_LoadLibraryExW       000000018001e160     kernel32:KERNEL32.dll
 0002:00000168       __imp_TlsFree              000000018001e168     kernel32:KERNEL32.dll
 0002:00000170       __imp_TlsSetValue          000000018001e170     kernel32:KERNEL32.dll
 0002:00000178       __imp_TlsGetValue          000000018001e178     kernel32:KERNEL32.dll
 0002:00000180       __imp_TlsAlloc             000000018001e180     kernel32:KERNEL32.dll
 0002:00000188       __imp_InitializeCriticalSectionAndSpinCount 000000018001e188     kernel32:KERNEL32.dll
 0002:00000190       __imp_DeleteCriticalSection 000000018001e190     kernel32:KERNEL32.dll
 0002:00000198       __imp_LeaveCriticalSection 000000018001e198     kernel32:KERNEL32.dll
 0002:000001a0       __imp_EnterCriticalSection 000000018001e1a0     kernel32:KERNEL32.dll
 0002:000001a8       __imp_InterlockedFlushSList 000000018001e1a8     kernel32:KERNEL32.dll
 0002:000001b0       __imp_RtlUnwindEx          000000018001e1b0     kernel32:KERNEL32.dll
 0002:000001b8       __imp_RaiseException       000000018001e1b8     kernel32:KERNEL32.dll
 0002:000001c0       __imp_RtlPcToFileHeader    000000018001e1c0     kernel32:KERNEL32.dll
 0002:000001c8       __imp_InitializeSListHead  000000018001e1c8     kernel32:KERNEL32.dll
 0002:000001d0       __imp_GetSystemTimeAsFileTime 000000018001e1d0     kernel32:KERNEL32.dll
 0002:000001d8       __imp_GetCurrentProcessId  000000018001e1d8     kernel32:KERNEL32.dll
 0002:000001e0       __imp_QueryPerformanceCounter 000000018001e1e0     kernel32:KERNEL32.dll
 0002:000001e8       __imp_GetModuleHandleW     000000018001e1e8     kernel32:KERNEL32.dll
 0002:000001f0       __imp_GetStartupInfoW      000000018001e1f0     kernel32:KERNEL32.dll
 0002:000001f8       __imp_IsDebuggerPresent    000000018001e1f8     kernel32:KERNEL32.dll
 0002:00000200       __imp_IsProcessorFeaturePresent 000000018001e200     kernel32:KERNEL32.dll
 0002:00000208       __imp_TerminateProcess     000000018001e208     kernel32:KERNEL32.dll
 0002:00000210       __imp_GetCurrentProcess    000000018001e210     kernel32:KERNEL32.dll
 0002:00000218       __imp_SetUnhandledExceptionFilter 000000018001e218     kernel32:KERNEL32.dll
 0002:00000220       __imp_VirtualFree          000000018001e220     kernel32:KERNEL32.dll
 0002:00000228       __imp_VirtualAlloc         000000018001e228     kernel32:KERNEL32.dll
 0002:00000230       __imp_Sleep                000000018001e230     kernel32:KERNEL32.dll
 0002:00000238       __imp_GetSystemInfo        000000018001e238     kernel32:KERNEL32.dll
 0002:00000240       __imp_VirtualQuery         000000018001e240     kernel32:KERNEL32.dll
 0002:00000248       __imp_RtlCaptureContext    000000018001e248     kernel32:KERNEL32.dll
 0002:00000250       __imp_RtlLookupFunctionEntry 000000018001e250     kernel32:KERNEL32.dll
 0002:00000258       __imp_RtlVirtualUnwind     000000018001e258     kernel32:KERNEL32.dll
 0002:00000260       __imp_UnhandledExceptionFilter 000000018001e260     kernel32:KERNEL32.dll
 0002:00000268       __imp_CreateFileW          000000018001e268     kernel32:KERNEL32.dll
 0002:00000270       \177KERNEL32_NULL_THUNK_DATA 000000018001e270     kernel32:KERNEL32.dll
 0002:00000278       __imp_uv_cond_wait         000000018001e278     iojs:node.dll
 0002:00000280       __imp_uv_cond_init         000000018001e280     iojs:node.dll
 0002:00000288       __imp_uv_cond_destroy      000000018001e288     iojs:node.dll
 0002:00000290       __imp_uv_cond_signal       000000018001e290     iojs:node.dll
 0002:00000298       __imp_uv_async_init        000000018001e298     iojs:node.dll
 0002:000002a0       __imp_uv_async_send        000000018001e2a0     iojs:node.dll
 0002:000002a8       __imp_uv_mutex_init        000000018001e2a8     iojs:node.dll
 0002:000002b0       __imp_uv_ref               000000018001e2b0     iojs:node.dll
 0002:000002b8       __imp_uv_mutex_lock        000000018001e2b8     iojs:node.dll
 0002:000002c0       __imp_?Int32Value@Value@v8@@QEBAHXZ 000000018001e2c0     iojs:node.dll
 0002:000002c8       __imp_uv_mutex_unlock      000000018001e2c8     iojs:node.dll
 0002:000002d0       __imp_uv_unref             000000018001e2d0     iojs:node.dll
 0002:000002d8       __imp_?ToObject@Value@v8@@QEBA?AV?$Local@VObject@v8@@@2@XZ 000000018001e2d8     iojs:node.dll
 0002:000002e0       __imp_uv_default_loop      000000018001e2e0     iojs:node.dll
 0002:000002e8       __imp_?MakeCallback@node@@YA?AV?$Local@VValue@v8@@@v8@@PEAVIsolate@3@V?$Local@VObject@v8@@@3@V?$Local@VFunction@v8@@@3@HPEAV23@@Z 000000018001e2e8     iojs:node.dll
 0002:000002f0       __imp_?Data@Buffer@node@@YAPEADV?$Local@VObject@v8@@@v8@@@Z 000000018001e2f0     iojs:node.dll
 0002:000002f8       __imp_?New@Buffer@node@@YA?AV?$MaybeLocal@VObject@v8@@@v8@@PEAVIsolate@4@PEAD_KP6AX1PEAX@Z3@Z 000000018001e2f8     iojs:node.dll
 0002:00000300       __imp_?HasInstance@Buffer@node@@YA_NV?$Local@VValue@v8@@@v8@@@Z 000000018001e300     iojs:node.dll
 0002:00000308       __imp_node_module_register 000000018001e308     iojs:node.dll
 0002:00000310       __imp_?FatalException@node@@YAXPEAVIsolate@v8@@AEBVTryCatch@3@@Z 000000018001e310     iojs:node.dll
 0002:00000318       __imp_?New@ObjectTemplate@v8@@SA?AV?$Local@VObjectTemplate@v8@@@2@PEAVIsolate@2@V?$Local@VFunctionTemplate@v8@@@2@@Z 000000018001e318     iojs:node.dll
 0002:00000320       __imp_?NewInstance@ObjectTemplate@v8@@QEAA?AV?$MaybeLocal@VObject@v8@@@2@V?$Local@VContext@v8@@@2@@Z 000000018001e320     iojs:node.dll
 0002:00000328       __imp_?SetInternalFieldCount@ObjectTemplate@v8@@QEAAXH@Z 000000018001e328     iojs:node.dll
 0002:00000330       __imp_?Set@Object@v8@@QEAA?AV?$Maybe@_N@2@V?$Local@VContext@v8@@@2@V?$Local@VValue@v8@@@2@1@Z 000000018001e330     iojs:node.dll
 0002:00000338       __imp_uv_mutex_destroy     000000018001e338     iojs:node.dll
 0002:00000340       __imp_?ForceSet@Object@v8@@QEAA?AV?$Maybe@_N@2@V?$Local@VContext@v8@@@2@V?$Local@VValue@v8@@@2@1W4PropertyAttribute@2@@Z 000000018001e340     iojs:node.dll
 0002:00000348       __imp_?ForceSet@Object@v8@@QEAA_NV?$Local@VValue@v8@@@2@0W4PropertyAttribute@2@@Z 000000018001e348     iojs:node.dll
 0002:00000350       __imp_?SetInternalField@Object@v8@@QEAAXHV?$Local@VValue@v8@@@2@@Z 000000018001e350     iojs:node.dll
 0002:00000358       __imp_?New@Object@v8@@SA?AV?$Local@VObject@v8@@@2@PEAVIsolate@2@@Z 000000018001e358     iojs:node.dll
 0002:00000360       __imp_?SlowGetInternalField@Object@v8@@AEAA?AV?$Local@VValue@v8@@@2@H@Z 000000018001e360     iojs:node.dll
 0002:00000368       __imp_?NewFromUtf8@String@v8@@SA?AV?$MaybeLocal@VString@v8@@@2@PEAVIsolate@2@PEBDW4NewStringType@2@H@Z 000000018001e368     iojs:node.dll
 0002:00000370       __imp_??0EscapableHandleScope@v8@@QEAA@PEAVIsolate@1@@Z 000000018001e370     iojs:node.dll
 0002:00000378       __imp_?Escape@EscapableHandleScope@v8@@AEAAPEAPEAVObject@internal@2@PEAPEAV342@@Z 000000018001e378     iojs:node.dll
 0002:00000380       __imp_??0TryCatch@v8@@QEAA@PEAVIsolate@1@@Z 000000018001e380     iojs:node.dll
 0002:00000388       __imp_??1TryCatch@v8@@QEAA@XZ 000000018001e388     iojs:node.dll
 0002:00000390       __imp_?HasCaught@TryCatch@v8@@QEBA_NXZ 000000018001e390     iojs:node.dll
 0002:00000398       __imp_?ToInteger@Value@v8@@QEBA?AV?$MaybeLocal@VInteger@v8@@@2@V?$Local@VContext@v8@@@2@@Z 000000018001e398     iojs:node.dll
 0002:000003a0       __imp_?ToUint32@Value@v8@@QEBA?AV?$MaybeLocal@VUint32@v8@@@2@V?$Local@VContext@v8@@@2@@Z 000000018001e3a0     iojs:node.dll
 0002:000003a8       __imp_?Uint32Value@Value@v8@@QEBAIXZ 000000018001e3a8     iojs:node.dll
 0002:000003b0       __imp_?GlobalizeReference@V8@v8@@CAPEAPEAVObject@internal@2@PEAVIsolate@42@PEAPEAV342@@Z 000000018001e3b0     iojs:node.dll
 0002:000003b8       __imp_?DisposeGlobal@V8@v8@@CAXPEAPEAVObject@internal@2@@Z 000000018001e3b8     iojs:node.dll
 0002:000003c0       __imp_?ToLocalEmpty@V8@v8@@CAXXZ 000000018001e3c0     iojs:node.dll
 0002:000003c8       __imp_?New@FunctionTemplate@v8@@SA?AV?$Local@VFunctionTemplate@v8@@@2@PEAVIsolate@2@P6AXAEBV?$FunctionCallbackInfo@VValue@v8@@@2@@ZV?$Local@VValue@v8@@@2@V?$Local@VSignature@v8@@@2@HW4ConstructorBehavior@2@@Z 000000018001e3c8     iojs:node.dll
 0002:000003d0       __imp_?GetFunction@FunctionTemplate@v8@@QEAA?AV?$Local@VFunction@v8@@@2@XZ 000000018001e3d0     iojs:node.dll
 0002:000003d8       __imp_?Error@Exception@v8@@SA?AV?$Local@VValue@v8@@@2@V?$Local@VString@v8@@@2@@Z 000000018001e3d8     iojs:node.dll
 0002:000003e0       __imp_??0HandleScope@v8@@QEAA@PEAVIsolate@1@@Z 000000018001e3e0     iojs:node.dll
 0002:000003e8       __imp_??1HandleScope@v8@@QEAA@XZ 000000018001e3e8     iojs:node.dll
 0002:000003f0       __imp_?CreateHandle@HandleScope@v8@@CAPEAPEAVObject@internal@2@PEAVHeapObject@42@PEAV342@@Z 000000018001e3f0     iojs:node.dll
 0002:000003f8       __imp_?CreateHandle@HandleScope@v8@@KAPEAPEAVObject@internal@2@PEAVIsolate@42@PEAV342@@Z 000000018001e3f8     iojs:node.dll
 0002:00000400       __imp_?GetCurrent@Isolate@v8@@SAPEAV12@XZ 000000018001e400     iojs:node.dll
 0002:00000408       __imp_?GetCurrentContext@Isolate@v8@@QEAA?AV?$Local@VContext@v8@@@2@XZ 000000018001e408     iojs:node.dll
 0002:00000410       __imp_?ThrowException@Isolate@v8@@QEAA?AV?$Local@VValue@v8@@@2@V32@@Z 000000018001e410     iojs:node.dll
 0002:00000418       __imp_?New@Integer@v8@@SA?AV?$Local@VInteger@v8@@@2@PEAVIsolate@2@H@Z 000000018001e418     iojs:node.dll
 0002:00000420       __imp_?NewFromUnsigned@Integer@v8@@SA?AV?$Local@VInteger@v8@@@2@PEAVIsolate@2@I@Z 000000018001e420     iojs:node.dll
 0002:00000428       __imp_?New@External@v8@@SA?AV?$Local@VExternal@v8@@@2@PEAVIsolate@2@PEAX@Z 000000018001e428     iojs:node.dll
 0002:00000430       __imp_?Value@External@v8@@QEBAPEAXXZ 000000018001e430     iojs:node.dll
 0002:00000438       __imp_?Global@Context@v8@@QEAA?AV?$Local@VObject@v8@@@2@XZ 000000018001e438     iojs:node.dll
 0002:00000440       __imp_uv_queue_work        000000018001e440     iojs:node.dll
 0002:00000448       __imp_?Set@Object@v8@@QEAA_NV?$Local@VValue@v8@@@2@0@Z 000000018001e448     iojs:node.dll
 0002:00000450       \177node_NULL_THUNK_DATA   000000018001e450     iojs:node.dll
 0002:00000458       __guard_check_icall_fptr   000000018001e458     LIBCMT:guard_support.obj
 0002:00000460       __guard_dispatch_icall_fptr 000000018001e460     LIBCMT:guard_support.obj
 0002:00000468       __xc_a                     000000018001e468     LIBCMT:initializers.obj
 0002:00000478       _register_ffi_bindings_    000000018001e478     ffi.obj
 0002:00000480       __xc_z                     000000018001e480     LIBCMT:initializers.obj
 0002:00000488       __xi_a                     000000018001e488     LIBCMT:initializers.obj
 0002:00000490       __acrt_stdio_initializer   000000018001e490     libucrt:stdio_initializer.obj
 0002:00000498       __acrt_multibyte_initializer 000000018001e498     libucrt:multibyte_initializer.obj
 0002:000004a0       __acrt_tran_fma3_initializer 000000018001e4a0     libucrt:fma3_initializer.obj
 0002:000004a8       __xi_z                     000000018001e4a8     LIBCMT:initializers.obj
 0002:000004b0       __xp_a                     000000018001e4b0     LIBCMT:initializers.obj
 0002:000004b8       __acrt_locale_terminator   000000018001e4b8     libucrt:locale_initializer.obj
 0002:000004c0       __dcrt_console_output_terminator 000000018001e4c0     libucrt:console_output_initializer.obj
 0002:000004c8       __acrt_stdio_terminator    000000018001e4c8     libucrt:stdio_initializer.obj
 0002:000004d0       __xp_z                     000000018001e4d0     LIBCMT:initializers.obj
 0002:000004d8       __xt_a                     000000018001e4d8     LIBCMT:initializers.obj
 0002:000004e0       __xt_z                     000000018001e4e0     LIBCMT:initializers.obj
 0002:000004f8       ??_7exception@std@@6B@     000000018001e4f8     libcpmt:xthrow.obj
 0002:00000508       ??_C@_0BC@EOODALEL@Unknown?5exception?$AA@ 000000018001e508     libcpmt:xthrow.obj
 0002:00000528       ??_7bad_alloc@std@@6B@     000000018001e528     libcpmt:xthrow.obj
 0002:00000538       ??_C@_0P@GHFPNOJB@bad?5allocation?$AA@ 000000018001e538     libcpmt:xthrow.obj
 0002:00000550       ??_7logic_error@std@@6B@   000000018001e550     libcpmt:xthrow.obj
 0002:00000568       ??_7length_error@std@@6B@  000000018001e568     libcpmt:xthrow.obj
 0002:00000578       _pRawDllMain               000000018001e578     LIBCMT:dll_dllmain.obj
 0002:00000578       _pDefaultRawDllMain        000000018001e578     LIBCMT:dll_dllmain.obj
 0002:00000588       ??_7type_info@@6B@         000000018001e588     LIBCMT:std_type_info_static.obj
 0002:000005a8       ??_7bad_array_new_length@std@@6B@ 000000018001e5a8     LIBCMT:throw_bad_alloc.obj
 0002:000005b8       ??_C@_0BF@KINCDENJ@bad?5array?5new?5length?$AA@ 000000018001e5b8     LIBCMT:throw_bad_alloc.obj
 0002:00000628       ??_C@_1DM@KHCHBNEB@?$AAa?$AAp?$AAi?$AA?9?$AAm?$AAs?$AA?9?$AAw?$AAi?$AAn?$AA?9?$AAc?$AAo?$AAr?$AAe?$AA?9?$AAf?$AAi?$AAb?$AAe?$AAr?$AAs?$AA?9?$AAl?$AA1?$AA?9?$AA1?$AA?9?$AA1?$AA?$AA@ 000000018001e628     libvcruntime:winapi_downlevel.obj
 0002:00000668       ??_C@_1DK@LPPGFMPP@?$AAa?$AAp?$AAi?$AA?9?$AAm?$AAs?$AA?9?$AAw?$AAi?$AAn?$AA?9?$AAc?$AAo?$AAr?$AAe?$AA?9?$AAs?$AAy?$AAn?$AAc?$AAh?$AA?9?$AAl?$AA1?$AA?9?$AA2?$AA?9?$AA0?$AA?$AA@ 000000018001e668     libvcruntime:winapi_downlevel.obj
 0002:000006a8       ??_C@_1BC@GDMECMAK@?$AAk?$AAe?$AAr?$AAn?$AAe?$AAl?$AA3?$AA2?$AA?$AA@ 000000018001e6a8     libvcruntime:winapi_downlevel.obj
 0002:000006c0       ??_C@_1BA@PFFKHIOG@?$AAa?$AAp?$AAi?$AA?9?$AAm?$AAs?$AA?9?$AA?$AA@ 000000018001e6c0     libvcruntime:winapi_downlevel.obj
 0002:000006d0       ??_C@_1BA@IAIFMGEF@?$AAe?$AAx?$AAt?$AA?9?$AAm?$AAs?$AA?9?$AA?$AA@ 000000018001e6d0     libvcruntime:winapi_downlevel.obj
 0002:000006e8       ??_C@_08KNHFBNJ@FlsAlloc?$AA@ 000000018001e6e8     libvcruntime:winapi_downlevel.obj
 0002:00000700       ??_C@_07PEJMOBNF@FlsFree?$AA@ 000000018001e700     libvcruntime:winapi_downlevel.obj
 0002:00000710       ??_C@_0M@GDNOONDI@FlsGetValue?$AA@ 000000018001e710     libvcruntime:winapi_downlevel.obj
 0002:00000728       ??_C@_0M@JCPCPOEF@FlsSetValue?$AA@ 000000018001e728     libvcruntime:winapi_downlevel.obj
 0002:00000740       ??_C@_0BM@HCFOFFN@InitializeCriticalSectionEx?$AA@ 000000018001e740     libvcruntime:winapi_downlevel.obj
 0002:00000a90       ??_C@_08EHJDFFNH@__based?$CI?$AA@ 000000018001ea90     libvcruntime:undname.obj
 0002:00000aa0       ??_C@_07KOLFKCDI@__cdecl?$AA@ 000000018001eaa0     libvcruntime:undname.obj
 0002:00000aa8       ??_C@_08GHMPAG@__pascal?$AA@ 000000018001eaa8     libvcruntime:undname.obj
 0002:00000ab8       ??_C@_09IFJBGAPI@__stdcall?$AA@ 000000018001eab8     libvcruntime:undname.obj
 0002:00000ac8       ??_C@_0L@NPHFGOKO@__thiscall?$AA@ 000000018001eac8     libvcruntime:undname.obj
 0002:00000ad8       ??_C@_0L@JMKHOMEK@__fastcall?$AA@ 000000018001ead8     libvcruntime:undname.obj
 0002:00000ae8       ??_C@_0N@BCKKPABJ@__vectorcall?$AA@ 000000018001eae8     libvcruntime:undname.obj
 0002:00000af8       ??_C@_09HIJEGCPM@__clrcall?$AA@ 000000018001eaf8     libvcruntime:undname.obj
 0002:00000b04       ??_C@_06GHPCKEAG@__eabi?$AA@ 000000018001eb04     libvcruntime:undname.obj
 0002:00000b10       ??_C@_07EECFKIPL@__swift?$AA@ 000000018001eb10     libvcruntime:undname.obj
 0002:00000b18       ??_C@_07JOMMBBKO@__ptr64?$AA@ 000000018001eb18     libvcruntime:undname.obj
 0002:00000b20       ??_C@_0L@PILCLIHE@__restrict?$AA@ 000000018001eb20     libvcruntime:undname.obj
 0002:00000b30       ??_C@_0M@GFIIJFMG@__unaligned?$AA@ 000000018001eb30     libvcruntime:undname.obj
 0002:00000b40       ??_C@_09DHDLOLLB@restrict?$CI?$AA@ 000000018001eb40     libvcruntime:undname.obj
 0002:00000b4a       ??_C@_00CNPNBAHC@?$AA@     000000018001eb4a     libvcruntime:undname.obj
 0002:00000b4c       ??_C@_04NIHEBCM@?5new?$AA@ 000000018001eb4c     libvcruntime:undname.obj
 0002:00000b58       ??_C@_07FPCDHGMM@?5delete?$AA@ 000000018001eb58     libvcruntime:undname.obj
 0002:00000b60       ??_C@_01NEMOKFLO@?$DN?$AA@ 000000018001eb60     libvcruntime:undname.obj
 0002:00000b64       ??_C@_02GPIOPFAK@?$DO?$DO?$AA@ 000000018001eb64     libvcruntime:undname.obj
 0002:00000b68       ??_C@_02FODMEDOG@?$DM?$DM?$AA@ 000000018001eb68     libvcruntime:undname.obj
 0002:00000b6c       ??_C@_01DCLJPIOD@?$CB?$AA@ 000000018001eb6c     libvcruntime:undname.obj
 0002:00000b70       ??_C@_02EGOFBIJA@?$DN?$DN?$AA@ 000000018001eb70     libvcruntime:undname.obj
 0002:00000b74       ??_C@_02FDNJECIE@?$CB?$DN?$AA@ 000000018001eb74     libvcruntime:undname.obj
 0002:00000b78       ??_C@_02GPECMEKF@?$FL?$FN?$AA@ 000000018001eb78     libvcruntime:undname.obj
 0002:00000b80       ??_C@_08LHJFAFGD@operator?$AA@ 000000018001eb80     libvcruntime:undname.obj
 0002:00000b8c       ??_C@_02HBOOOICD@?9?$DO?$AA@ 000000018001eb8c     libvcruntime:undname.obj
 0002:00000b90       ??_C@_01NBENCBCI@?$CK?$AA@ 000000018001eb90     libvcruntime:undname.obj
 0002:00000b94       ??_C@_02ECNGHCIF@?$CL?$CL?$AA@ 000000018001eb94     libvcruntime:undname.obj
 0002:00000b98       ??_C@_02BAABKJLB@?9?9?$AA@ 000000018001eb98     libvcruntime:undname.obj
 0002:00000b9c       ??_C@_01JOAMLHOP@?9?$AA@   000000018001eb9c     libvcruntime:undname.obj
 0002:00000ba0       ??_C@_01MIFGBAGJ@?$CL?$AA@ 000000018001eba0     libvcruntime:undname.obj
 0002:00000ba4       ??_C@_01HNPIGOCE@?$CG?$AA@ 000000018001eba4     libvcruntime:undname.obj
 0002:00000ba8       ??_C@_03MNHNFDLC@?9?$DO?$CK?$AA@ 000000018001eba8     libvcruntime:undname.obj
 0002:00000bac       ??_C@_01KMDKNFGN@?1?$AA@   000000018001ebac     libvcruntime:undname.obj
 0002:00000bb0       ??_C@_01FGNFDNOH@?$CF?$AA@ 000000018001ebb0     libvcruntime:undname.obj
 0002:00000bb4       ??_C@_01MNNFJEPP@?$DM?$AA@ 000000018001ebb4     libvcruntime:undname.obj
 0002:00000bb8       ??_C@_02EHCHHCKH@?$DM?$DN?$AA@ 000000018001ebb8     libvcruntime:undname.obj
 0002:00000bbc       ??_C@_01PPODPGHN@?$DO?$AA@ 000000018001ebbc     libvcruntime:undname.obj
 0002:00000bc0       ??_C@_02EEKDKGMJ@?$DO?$DN?$AA@ 000000018001ebc0     libvcruntime:undname.obj
 0002:00000bc4       ??_C@_01IHBHIGKO@?0?$AA@   000000018001ebc4     libvcruntime:undname.obj
 0002:00000bc8       ??_C@_02HCKGKOFO@?$CI?$CJ?$AA@ 000000018001ebc8     libvcruntime:undname.obj
 0002:00000bcc       ??_C@_01PJKLJHI@?$HO?$AA@  000000018001ebcc     libvcruntime:undname.obj
 0002:00000bd0       ??_C@_01JKBOJNNK@?$FO?$AA@ 000000018001ebd0     libvcruntime:undname.obj
 0002:00000bd4       ??_C@_01DNKMNLPK@?$HM?$AA@ 000000018001ebd4     libvcruntime:undname.obj
 0002:00000bd8       ??_C@_02PPKAJPJL@?$CG?$CG?$AA@ 000000018001ebd8     libvcruntime:undname.obj
 0002:00000bdc       ??_C@_02NONPIBCD@?$HM?$HM?$AA@ 000000018001ebdc     libvcruntime:undname.obj
 0002:00000be0       ??_C@_02FPIMKNGF@?$CK?$DN?$AA@ 000000018001ebe0     libvcruntime:undname.obj
 0002:00000be4       ??_C@_02FOEOMHFC@?$CL?$DN?$AA@ 000000018001ebe4     libvcruntime:undname.obj
 0002:00000be8       ??_C@_02FKMDLLOA@?9?$DN?$AA@ 000000018001ebe8     libvcruntime:undname.obj
 0002:00000bec       ??_C@_02FJEHGPIO@?1?$DN?$AA@ 000000018001ebec     libvcruntime:undname.obj
 0002:00000bf0       ??_C@_02FENAOKFI@?$CF?$DN?$AA@ 000000018001ebf0     libvcruntime:undname.obj
 0002:00000bf4       ??_C@_03IKFCCPFF@?$DO?$DO?$DN?$AA@ 000000018001ebf4     libvcruntime:undname.obj
 0002:00000bf8       ??_C@_03CDNPDDLA@?$DM?$DM?$DN?$AA@ 000000018001ebf8     libvcruntime:undname.obj
 0002:00000bfc       ??_C@_02FGJGFEAB@?$CG?$DN?$AA@ 000000018001ebfc     libvcruntime:undname.obj
 0002:00000c00       ??_C@_02DHLNPPGH@?$HM?$DN?$AA@ 000000018001ec00     libvcruntime:undname.obj
 0002:00000c04       ??_C@_02MHEGNOJ@?$FO?$DN?$AA@ 000000018001ec04     libvcruntime:undname.obj
 0002:00000c08       ??_C@_09IFPLHPGF@?$GAvftable?8?$AA@ 000000018001ec08     libvcruntime:undname.obj
 0002:00000c18       ??_C@_09BLBHBJP@?$GAvbtable?8?$AA@ 000000018001ec18     libvcruntime:undname.obj
 0002:00000c28       ??_C@_07FEEIOKP@?$GAvcall?8?$AA@ 000000018001ec28     libvcruntime:undname.obj
 0002:00000c30       ??_C@_08LLFFHHDJ@?$GAtypeof?8?$AA@ 000000018001ec30     libvcruntime:undname.obj
 0002:00000c40       ??_C@_0BF@KDPPACIK@?$GAlocal?5static?5guard?8?$AA@ 000000018001ec40     libvcruntime:undname.obj
 0002:00000c58       ??_C@_08OBABFOLI@?$GAstring?8?$AA@ 000000018001ec58     libvcruntime:undname.obj
 0002:00000c68       ??_C@_0BD@JDLKDPAB@?$GAvbase?5destructor?8?$AA@ 000000018001ec68     libvcruntime:undname.obj
 0002:00000c80       ??_C@_0BN@DEGPLNFK@?$GAvector?5deleting?5destructor?8?$AA@ 000000018001ec80     libvcruntime:undname.obj
 0002:00000ca0       ??_C@_0BO@OBMKPJIG@?$GAdefault?5constructor?5closure?8?$AA@ 000000018001eca0     libvcruntime:undname.obj
 0002:00000cc0       ??_C@_0BN@IMDCHIKM@?$GAscalar?5deleting?5destructor?8?$AA@ 000000018001ecc0     libvcruntime:undname.obj
 0002:00000ce0       ??_C@_0BO@PFGOCPJJ@?$GAvector?5constructor?5iterator?8?$AA@ 000000018001ece0     libvcruntime:undname.obj
 0002:00000d00       ??_C@_0BN@LFPFMEDL@?$GAvector?5destructor?5iterator?8?$AA@ 000000018001ed00     libvcruntime:undname.obj
 0002:00000d20       ??_C@_0CE@IKBNEHA@?$GAvector?5vbase?5constructor?5iterat@ 000000018001ed20     libvcruntime:undname.obj
 0002:00000d48       ??_C@_0BL@NILFHHPC@?$GAvirtual?5displacement?5map?8?$AA@ 000000018001ed48     libvcruntime:undname.obj
 0002:00000d68       ??_C@_0CB@JONCMFFK@?$GAeh?5vector?5constructor?5iterator?8@ 000000018001ed68     libvcruntime:undname.obj
 0002:00000d90       ??_C@_0CA@GCEOPDGL@?$GAeh?5vector?5destructor?5iterator?8?$AA@ 000000018001ed90     libvcruntime:undname.obj
 0002:00000db0       ??_C@_0CH@OOJPLCPH@?$GAeh?5vector?5vbase?5constructor?5ite@ 000000018001edb0     libvcruntime:undname.obj
 0002:00000dd8       ??_C@_0BL@LLKPOHJI@?$GAcopy?5constructor?5closure?8?$AA@ 000000018001edd8     libvcruntime:undname.obj
 0002:00000df8       ??_C@_0BA@KBCDOMBN@?$GAudt?5returning?8?$AA@ 000000018001edf8     libvcruntime:undname.obj
 0002:00000e08       ??_C@_03KLGMFNMG@?$GAEH?$AA@ 000000018001ee08     libvcruntime:undname.obj
 0002:00000e0c       ??_C@_05KHLCHHI@?$GARTTI?$AA@ 000000018001ee0c     libvcruntime:undname.obj
 0002:00000e18       ??_C@_0BA@KKLDJDLB@?$GAlocal?5vftable?8?$AA@ 000000018001ee18     libvcruntime:undname.obj
 0002:00000e28       ??_C@_0CE@IIHCMGGL@?$GAlocal?5vftable?5constructor?5closu@ 000000018001ee28     libvcruntime:undname.obj
 0002:00000e4c       ??_C@_06FHBGPFGH@?5new?$FL?$FN?$AA@ 000000018001ee4c     libvcruntime:undname.obj
 0002:00000e58       ??_C@_09LBNFPBCA@?5delete?$FL?$FN?$AA@ 000000018001ee58     libvcruntime:undname.obj
 0002:00000e68       ??_C@_0P@HJKNJFNN@?$GAomni?5callsig?8?$AA@ 000000018001ee68     libvcruntime:undname.obj
 0002:00000e78       ??_C@_0BL@CNOONJFP@?$GAplacement?5delete?5closure?8?$AA@ 000000018001ee78     libvcruntime:undname.obj
 0002:00000e98       ??_C@_0BN@CKNJLHMB@?$GAplacement?5delete?$FL?$FN?5closure?8?$AA@ 000000018001ee98     libvcruntime:undname.obj
 0002:00000eb8       ??_C@_0CG@CFDHKGGD@?$GAmanaged?5vector?5constructor?5iter@ 000000018001eeb8     libvcruntime:undname.obj
 0002:00000ee0       ??_C@_0CF@IMGKMJNO@?$GAmanaged?5vector?5destructor?5itera@ 000000018001eee0     libvcruntime:undname.obj
 0002:00000f08       ??_C@_0CG@HLDDJMAG@?$GAeh?5vector?5copy?5constructor?5iter@ 000000018001ef08     libvcruntime:undname.obj
 0002:00000f30       ??_C@_0CM@FCBBDIGB@?$GAeh?5vector?5vbase?5copy?5constructo@ 000000018001ef30     libvcruntime:undname.obj
 0002:00000f60       ??_C@_0BL@CLIPGLGB@?$GAdynamic?5initializer?5for?5?8?$AA@ 000000018001ef60     libvcruntime:undname.obj
 0002:00000f80       ??_C@_0CB@PDBIFEP@?$GAdynamic?5atexit?5destructor?5for?5?8@ 000000018001ef80     libvcruntime:undname.obj
 0002:00000fa8       ??_C@_0CD@CGAJBKEJ@?$GAvector?5copy?5constructor?5iterato@ 000000018001efa8     libvcruntime:undname.obj
 0002:00000fd0       ??_C@_0CJ@GJELGAMM@?$GAvector?5vbase?5copy?5constructor?5i@ 000000018001efd0     libvcruntime:undname.obj
 0002:00001000       ??_C@_0CL@FGIJHLCE@?$GAmanaged?5vector?5copy?5constructor@ 000000018001f000     libvcruntime:undname.obj
 0002:00001030       ??_C@_0BM@PMGGMLDN@?$GAlocal?5static?5thread?5guard?8?$AA@ 000000018001f030     libvcruntime:undname.obj
 0002:00001050       ??_C@_0N@BDNMDMOL@operator?5?$CC?$CC?5?$AA@ 000000018001f050     libvcruntime:undname.obj
 0002:00001060       ??_C@_0BC@GGEBGALA@operator?5co_await?$AA@ 000000018001f060     libvcruntime:undname.obj
 0002:00001078       ??_C@_0BC@DAFEJGAK@?5Type?5Descriptor?8?$AA@ 000000018001f078     libvcruntime:undname.obj
 0002:00001090       ??_C@_0BM@LDKODKLH@?5Base?5Class?5Descriptor?5at?5?$CI?$AA@ 000000018001f090     libvcruntime:undname.obj
 0002:000010b0       ??_C@_0BD@LGICGFMM@?5Base?5Class?5Array?8?$AA@ 000000018001f0b0     libvcruntime:undname.obj
 0002:000010c8       ??_C@_0BN@MECKDCOJ@?5Class?5Hierarchy?5Descriptor?8?$AA@ 000000018001f0c8     libvcruntime:undname.obj
 0002:000010e8       ??_C@_0BK@CFCOFLF@?5Complete?5Object?5Locator?8?$AA@ 000000018001f0e8     libvcruntime:undname.obj
 0002:000011b0       ??_7bad_exception@std@@6B@ 000000018001f1b0     libvcruntime:frame.obj
 0002:000011c0       ??_C@_0O@DPKOEFFH@bad?5exception?$AA@ 000000018001f1c0     libvcruntime:frame.obj
 0002:000011d0       _pDestructExceptionObject  000000018001f1d0     libvcruntime:ehhelpers.obj
 0002:00001340       ??_C@_1FE@LHBLIKM@?$AAA?$AAs?$AAs?$AAe?$AAr?$AAt?$AAi?$AAo?$AAn?$AA?5?$AAf?$AAa?$AAi?$AAl?$AAe?$AAd?$AA?3?$AA?5?$AA?$CF?$AAT?$AAs?$AA?0?$AA?5?$AAf?$AAi?$AAl?$AAe?$AA?5?$AA?$CF?$AAT?$AAs?$AA?0@ 000000018001f340     libucrt:assert.obj
 0002:000013a0       ??_C@_1EK@MBDPDCGA@?$AAM?$AAi?$AAc?$AAr?$AAo?$AAs?$AAo?$AAf?$AAt?$AA?5?$AAV?$AAi?$AAs?$AAu?$AAa?$AAl?$AA?5?$AAC?$AA?$CL?$AA?$CL?$AA?5?$AAR?$AAu?$AAn?$AAt?$AAi?$AAm?$AAe?$AA?5?$AAL?$AAi?$AAb@ 000000018001f3a0     libucrt:assert.obj
 0002:000013f0       ??_C@_1CE@OJBNHDMO@?$AAA?$AAs?$AAs?$AAe?$AAr?$AAt?$AAi?$AAo?$AAn?$AA?5?$AAf?$AAa?$AAi?$AAl?$AAe?$AAd?$AA?$CB?$AA?$AA@ 000000018001f3f0     libucrt:assert.obj
 0002:00001418       ??_C@_1BE@PHKBBGE@?$AAP?$AAr?$AAo?$AAg?$AAr?$AAa?$AAm?$AA?3?$AA?5?$AA?$AA@ 000000018001f418     libucrt:assert.obj
 0002:00001430       ??_C@_1O@HEMHKNDC@?$AAF?$AAi?$AAl?$AAe?$AA?3?$AA?5?$AA?$AA@ 000000018001f430     libucrt:assert.obj
 0002:00001440       ??_C@_1O@KCAFKHJE@?$AAL?$AAi?$AAn?$AAe?$AA?3?$AA?5?$AA?$AA@ 000000018001f440     libucrt:assert.obj
 0002:00001450       ??_C@_1BK@PEDCIPMA@?$AAE?$AAx?$AAp?$AAr?$AAe?$AAs?$AAs?$AAi?$AAo?$AAn?$AA?3?$AA?5?$AA?$AA@ 000000018001f450     libucrt:assert.obj
 0002:00001470       ??_C@_1OA@EGMLFBHJ@?$AAF?$AAo?$AAr?$AA?5?$AAi?$AAn?$AAf?$AAo?$AAr?$AAm?$AAa?$AAt?$AAi?$AAo?$AAn?$AA?5?$AAo?$AAn?$AA?5?$AAh?$AAo?$AAw?$AA?5?$AAy?$AAo?$AAu?$AAr?$AA?5?$AAp?$AAr?$AAo?$AAg@ 000000018001f470     libucrt:assert.obj
 0002:00001550       ??_C@_1HK@POCJMFGK@?$AA?$CI?$AAP?$AAr?$AAe?$AAs?$AAs?$AA?5?$AAR?$AAe?$AAt?$AAr?$AAy?$AA?5?$AAt?$AAo?$AA?5?$AAd?$AAe?$AAb?$AAu?$AAg?$AA?5?$AAt?$AAh?$AAe?$AA?5?$AAa?$AAp?$AAp?$AAl?$AAi?$AAc@ 000000018001f550     libucrt:assert.obj
 0002:000015d0       ??_C@_17LGKOMLJ@?$AA?4?$AA?4?$AA?4?$AA?$AA@ 000000018001f5d0     libucrt:assert.obj
 0002:000015d8       ??_C@_13LBAGMAIH@?$AA?6?$AA?$AA@ 000000018001f5d8     libucrt:assert.obj
 0002:000015dc       ??_C@_15IABLJNFO@?$AA?6?$AA?6?$AA?$AA@ 000000018001f5dc     libucrt:assert.obj
 0002:000015e8       ??_C@_1CO@EAEJAADC@?$AA?$DM?$AAp?$AAr?$AAo?$AAg?$AAr?$AAa?$AAm?$AA?5?$AAn?$AAa?$AAm?$AAe?$AA?5?$AAu?$AAn?$AAk?$AAn?$AAo?$AAw?$AAn?$AA?$DO?$AA?$AA@ 000000018001f5e8     libucrt:assert.obj
 0002:00001620       standard_lookup_table      000000018001f620     libucrt:output.obj
 0002:00001680       ??_C@_1O@CEDCILHN@?$AA?$CI?$AAn?$AAu?$AAl?$AAl?$AA?$CJ?$AA?$AA@ 000000018001f680     libucrt:output.obj
 0002:00001690       ??_C@_06OJHGLDPL@?$CInull?$CJ?$AA@ 000000018001f690     libucrt:output.obj
 0002:000016a0       __acrt_exception_action_table 000000018001f6a0     libucrt:exception_filter.obj
 0002:00001760       __acrt_signal_action_table_count 000000018001f760     libucrt:exception_filter.obj
 0002:00001768       __acrt_signal_action_first_fpe_index 000000018001f768     libucrt:exception_filter.obj
 0002:00001770       __acrt_signal_action_fpe_count 000000018001f770     libucrt:exception_filter.obj
 0002:00001778       ??_C@_1BI@BGOHAHKC@?$AAm?$AAs?$AAc?$AAo?$AAr?$AAe?$AAe?$AA?4?$AAd?$AAl?$AAl?$AA?$AA@ 000000018001f778     libucrt:exit.obj
 0002:00001790       ??_C@_0P@MIGLKIOC@CorExitProcess?$AA@ 000000018001f790     libucrt:exit.obj
 0002:000018a0       ??_C@_03OEIAHPBN@INF?$AA@  000000018001f8a0     libucrt:cvt.obj
 0002:000018a4       ??_C@_03OJHLLCGB@inf?$AA@  000000018001f8a4     libucrt:cvt.obj
 0002:000018a8       ??_C@_03LKNCIKJB@NAN?$AA@  000000018001f8a8     libucrt:cvt.obj
 0002:000018ac       ??_C@_03LHCJEHON@nan?$AA@  000000018001f8ac     libucrt:cvt.obj
 0002:000018b0       ??_C@_09OFJJIMPC@NAN?$CISNAN?$CJ?$AA@ 000000018001f8b0     libucrt:cvt.obj
 0002:000018c0       ??_C@_09IPFBKMDL@nan?$CIsnan?$CJ?$AA@ 000000018001f8c0     libucrt:cvt.obj
 0002:000018d0       ??_C@_08IKHNHAJ@NAN?$CIIND?$CJ?$AA@ 000000018001f8d0     libucrt:cvt.obj
 0002:000018e0       ??_C@_08OFCDMILK@nan?$CIind?$CJ?$AA@ 000000018001f8e0     libucrt:cvt.obj
 0002:000018ec       ??_C@_05KLBDPFGC@e?$CL000?$AA@ 000000018001f8ec     libucrt:cvt.obj
 0002:00001900       __lc_time_c                000000018001f900     libucrt:nlsdata.obj
 0002:00001bc0       ??_C@_03KOEHGMDN@Sun?$AA@  000000018001fbc0     libucrt:nlsdata.obj
 0002:00001bc4       ??_C@_03PDAGKDH@Mon?$AA@   000000018001fbc4     libucrt:nlsdata.obj
 0002:00001bc8       ??_C@_03NAGEINEP@Tue?$AA@  000000018001fbc8     libucrt:nlsdata.obj
 0002:00001bcc       ??_C@_03MHOMLAJA@Wed?$AA@  000000018001fbcc     libucrt:nlsdata.obj
 0002:00001bd0       ??_C@_03IOFIKPDN@Thu?$AA@  000000018001fbd0     libucrt:nlsdata.obj
 0002:00001bd4       ??_C@_03IDIOELNC@Fri?$AA@  000000018001fbd4     libucrt:nlsdata.obj
 0002:00001bd8       ??_C@_03FEFJNEK@Sat?$AA@   000000018001fbd8     libucrt:nlsdata.obj
 0002:00001bdc       ??_C@_06OOPIFAJ@Sunday?$AA@ 000000018001fbdc     libucrt:nlsdata.obj
 0002:00001be4       ??_C@_06JLEDEDGH@Monday?$AA@ 000000018001fbe4     libucrt:nlsdata.obj
 0002:00001bf0       ??_C@_07BAAGCFCM@Tuesday?$AA@ 000000018001fbf0     libucrt:nlsdata.obj
 0002:00001bf8       ??_C@_09DLIGFAKA@Wednesday?$AA@ 000000018001fbf8     libucrt:nlsdata.obj
 0002:00001c08       ??_C@_08HACCIKIA@Thursday?$AA@ 000000018001fc08     libucrt:nlsdata.obj
 0002:00001c14       ??_C@_06JECMNKMI@Friday?$AA@ 000000018001fc14     libucrt:nlsdata.obj
 0002:00001c20       ??_C@_08INBOOONO@Saturday?$AA@ 000000018001fc20     libucrt:nlsdata.obj
 0002:00001c2c       ??_C@_03JIHJHPIE@Jan?$AA@  000000018001fc2c     libucrt:nlsdata.obj
 0002:00001c30       ??_C@_03HJBDCHOM@Feb?$AA@  000000018001fc30     libucrt:nlsdata.obj
 0002:00001c34       ??_C@_03ODNJBKGA@Mar?$AA@  000000018001fc34     libucrt:nlsdata.obj
 0002:00001c38       ??_C@_03LEOLGMJP@Apr?$AA@  000000018001fc38     libucrt:nlsdata.obj
 0002:00001c3c       ??_C@_03CNMDKL@May?$AA@    000000018001fc3c     libucrt:nlsdata.obj
 0002:00001c40       ??_C@_03IDFGHECI@Jun?$AA@  000000018001fc40     libucrt:nlsdata.obj
 0002:00001c44       ??_C@_03LBGABGKK@Jul?$AA@  000000018001fc44     libucrt:nlsdata.obj
 0002:00001c48       ??_C@_03IFJFEIGA@Aug?$AA@  000000018001fc48     libucrt:nlsdata.obj
 0002:00001c4c       ??_C@_03GGCAPAJC@Sep?$AA@  000000018001fc4c     libucrt:nlsdata.obj
 0002:00001c50       ??_C@_03BMAOKBAD@Oct?$AA@  000000018001fc50     libucrt:nlsdata.obj
 0002:00001c54       ??_C@_03JPJOFNIA@Nov?$AA@  000000018001fc54     libucrt:nlsdata.obj
 0002:00001c58       ??_C@_03MKABNOCG@Dec?$AA@  000000018001fc58     libucrt:nlsdata.obj
 0002:00001c60       ??_C@_07CGJPFGJA@January?$AA@ 000000018001fc60     libucrt:nlsdata.obj
 0002:00001c68       ??_C@_08GNJGEPFN@February?$AA@ 000000018001fc68     libucrt:nlsdata.obj
 0002:00001c74       ??_C@_05HPCKOFNC@March?$AA@ 000000018001fc74     libucrt:nlsdata.obj
 0002:00001c7c       ??_C@_05DMJDNLEJ@April?$AA@ 000000018001fc7c     libucrt:nlsdata.obj
 0002:00001c84       ??_C@_04CNLMGBGM@June?$AA@ 000000018001fc84     libucrt:nlsdata.obj
 0002:00001c8c       ??_C@_04MIEPOIFP@July?$AA@ 000000018001fc8c     libucrt:nlsdata.obj
 0002:00001c94       ??_C@_06LBBHFDDG@August?$AA@ 000000018001fc94     libucrt:nlsdata.obj
 0002:00001ca0       ??_C@_09BHHEALKD@September?$AA@ 000000018001fca0     libucrt:nlsdata.obj
 0002:00001cb0       ??_C@_07JJNFCEND@October?$AA@ 000000018001fcb0     libucrt:nlsdata.obj
 0002:00001cb8       ??_C@_08HCHEGEOA@November?$AA@ 000000018001fcb8     libucrt:nlsdata.obj
 0002:00001cc8       ??_C@_08EDHMEBNP@December?$AA@ 000000018001fcc8     libucrt:nlsdata.obj
 0002:00001cd4       ??_C@_02DEDBPAFC@AM?$AA@   000000018001fcd4     libucrt:nlsdata.obj
 0002:00001cd8       ??_C@_02CJNFDJBF@PM?$AA@   000000018001fcd8     libucrt:nlsdata.obj
 0002:00001ce0       ??_C@_08BPBNCDIB@MM?1dd?1yy?$AA@ 000000018001fce0     libucrt:nlsdata.obj
 0002:00001cf0       ??_C@_0BE@CKGJFCPC@dddd?0?5MMMM?5dd?0?5yyyy?$AA@ 000000018001fcf0     libucrt:nlsdata.obj
 0002:00001d08       ??_C@_08JCCMCCIL@HH?3mm?3ss?$AA@ 000000018001fd08     libucrt:nlsdata.obj
 0002:00001d18       ??_C@_17MBGCMIPB@?$AAS?$AAu?$AAn?$AA?$AA@ 000000018001fd18     libucrt:nlsdata.obj
 0002:00001d20       ??_C@_17KBOMKBF@?$AAM?$AAo?$AAn?$AA?$AA@ 000000018001fd20     libucrt:nlsdata.obj
 0002:00001d28       ??_C@_17BMKGEGOJ@?$AAT?$AAu?$AAe?$AA?$AA@ 000000018001fd28     libucrt:nlsdata.obj
 0002:00001d30       ??_C@_17CJEDCEPE@?$AAW?$AAe?$AAd?$AA?$AA@ 000000018001fd30     libucrt:nlsdata.obj
 0002:00001d38       ??_C@_17PDPHAADD@?$AAT?$AAh?$AAu?$AA?$AA@ 000000018001fd38     libucrt:nlsdata.obj
 0002:00001d40       ??_C@_17HFOLPPLP@?$AAF?$AAr?$AAi?$AA?$AA@ 000000018001fd40     libucrt:nlsdata.obj
 0002:00001d48       ??_C@_17GGIBDPIH@?$AAS?$AAa?$AAt?$AA?$AA@ 000000018001fd48     libucrt:nlsdata.obj
 0002:00001d50       ??_C@_1O@IHNHDHPB@?$AAS?$AAu?$AAn?$AAd?$AAa?$AAy?$AA?$AA@ 000000018001fd50     libucrt:nlsdata.obj
 0002:00001d60       ??_C@_1O@MMNBFLIA@?$AAM?$AAo?$AAn?$AAd?$AAa?$AAy?$AA?$AA@ 000000018001fd60     libucrt:nlsdata.obj
 0002:00001d70       ??_C@_1BA@ENFBFFEK@?$AAT?$AAu?$AAe?$AAs?$AAd?$AAa?$AAy?$AA?$AA@ 000000018001fd70     libucrt:nlsdata.obj
 0002:00001d80       ??_C@_1BE@EBOGMDOH@?$AAW?$AAe?$AAd?$AAn?$AAe?$AAs?$AAd?$AAa?$AAy?$AA?$AA@ 000000018001fd80     libucrt:nlsdata.obj
 0002:00001d98       ??_C@_1BC@HHMNLIHE@?$AAT?$AAh?$AAu?$AAr?$AAs?$AAd?$AAa?$AAy?$AA?$AA@ 000000018001fd98     libucrt:nlsdata.obj
 0002:00001db0       ??_C@_1O@PDICJHAG@?$AAF?$AAr?$AAi?$AAd?$AAa?$AAy?$AA?$AA@ 000000018001fdb0     libucrt:nlsdata.obj
 0002:00001dc0       ??_C@_1BC@ENMNNPAJ@?$AAS?$AAa?$AAt?$AAu?$AAr?$AAd?$AAa?$AAy?$AA?$AA@ 000000018001fdc0     libucrt:nlsdata.obj
 0002:00001dd8       ??_C@_17DKNBKCHM@?$AAJ?$AAa?$AAn?$AA?$AA@ 000000018001fdd8     libucrt:nlsdata.obj
 0002:00001de0       ??_C@_17LMDJEKJN@?$AAF?$AAe?$AAb?$AA?$AA@ 000000018001fde0     libucrt:nlsdata.obj
 0002:00001de8       ??_C@_17CKNLEDEC@?$AAM?$AAa?$AAr?$AA?$AA@ 000000018001fde8     libucrt:nlsdata.obj
 0002:00001df0       ??_C@_17LFPOIHDD@?$AAA?$AAp?$AAr?$AA?$AA@ 000000018001fdf0     libucrt:nlsdata.obj
 0002:00001df8       ??_C@_17PNNKMEED@?$AAM?$AAa?$AAy?$AA?$AA@ 000000018001fdf8     libucrt:nlsdata.obj
 0002:00001e00       ??_C@_17KCJGOCPB@?$AAJ?$AAu?$AAn?$AA?$AA@ 000000018001fe00     libucrt:nlsdata.obj
 0002:00001e08       ??_C@_17IJPCKHK@?$AAJ?$AAu?$AAl?$AA?$AA@ 000000018001fe08     libucrt:nlsdata.obj
 0002:00001e10       ??_C@_17ICPELBCN@?$AAA?$AAu?$AAg?$AA?$AA@ 000000018001fe10     libucrt:nlsdata.obj
 0002:00001e18       ??_C@_17HCHCOKMG@?$AAS?$AAe?$AAp?$AA?$AA@ 000000018001fe18     libucrt:nlsdata.obj
 0002:00001e20       ??_C@_17FNLKOI@?$AAO?$AAc?$AAt?$AA?$AA@ 000000018001fe20     libucrt:nlsdata.obj
 0002:00001e28       ??_C@_17BBDMLCIG@?$AAN?$AAo?$AAv?$AA?$AA@ 000000018001fe28     libucrt:nlsdata.obj
 0002:00001e30       ??_C@_17EGKACKIF@?$AAD?$AAe?$AAc?$AA?$AA@ 000000018001fe30     libucrt:nlsdata.obj
 0002:00001e38       ??_C@_1BA@EFMEIEBA@?$AAJ?$AAa?$AAn?$AAu?$AAa?$AAr?$AAy?$AA?$AA@ 000000018001fe38     libucrt:nlsdata.obj
 0002:00001e48       ??_C@_1BC@JGDDFFAM@?$AAF?$AAe?$AAb?$AAr?$AAu?$AAa?$AAr?$AAy?$AA?$AA@ 000000018001fe48     libucrt:nlsdata.obj
 0002:00001e60       ??_C@_1M@IKEENEDF@?$AAM?$AAa?$AAr?$AAc?$AAh?$AA?$AA@ 000000018001fe60     libucrt:nlsdata.obj
 0002:00001e70       ??_C@_1M@GJNLMHFD@?$AAA?$AAp?$AAr?$AAi?$AAl?$AA?$AA@ 000000018001fe70     libucrt:nlsdata.obj
 0002:00001e80       ??_C@_19EPFLPGAP@?$AAJ?$AAu?$AAn?$AAe?$AA?$AA@ 000000018001fe80     libucrt:nlsdata.obj
 0002:00001e90       ??_C@_19BIFMLPCD@?$AAJ?$AAu?$AAl?$AAy?$AA?$AA@ 000000018001fe90     libucrt:nlsdata.obj
 0002:00001ea0       ??_C@_1O@PAHLKOAC@?$AAA?$AAu?$AAg?$AAu?$AAs?$AAt?$AA?$AA@ 000000018001fea0     libucrt:nlsdata.obj
 0002:00001eb0       ??_C@_1BE@DKAAMBJL@?$AAS?$AAe?$AAp?$AAt?$AAe?$AAm?$AAb?$AAe?$AAr?$AA?$AA@ 000000018001feb0     libucrt:nlsdata.obj
 0002:00001ec8       ??_C@_1BA@EPANDLNG@?$AAO?$AAc?$AAt?$AAo?$AAb?$AAe?$AAr?$AA?$AA@ 000000018001fec8     libucrt:nlsdata.obj
 0002:00001ed8       ??_C@_1BC@BGLIFPF@?$AAN?$AAo?$AAv?$AAe?$AAm?$AAb?$AAe?$AAr?$AA?$AA@ 000000018001fed8     libucrt:nlsdata.obj
 0002:00001ef0       ??_C@_1BC@FEMKIFH@?$AAD?$AAe?$AAc?$AAe?$AAm?$AAb?$AAe?$AAr?$AA?$AA@ 000000018001fef0     libucrt:nlsdata.obj
 0002:00001f04       ??_C@_15ODEHAHHF@?$AAA?$AAM?$AA?$AA@ 000000018001ff04     libucrt:nlsdata.obj
 0002:00001f0c       ??_C@_15CLMNNGEL@?$AAP?$AAM?$AA?$AA@ 000000018001ff0c     libucrt:nlsdata.obj
 0002:00001f18       ??_C@_1BC@IEBCMHCM@?$AAM?$AAM?$AA?1?$AAd?$AAd?$AA?1?$AAy?$AAy?$AA?$AA@ 000000018001ff18     libucrt:nlsdata.obj
 0002:00001f30       ??_C@_1CI@KNAKOEBC@?$AAd?$AAd?$AAd?$AAd?$AA?0?$AA?5?$AAM?$AAM?$AAM?$AAM?$AA?5?$AAd?$AAd?$AA?0?$AA?5?$AAy?$AAy?$AAy?$AAy?$AA?$AA@ 000000018001ff30     libucrt:nlsdata.obj
 0002:00001f58       ??_C@_1BC@GDGBMEMK@?$AAH?$AAH?$AA?3?$AAm?$AAm?$AA?3?$AAs?$AAs?$AA?$AA@ 000000018001ff58     libucrt:nlsdata.obj
 0002:00001f70       ??_C@_1M@BMHNFIME@?$AAe?$AAn?$AA?9?$AAU?$AAS?$AA?$AA@ 000000018001ff70     libucrt:nlsdata.obj
 0002:00001fa0       ??_C@_1M@HPNHIDJI@?$AAj?$AAa?$AA?9?$AAJ?$AAP?$AA?$AA@ 000000018001ffa0     libucrt:mbctype.obj
 0002:00001fb0       ??_C@_1M@BIBDDEMK@?$AAz?$AAh?$AA?9?$AAC?$AAN?$AA?$AA@ 000000018001ffb0     libucrt:mbctype.obj
 0002:00001fc0       ??_C@_1M@JLOOOEGK@?$AAk?$AAo?$AA?9?$AAK?$AAR?$AA?$AA@ 000000018001ffc0     libucrt:mbctype.obj
 0002:00001fd0       ??_C@_1M@CLNBBOPM@?$AAz?$AAh?$AA?9?$AAT?$AAW?$AA?$AA@ 000000018001ffd0     libucrt:mbctype.obj
 0002:00002080       ??_C@_1EA@JGEFHKEI@?$AAa?$AAp?$AAi?$AA?9?$AAm?$AAs?$AA?9?$AAw?$AAi?$AAn?$AA?9?$AAc?$AAo?$AAr?$AAe?$AA?9?$AAd?$AAa?$AAt?$AAe?$AAt?$AAi?$AAm?$AAe?$AA?9?$AAl?$AA1?$AA?9?$AA1?$AA?9?$AA1?$AA?$AA@ 0000000180020080     libucrt:winapi_thunks.obj
 0002:000020c0       ??_C@_1DI@IJCEHOCB@?$AAa?$AAp?$AAi?$AA?9?$AAm?$AAs?$AA?9?$AAw?$AAi?$AAn?$AA?9?$AAc?$AAo?$AAr?$AAe?$AA?9?$AAf?$AAi?$AAl?$AAe?$AA?9?$AAl?$AA1?$AA?9?$AA2?$AA?9?$AA2?$AA?$AA@ 00000001800200c0     libucrt:winapi_thunks.obj
 0002:00002100       ??_C@_1EI@MPIAOHOC@?$AAa?$AAp?$AAi?$AA?9?$AAm?$AAs?$AA?9?$AAw?$AAi?$AAn?$AA?9?$AAc?$AAo?$AAr?$AAe?$AA?9?$AAl?$AAo?$AAc?$AAa?$AAl?$AAi?$AAz?$AAa?$AAt?$AAi?$AAo?$AAn?$AA?9?$AAl?$AA1?$AA?9@ 0000000180020100     libucrt:winapi_thunks.obj
 0002:00002150       ??_C@_1FK@FPHCKFIE@?$AAa?$AAp?$AAi?$AA?9?$AAm?$AAs?$AA?9?$AAw?$AAi?$AAn?$AA?9?$AAc?$AAo?$AAr?$AAe?$AA?9?$AAl?$AAo?$AAc?$AAa?$AAl?$AAi?$AAz?$AAa?$AAt?$AAi?$AAo?$AAn?$AA?9?$AAo?$AAb?$AAs@ 0000000180020150     libucrt:winapi_thunks.obj
 0002:000021b0       ??_C@_1EM@DILCGIIO@?$AAa?$AAp?$AAi?$AA?9?$AAm?$AAs?$AA?9?$AAw?$AAi?$AAn?$AA?9?$AAc?$AAo?$AAr?$AAe?$AA?9?$AAp?$AAr?$AAo?$AAc?$AAe?$AAs?$AAs?$AAt?$AAh?$AAr?$AAe?$AAa?$AAd?$AAs?$AA?9?$AAl@ 00000001800201b0     libucrt:winapi_thunks.obj
 0002:00002200       ??_C@_1DM@LNCGDDPN@?$AAa?$AAp?$AAi?$AA?9?$AAm?$AAs?$AA?9?$AAw?$AAi?$AAn?$AA?9?$AAc?$AAo?$AAr?$AAe?$AA?9?$AAs?$AAt?$AAr?$AAi?$AAn?$AAg?$AA?9?$AAl?$AA1?$AA?9?$AA1?$AA?9?$AA0?$AA?$AA@ 0000000180020200     libucrt:winapi_thunks.obj
 0002:00002240       ??_C@_1DO@FPAPJEMD@?$AAa?$AAp?$AAi?$AA?9?$AAm?$AAs?$AA?9?$AAw?$AAi?$AAn?$AA?9?$AAc?$AAo?$AAr?$AAe?$AA?9?$AAs?$AAy?$AAs?$AAi?$AAn?$AAf?$AAo?$AA?9?$AAl?$AA1?$AA?9?$AA2?$AA?9?$AA1?$AA?$AA@ 0000000180020240     libucrt:winapi_thunks.obj
 0002:00002280       ??_C@_1DK@NDHNAHIO@?$AAa?$AAp?$AAi?$AA?9?$AAm?$AAs?$AA?9?$AAw?$AAi?$AAn?$AA?9?$AAc?$AAo?$AAr?$AAe?$AA?9?$AAw?$AAi?$AAn?$AAr?$AAt?$AA?9?$AAl?$AA1?$AA?9?$AA1?$AA?9?$AA0?$AA?$AA@ 0000000180020280     libucrt:winapi_thunks.obj
 0002:000022c0       ??_C@_1DM@KGHDGBCM@?$AAa?$AAp?$AAi?$AA?9?$AAm?$AAs?$AA?9?$AAw?$AAi?$AAn?$AA?9?$AAc?$AAo?$AAr?$AAe?$AA?9?$AAx?$AAs?$AAt?$AAa?$AAt?$AAe?$AA?9?$AAl?$AA2?$AA?9?$AA1?$AA?9?$AA0?$AA?$AA@ 00000001800202c0     libucrt:winapi_thunks.obj
 0002:00002300       ??_C@_1EO@IJIOEFOH@?$AAa?$AAp?$AAi?$AA?9?$AAm?$AAs?$AA?9?$AAw?$AAi?$AAn?$AA?9?$AAr?$AAt?$AAc?$AAo?$AAr?$AAe?$AA?9?$AAn?$AAt?$AAu?$AAs?$AAe?$AAr?$AA?9?$AAw?$AAi?$AAn?$AAd?$AAo?$AAw?$AA?9@ 0000000180020300     libucrt:winapi_thunks.obj
 0002:00002350       ??_C@_1FG@HHGEKANL@?$AAa?$AAp?$AAi?$AA?9?$AAm?$AAs?$AA?9?$AAw?$AAi?$AAn?$AA?9?$AAs?$AAe?$AAc?$AAu?$AAr?$AAi?$AAt?$AAy?$AA?9?$AAs?$AAy?$AAs?$AAt?$AAe?$AAm?$AAf?$AAu?$AAn?$AAc?$AAt?$AAi@ 0000000180020350     libucrt:winapi_thunks.obj
 0002:000023b0       ??_C@_1EG@DBIOJECG@?$AAe?$AAx?$AAt?$AA?9?$AAm?$AAs?$AA?9?$AAw?$AAi?$AAn?$AA?9?$AAn?$AAt?$AAu?$AAs?$AAe?$AAr?$AA?9?$AAd?$AAi?$AAa?$AAl?$AAo?$AAg?$AAb?$AAo?$AAx?$AA?9?$AAl?$AA1?$AA?9?$AA1@ 00000001800203b0     libucrt:winapi_thunks.obj
 0002:00002400       ??_C@_1EO@FIHMJCLF@?$AAe?$AAx?$AAt?$AA?9?$AAm?$AAs?$AA?9?$AAw?$AAi?$AAn?$AA?9?$AAn?$AAt?$AAu?$AAs?$AAe?$AAr?$AA?9?$AAw?$AAi?$AAn?$AAd?$AAo?$AAw?$AAs?$AAt?$AAa?$AAt?$AAi?$AAo?$AAn?$AA?9@ 0000000180020400     libucrt:winapi_thunks.obj
 0002:00002450       ??_C@_1BC@DNHGCMLG@?$AAa?$AAd?$AAv?$AAa?$AAp?$AAi?$AA3?$AA2?$AA?$AA@ 0000000180020450     libucrt:winapi_thunks.obj
 0002:00002468       ??_C@_1M@OAIMIKLP@?$AAn?$AAt?$AAd?$AAl?$AAl?$AA?$AA@ 0000000180020468     libucrt:winapi_thunks.obj
 0002:00002480       ??_C@_1EG@DPGNFKGC@?$AAa?$AAp?$AAi?$AA?9?$AAm?$AAs?$AA?9?$AAw?$AAi?$AAn?$AA?9?$AAa?$AAp?$AAp?$AAm?$AAo?$AAd?$AAe?$AAl?$AA?9?$AAr?$AAu?$AAn?$AAt?$AAi?$AAm?$AAe?$AA?9?$AAl?$AA1?$AA?9?$AA1@ 0000000180020480     libucrt:winapi_thunks.obj
 0002:000024c8       ??_C@_1O@BCCLBEOE@?$AAu?$AAs?$AAe?$AAr?$AA3?$AA2?$AA?$AA@ 00000001800204c8     libucrt:winapi_thunks.obj
 0002:00002500       ??_C@_0BA@HNOPNCHB@GetActiveWindow?$AA@ 0000000180020500     libucrt:winapi_thunks.obj
 0002:00002518       ??_C@_0BD@HHGDFDBJ@GetLastActivePopup?$AA@ 0000000180020518     libucrt:winapi_thunks.obj
 0002:00002538       ??_C@_0BI@DFKBFLJE@GetProcessWindowStation?$AA@ 0000000180020538     libucrt:winapi_thunks.obj
 0002:00002558       ??_C@_0BK@DEKFELLI@GetUserObjectInformationW?$AA@ 0000000180020558     libucrt:winapi_thunks.obj
 0002:00002588       ??_C@_0O@KKBNKAPF@LCMapStringEx?$AA@ 0000000180020588     libucrt:winapi_thunks.obj
 0002:000025a0       ??_C@_0BB@HBDEELFH@LocaleNameToLCID?$AA@ 00000001800205a0     libucrt:winapi_thunks.obj
 0002:000025c0       ??_C@_0M@CHKKJDAI@MessageBoxA?$AA@ 00000001800205c0     libucrt:winapi_thunks.obj
 0002:000025d8       ??_C@_0M@DLDCCGNP@MessageBoxW?$AA@ 00000001800205d8     libucrt:winapi_thunks.obj
 0002:000025e8       ??_C@_0CF@OJOFEIGO@AppPolicyGetProcessTerminationMe@ 00000001800205e8     libucrt:winapi_thunks.obj
 0002:00002618       ??_C@_0CE@OICFMIKE@AppPolicyGetShowDeveloperDiagnos@ 0000000180020618     libucrt:winapi_thunks.obj
 0002:00002640       ??_C@_0BL@ODDJNEDA@AppPolicyGetWindowingModel?$AA@ 0000000180020640     libucrt:winapi_thunks.obj
 0002:00002660       __newctype                 0000000180020660     libucrt:ctype.obj
 0002:00002960       __newclmap                 0000000180020960     libucrt:ctype.obj
 0002:00002ae0       __newcumap                 0000000180020ae0     libucrt:ctype.obj
 0002:00002c60       _wctype                    0000000180020c60     libucrt:ctype.obj
 0002:00002e70       ?large_power_data@?1??multiply_by_power_of_ten@__crt_strtox@@YA_NAEAUbig_integer@2@I@Z@4QBIB 0000000180020e70     libucrt:cfout.obj
 0002:00003780       ?large_power_indices@?1??multiply_by_power_of_ten@__crt_strtox@@YA_NAEAUbig_integer@2@I@Z@4QBUunpack_index@?1??12@YA_N0I@Z@B 0000000180021780     libucrt:cfout.obj
 0002:00003818       ?small_powers_of_ten@?1??multiply_by_power_of_ten@__crt_strtox@@YA_NAEAUbig_integer@2@I@Z@4QBIB 0000000180021818     libucrt:cfout.obj
 0002:0000383c       ??_C@_01GBGANLPD@0?$AA@    000000018002183c     libucrt:cfout.obj
 0002:00003840       ??_C@_05DNEBIAHO@1?$CDINF?$AA@ 0000000180021840     libucrt:cfout.obj
 0002:00003848       ??_C@_06IMKFLFPG@1?$CDQNAN?$AA@ 0000000180021848     libucrt:cfout.obj
 0002:00003850       ??_C@_06PGGFOGJG@1?$CDSNAN?$AA@ 0000000180021850     libucrt:cfout.obj
 0002:00003858       ??_C@_05PHHOCPM@1?$CDIND?$AA@ 0000000180021858     libucrt:cfout.obj
 0002:00003860       ??_C@_15PJPFLCCM@?$AAu?$AAk?$AA?$AA@ 0000000180021860     libucrt:get_qualified_locale.obj
 0002:000046b0       ??_C@_15EMKDOKLE@?$AAa?$AAr?$AA?$AA@ 00000001800226b0     libucrt:lcidtoname_downlevel.obj
 0002:000046b8       ??_C@_15KNPADPLH@?$AAb?$AAg?$AA?$AA@ 00000001800226b8     libucrt:lcidtoname_downlevel.obj
 0002:000046c0       ??_C@_15EDMHLDMO@?$AAc?$AAa?$AA?$AA@ 00000001800226c0     libucrt:lcidtoname_downlevel.obj
 0002:000046c8       ??_C@_1O@BPEAJADD@?$AAz?$AAh?$AA?9?$AAC?$AAH?$AAS?$AA?$AA@ 00000001800226c8     libucrt:lcidtoname_downlevel.obj
 0002:000046d8       ??_C@_15LJNHCMNK@?$AAc?$AAs?$AA?$AA@ 00000001800226d8     libucrt:lcidtoname_downlevel.obj
 0002:000046e0       ??_C@_15FOMCIDHG@?$AAd?$AAa?$AA?$AA@ 00000001800226e0     libucrt:lcidtoname_downlevel.obj
 0002:000046e8       ??_C@_15NBKABECB@?$AAd?$AAe?$AA?$AA@ 00000001800226e8     libucrt:lcidtoname_downlevel.obj
 0002:000046f0       ??_C@_15GHPEIIAO@?$AAe?$AAl?$AA?$AA@ 00000001800226f0     libucrt:lcidtoname_downlevel.obj
 0002:000046f8       ??_C@_15MNPNEAIF@?$AAe?$AAn?$AA?$AA@ 00000001800226f8     libucrt:lcidtoname_downlevel.obj
 0002:00004700       ??_C@_15GPIOMPMH@?$AAe?$AAs?$AA?$AA@ 0000000180022700     libucrt:lcidtoname_downlevel.obj
 0002:00004708       ??_C@_15NGLOAKJC@?$AAf?$AAi?$AA?$AA@ 0000000180022708     libucrt:lcidtoname_downlevel.obj
 0002:00004710       ??_C@_15FBKGNKAM@?$AAf?$AAr?$AA?$AA@ 0000000180022710     libucrt:lcidtoname_downlevel.obj
 0002:00004718       ??_C@_15KGGCNEFK@?$AAh?$AAe?$AA?$AA@ 0000000180022718     libucrt:lcidtoname_downlevel.obj
 0002:00004720       ??_C@_15PGHLIDMF@?$AAh?$AAu?$AA?$AA@ 0000000180022720     libucrt:lcidtoname_downlevel.obj
 0002:00004728       ??_C@_15BIEMAPLM@?$AAi?$AAs?$AA?$AA@ 0000000180022728     libucrt:lcidtoname_downlevel.obj
 0002:00004730       ??_C@_15IFJLDHAF@?$AAi?$AAt?$AA?$AA@ 0000000180022730     libucrt:lcidtoname_downlevel.obj
 0002:00004738       ??_C@_15GEMIOCAG@?$AAj?$AAa?$AA?$AA@ 0000000180022738     libucrt:lcidtoname_downlevel.obj
 0002:00004740       ??_C@_15EPELEGJA@?$AAk?$AAo?$AA?$AA@ 0000000180022740     libucrt:lcidtoname_downlevel.obj
 0002:00004748       ??_C@_15NDDHIMN@?$AAn?$AAl?$AA?$AA@ 0000000180022748     libucrt:lcidtoname_downlevel.obj
 0002:00004750       ??_C@_15BPIGNHCD@?$AAn?$AAo?$AA?$AA@ 0000000180022750     libucrt:lcidtoname_downlevel.obj
 0002:00004758       ??_C@_15DEOPBLCG@?$AAp?$AAl?$AA?$AA@ 0000000180022758     libucrt:lcidtoname_downlevel.obj
 0002:00004760       ??_C@_15KBECGEFG@?$AAp?$AAt?$AA?$AA@ 0000000180022760     libucrt:lcidtoname_downlevel.obj
 0002:00004768       ??_C@_15GLJCBFMD@?$AAr?$AAo?$AA?$AA@ 0000000180022768     libucrt:lcidtoname_downlevel.obj
 0002:00004770       ??_C@_15FEDGKCDI@?$AAr?$AAu?$AA?$AA@ 0000000180022770     libucrt:lcidtoname_downlevel.obj
 0002:00004778       ??_C@_15GLKMLLHM@?$AAh?$AAr?$AA?$AA@ 0000000180022778     libucrt:lcidtoname_downlevel.obj
 0002:00004780       ??_C@_15CPKMFBDB@?$AAs?$AAk?$AA?$AA@ 0000000180022780     libucrt:lcidtoname_downlevel.obj
 0002:00004788       ??_C@_15BAAIOGMK@?$AAs?$AAq?$AA?$AA@ 0000000180022788     libucrt:lcidtoname_downlevel.obj
 0002:00004790       ??_C@_15INNPNOHD@?$AAs?$AAv?$AA?$AA@ 0000000180022790     libucrt:lcidtoname_downlevel.obj
 0002:00004798       ??_C@_15CABMMOGH@?$AAt?$AAh?$AA?$AA@ 0000000180022798     libucrt:lcidtoname_downlevel.obj
 0002:000047a0       ??_C@_15BPLIHJJM@?$AAt?$AAr?$AA?$AA@ 00000001800227a0     libucrt:lcidtoname_downlevel.obj
 0002:000047a8       ??_C@_15NEOEKKDJ@?$AAu?$AAr?$AA?$AA@ 00000001800227a8     libucrt:lcidtoname_downlevel.obj
 0002:000047b0       ??_C@_15NFICGAJK@?$AAi?$AAd?$AA?$AA@ 00000001800227b0     libucrt:lcidtoname_downlevel.obj
 0002:000047b8       ??_C@_15HPJPHDM@?$AAb?$AAe?$AA?$AA@ 00000001800227b8     libucrt:lcidtoname_downlevel.obj
 0002:000047c0       ??_C@_15LCHLGJII@?$AAs?$AAl?$AA?$AA@ 00000001800227c0     libucrt:lcidtoname_downlevel.obj
 0002:000047c8       ??_C@_15PCFJPHHO@?$AAe?$AAt?$AA?$AA@ 00000001800227c8     libucrt:lcidtoname_downlevel.obj
 0002:000047d0       ??_C@_15HPFPGODN@?$AAl?$AAv?$AA?$AA@ 00000001800227d0     libucrt:lcidtoname_downlevel.obj
 0002:000047d8       ??_C@_15NFFGKGLG@?$AAl?$AAt?$AA?$AA@ 00000001800227d8     libucrt:lcidtoname_downlevel.obj
 0002:000047e0       ??_C@_15BDAKCCHN@?$AAf?$AAa?$AA?$AA@ 00000001800227e0     libucrt:lcidtoname_downlevel.obj
 0002:000047e8       ??_C@_15NFGIAIAJ@?$AAv?$AAi?$AA?$AA@ 00000001800227e8     libucrt:lcidtoname_downlevel.obj
 0002:000047f0       ??_C@_15LMKNDMHN@?$AAh?$AAy?$AA?$AA@ 00000001800227f0     libucrt:lcidtoname_downlevel.obj
 0002:000047f8       ??_C@_15IJBHMCFL@?$AAa?$AAz?$AA?$AA@ 00000001800227f8     libucrt:lcidtoname_downlevel.obj
 0002:00004800       ??_C@_15EKOFJABL@?$AAe?$AAu?$AA?$AA@ 0000000180022800     libucrt:lcidtoname_downlevel.obj
 0002:00004808       ??_C@_15BGHADCNK@?$AAm?$AAk?$AA?$AA@ 0000000180022808     libucrt:lcidtoname_downlevel.obj
 0002:00004810       ??_C@_15JDNICKHM@?$AAa?$AAf?$AA?$AA@ 0000000180022810     libucrt:lcidtoname_downlevel.obj
 0002:00004818       ??_C@_15KPJEDBKD@?$AAk?$AAa?$AA?$AA@ 0000000180022818     libucrt:lcidtoname_downlevel.obj
 0002:00004820       ??_C@_15PDNFFFEO@?$AAf?$AAo?$AA?$AA@ 0000000180022820     libucrt:lcidtoname_downlevel.obj
 0002:00004828       ??_C@_15OMLEGLOC@?$AAh?$AAi?$AA?$AA@ 0000000180022828     libucrt:lcidtoname_downlevel.obj
 0002:00004830       ??_C@_15IDNNENKK@?$AAm?$AAs?$AA?$AA@ 0000000180022830     libucrt:lcidtoname_downlevel.obj
 0002:00004838       ??_C@_15MACJNBMH@?$AAk?$AAk?$AA?$AA@ 0000000180022838     libucrt:lcidtoname_downlevel.obj
 0002:00004840       ??_C@_15DKDJEOND@?$AAk?$AAy?$AA?$AA@ 0000000180022840     libucrt:lcidtoname_downlevel.obj
 0002:00004848       ??_C@_15DFGDLJBG@?$AAs?$AAw?$AA?$AA@ 0000000180022848     libucrt:lcidtoname_downlevel.obj
 0002:00004850       ??_C@_15BBFAICNG@?$AAu?$AAz?$AA?$AA@ 0000000180022850     libucrt:lcidtoname_downlevel.obj
 0002:00004858       ??_C@_15DKNDCGEA@?$AAt?$AAt?$AA?$AA@ 0000000180022858     libucrt:lcidtoname_downlevel.obj
 0002:00004860       ??_C@_15MGIFMDPL@?$AAp?$AAa?$AA?$AA@ 0000000180022860     libucrt:lcidtoname_downlevel.obj
 0002:00004868       ??_C@_15HCNDBBA@?$AAg?$AAu?$AA?$AA@ 0000000180022868     libucrt:lcidtoname_downlevel.obj
 0002:00004870       ??_C@_15FNBEIBON@?$AAt?$AAa?$AA?$AA@ 0000000180022870     libucrt:lcidtoname_downlevel.obj
 0002:00004878       ??_C@_15NCHGBGLK@?$AAt?$AAe?$AA?$AA@ 0000000180022878     libucrt:lcidtoname_downlevel.obj
 0002:00004880       ??_C@_15PHPHCBPF@?$AAk?$AAn?$AA?$AA@ 0000000180022880     libucrt:lcidtoname_downlevel.obj
 0002:00004888       ??_C@_15DLGBCKMP@?$AAm?$AAr?$AA?$AA@ 0000000180022888     libucrt:lcidtoname_downlevel.obj
 0002:00004890       ??_C@_15EABBLBFF@?$AAs?$AAa?$AA?$AA@ 0000000180022890     libucrt:lcidtoname_downlevel.obj
 0002:00004898       ??_C@_15CBKOMCOI@?$AAm?$AAn?$AA?$AA@ 0000000180022898     libucrt:lcidtoname_downlevel.obj
 0002:000048a0       ??_C@_15CKDMCJAF@?$AAg?$AAl?$AA?$AA@ 00000001800228a0     libucrt:lcidtoname_downlevel.obj
 0002:000048a8       ??_C@_17CNJFBPG@?$AAk?$AAo?$AAk?$AA?$AA@ 00000001800228a8     libucrt:lcidtoname_downlevel.obj
 0002:000048b0       ??_C@_17FFBJICPL@?$AAs?$AAy?$AAr?$AA?$AA@ 00000001800228b0     libucrt:lcidtoname_downlevel.obj
 0002:000048b8       ??_C@_17KPNDCPAF@?$AAd?$AAi?$AAv?$AA?$AA@ 00000001800228b8     libucrt:lcidtoname_downlevel.obj
 0002:000048c0       ??_C@_11LOCGONAA@?$AA?$AA@ 00000001800228c0     libucrt:lcidtoname_downlevel.obj
 0002:000048c8       ??_C@_1M@OKAHONE@?$AAa?$AAr?$AA?9?$AAS?$AAA?$AA?$AA@ 00000001800228c8     libucrt:lcidtoname_downlevel.obj
 0002:000048d8       ??_C@_1M@FFFIGIGK@?$AAb?$AAg?$AA?9?$AAB?$AAG?$AA?$AA@ 00000001800228d8     libucrt:lcidtoname_downlevel.obj
 0002:000048e8       ??_C@_1M@BJNKEDC@?$AAc?$AAa?$AA?9?$AAE?$AAS?$AA?$AA@ 00000001800228e8     libucrt:lcidtoname_downlevel.obj
 0002:000048f8       ??_C@_1M@IJJHFJHA@?$AAc?$AAs?$AA?9?$AAC?$AAZ?$AA?$AA@ 00000001800228f8     libucrt:lcidtoname_downlevel.obj
 0002:00004908       ??_C@_1M@CLPEOBGI@?$AAd?$AAa?$AA?9?$AAD?$AAK?$AA?$AA@ 0000000180022908     libucrt:lcidtoname_downlevel.obj
 0002:00004918       ??_C@_1M@MCMADGCB@?$AAd?$AAe?$AA?9?$AAD?$AAE?$AA?$AA@ 0000000180022918     libucrt:lcidtoname_downlevel.obj
 0002:00004928       ??_C@_1M@OOCKEMAM@?$AAe?$AAl?$AA?9?$AAG?$AAR?$AA?$AA@ 0000000180022928     libucrt:lcidtoname_downlevel.obj
 0002:00004938       ??_C@_1M@DDNJFGID@?$AAf?$AAi?$AA?9?$AAF?$AAI?$AA?$AA@ 0000000180022938     libucrt:lcidtoname_downlevel.obj
 0002:00004948       ??_C@_1M@GLIPPMAC@?$AAf?$AAr?$AA?9?$AAF?$AAR?$AA?$AA@ 0000000180022948     libucrt:lcidtoname_downlevel.obj
 0002:00004958       ??_C@_1M@GFMCHPE@?$AAh?$AAe?$AA?9?$AAI?$AAL?$AA?$AA@ 0000000180022958     libucrt:lcidtoname_downlevel.obj
 0002:00004968       ??_C@_1M@MHLPGNKM@?$AAh?$AAu?$AA?9?$AAH?$AAU?$AA?$AA@ 0000000180022968     libucrt:lcidtoname_downlevel.obj
 0002:00004978       ??_C@_1M@LPDDNNPN@?$AAi?$AAs?$AA?9?$AAI?$AAS?$AA?$AA@ 0000000180022978     libucrt:lcidtoname_downlevel.obj
 0002:00004988       ??_C@_1M@MADIPODN@?$AAi?$AAt?$AA?9?$AAI?$AAT?$AA?$AA@ 0000000180022988     libucrt:lcidtoname_downlevel.obj
 0002:00004998       ??_C@_1M@IHBJJGG@?$AAn?$AAl?$AA?9?$AAN?$AAL?$AA?$AA@ 0000000180022998     libucrt:lcidtoname_downlevel.obj
 0002:000049a8       ??_C@_1M@EANAGDL@?$AAn?$AAb?$AA?9?$AAN?$AAO?$AA?$AA@ 00000001800229a8     libucrt:lcidtoname_downlevel.obj
 0002:000049b8       ??_C@_1M@NEIEMEGP@?$AAp?$AAl?$AA?9?$AAP?$AAL?$AA?$AA@ 00000001800229b8     libucrt:lcidtoname_downlevel.obj
 0002:000049c8       ??_C@_1M@BOCFIGEP@?$AAp?$AAt?$AA?9?$AAB?$AAR?$AA?$AA@ 00000001800229c8     libucrt:lcidtoname_downlevel.obj
 0002:000049d8       ??_C@_1M@IMPFOPBG@?$AAr?$AAo?$AA?9?$AAR?$AAO?$AA?$AA@ 00000001800229d8     libucrt:lcidtoname_downlevel.obj
 0002:000049e8       ??_C@_1M@IDNNEJMM@?$AAr?$AAu?$AA?9?$AAR?$AAU?$AA?$AA@ 00000001800229e8     libucrt:lcidtoname_downlevel.obj
 0002:000049f8       ??_C@_1M@LILEEOGM@?$AAh?$AAr?$AA?9?$AAH?$AAR?$AA?$AA@ 00000001800229f8     libucrt:lcidtoname_downlevel.obj
 0002:00004a08       ??_C@_1M@FKIFEHPB@?$AAs?$AAk?$AA?9?$AAS?$AAK?$AA?$AA@ 0000000180022a08     libucrt:lcidtoname_downlevel.obj
 0002:00004a18       ??_C@_1M@LJMAMNPJ@?$AAs?$AAq?$AA?9?$AAA?$AAL?$AA?$AA@ 0000000180022a18     libucrt:lcidtoname_downlevel.obj
 0002:00004a28       ??_C@_1M@GIAKDKJK@?$AAs?$AAv?$AA?9?$AAS?$AAE?$AA?$AA@ 0000000180022a28     libucrt:lcidtoname_downlevel.obj
 0002:00004a38       ??_C@_1M@MKJKIKCL@?$AAt?$AAh?$AA?9?$AAT?$AAH?$AA?$AA@ 0000000180022a38     libucrt:lcidtoname_downlevel.obj
 0002:00004a48       ??_C@_1M@MFLCCMPB@?$AAt?$AAr?$AA?9?$AAT?$AAR?$AA?$AA@ 0000000180022a48     libucrt:lcidtoname_downlevel.obj
 0002:00004a58       ??_C@_1M@OIJHDKJN@?$AAu?$AAr?$AA?9?$AAP?$AAK?$AA?$AA@ 0000000180022a58     libucrt:lcidtoname_downlevel.obj
 0002:00004a68       ??_C@_1M@LHIPCIEK@?$AAi?$AAd?$AA?9?$AAI?$AAD?$AA?$AA@ 0000000180022a68     libucrt:lcidtoname_downlevel.obj
 0002:00004a78       ??_C@_1M@MFMOBGI@?$AAu?$AAk?$AA?9?$AAU?$AAA?$AA?$AA@ 0000000180022a78     libucrt:lcidtoname_downlevel.obj
 0002:00004a88       ??_C@_1M@OBGLJIPL@?$AAb?$AAe?$AA?9?$AAB?$AAY?$AA?$AA@ 0000000180022a88     libucrt:lcidtoname_downlevel.obj
 0002:00004a98       ??_C@_1M@BCFAJEAD@?$AAs?$AAl?$AA?9?$AAS?$AAI?$AA?$AA@ 0000000180022a98     libucrt:lcidtoname_downlevel.obj
 0002:00004aa8       ??_C@_1M@FKFFEDDN@?$AAe?$AAt?$AA?9?$AAE?$AAE?$AA?$AA@ 0000000180022aa8     libucrt:lcidtoname_downlevel.obj
 0002:00004ab8       ??_C@_1M@KGKKAACI@?$AAl?$AAv?$AA?9?$AAL?$AAV?$AA?$AA@ 0000000180022ab8     libucrt:lcidtoname_downlevel.obj
 0002:00004ac8       ??_C@_1M@IFGBIJO@?$AAl?$AAt?$AA?9?$AAL?$AAT?$AA?$AA@ 0000000180022ac8     libucrt:lcidtoname_downlevel.obj
 0002:00004ad8       ??_C@_1M@FGEAHEDM@?$AAf?$AAa?$AA?9?$AAI?$AAR?$AA?$AA@ 0000000180022ad8     libucrt:lcidtoname_downlevel.obj
 0002:00004ae8       ??_C@_1M@KBMAIBFN@?$AAv?$AAi?$AA?9?$AAV?$AAN?$AA?$AA@ 0000000180022ae8     libucrt:lcidtoname_downlevel.obj
 0002:00004af8       ??_C@_1M@GPCBKDJK@?$AAh?$AAy?$AA?9?$AAA?$AAM?$AA?$AA@ 0000000180022af8     libucrt:lcidtoname_downlevel.obj
 0002:00004b08       ??_C@_1BG@BECMDDJB@?$AAa?$AAz?$AA?9?$AAA?$AAZ?$AA?9?$AAL?$AAa?$AAt?$AAn?$AA?$AA@ 0000000180022b08     libucrt:lcidtoname_downlevel.obj
 0002:00004b20       ??_C@_1M@MAOFCAEA@?$AAe?$AAu?$AA?9?$AAE?$AAS?$AA?$AA@ 0000000180022b20     libucrt:lcidtoname_downlevel.obj
 0002:00004b30       ??_C@_1M@IGHABKPI@?$AAm?$AAk?$AA?9?$AAM?$AAK?$AA?$AA@ 0000000180022b30     libucrt:lcidtoname_downlevel.obj
 0002:00004b40       ??_C@_1M@IAIGNEJG@?$AAt?$AAn?$AA?9?$AAZ?$AAA?$AA?$AA@ 0000000180022b40     libucrt:lcidtoname_downlevel.obj
 0002:00004b50       ??_C@_1M@IIJCOJFA@?$AAx?$AAh?$AA?9?$AAZ?$AAA?$AA?$AA@ 0000000180022b50     libucrt:lcidtoname_downlevel.obj
 0002:00004b60       ??_C@_1M@LGPJHNJH@?$AAz?$AAu?$AA?9?$AAZ?$AAA?$AA?$AA@ 0000000180022b60     libucrt:lcidtoname_downlevel.obj
 0002:00004b70       ??_C@_1M@HOKAOIO@?$AAa?$AAf?$AA?9?$AAZ?$AAA?$AA?$AA@ 0000000180022b70     libucrt:lcidtoname_downlevel.obj
 0002:00004b80       ??_C@_1M@DPCLHLIE@?$AAk?$AAa?$AA?9?$AAG?$AAE?$AA?$AA@ 0000000180022b80     libucrt:lcidtoname_downlevel.obj
 0002:00004b90       ??_C@_1M@BLKMHJBI@?$AAf?$AAo?$AA?9?$AAF?$AAO?$AA?$AA@ 0000000180022b90     libucrt:lcidtoname_downlevel.obj
 0002:00004ba0       ??_C@_1M@LGGJAPPB@?$AAh?$AAi?$AA?9?$AAI?$AAN?$AA?$AA@ 0000000180022ba0     libucrt:lcidtoname_downlevel.obj
 0002:00004bb0       ??_C@_1M@FIKPIHFE@?$AAm?$AAt?$AA?9?$AAM?$AAT?$AA?$AA@ 0000000180022bb0     libucrt:lcidtoname_downlevel.obj
 0002:00004bc0       ??_C@_1M@HEGGPBFA@?$AAs?$AAe?$AA?9?$AAN?$AAO?$AA?$AA@ 0000000180022bc0     libucrt:lcidtoname_downlevel.obj
 0002:00004bd0       ??_C@_1M@EIBJEEPA@?$AAm?$AAs?$AA?9?$AAM?$AAY?$AA?$AA@ 0000000180022bd0     libucrt:lcidtoname_downlevel.obj
 0002:00004be0       ??_C@_1M@FHLBGMPP@?$AAk?$AAk?$AA?9?$AAK?$AAZ?$AA?$AA@ 0000000180022be0     libucrt:lcidtoname_downlevel.obj
 0002:00004bf0       ??_C@_1M@NGJJLCGI@?$AAk?$AAy?$AA?9?$AAK?$AAG?$AA?$AA@ 0000000180022bf0     libucrt:lcidtoname_downlevel.obj
 0002:00004c00       ??_C@_1M@GIENNBFC@?$AAs?$AAw?$AA?9?$AAK?$AAE?$AA?$AA@ 0000000180022c00     libucrt:lcidtoname_downlevel.obj
 0002:00004c10       ??_C@_1BG@NDGMJIMJ@?$AAu?$AAz?$AA?9?$AAU?$AAZ?$AA?9?$AAL?$AAa?$AAt?$AAn?$AA?$AA@ 0000000180022c10     libucrt:lcidtoname_downlevel.obj
 0002:00004c28       ??_C@_1M@IDCCIHBC@?$AAt?$AAt?$AA?9?$AAR?$AAU?$AA?$AA@ 0000000180022c28     libucrt:lcidtoname_downlevel.obj
 0002:00004c38       ??_C@_1M@LOICPMOJ@?$AAb?$AAn?$AA?9?$AAI?$AAN?$AA?$AA@ 0000000180022c38     libucrt:lcidtoname_downlevel.obj
 0002:00004c48       ??_C@_1M@KPKKNEAH@?$AAp?$AAa?$AA?9?$AAI?$AAN?$AA?$AA@ 0000000180022c48     libucrt:lcidtoname_downlevel.obj
 0002:00004c58       ??_C@_1M@PJGPPBOG@?$AAg?$AAu?$AA?9?$AAI?$AAN?$AA?$AA@ 0000000180022c58     libucrt:lcidtoname_downlevel.obj
 0002:00004c68       ??_C@_1M@KMKMOPHI@?$AAt?$AAa?$AA?9?$AAI?$AAN?$AA?$AA@ 0000000180022c68     libucrt:lcidtoname_downlevel.obj
 0002:00004c78       ??_C@_1M@KFEHEPAC@?$AAt?$AAe?$AA?9?$AAI?$AAN?$AA?$AA@ 0000000180022c78     libucrt:lcidtoname_downlevel.obj
 0002:00004c88       ??_C@_1M@CDCLMGHI@?$AAk?$AAn?$AA?9?$AAI?$AAN?$AA?$AA@ 0000000180022c88     libucrt:lcidtoname_downlevel.obj
 0002:00004c98       ??_C@_1M@MIODLDKF@?$AAm?$AAl?$AA?9?$AAI?$AAN?$AA?$AA@ 0000000180022c98     libucrt:lcidtoname_downlevel.obj
 0002:00004ca8       ??_C@_1M@PBIEACPO@?$AAm?$AAr?$AA?9?$AAI?$AAN?$AA?$AA@ 0000000180022ca8     libucrt:lcidtoname_downlevel.obj
 0002:00004cb8       ??_C@_1M@NIDEAGPH@?$AAs?$AAa?$AA?9?$AAI?$AAN?$AA?$AA@ 0000000180022cb8     libucrt:lcidtoname_downlevel.obj
 0002:00004cc8       ??_C@_1M@FHIHCBIO@?$AAm?$AAn?$AA?9?$AAM?$AAN?$AA?$AA@ 0000000180022cc8     libucrt:lcidtoname_downlevel.obj
 0002:00004cd8       ??_C@_1M@JAIJPENP@?$AAc?$AAy?$AA?9?$AAG?$AAB?$AA?$AA@ 0000000180022cd8     libucrt:lcidtoname_downlevel.obj
 0002:00004ce8       ??_C@_1M@PHGFBEPN@?$AAg?$AAl?$AA?9?$AAE?$AAS?$AA?$AA@ 0000000180022ce8     libucrt:lcidtoname_downlevel.obj
 0002:00004cf8       ??_C@_1O@KPIPDNCP@?$AAk?$AAo?$AAk?$AA?9?$AAI?$AAN?$AA?$AA@ 0000000180022cf8     libucrt:lcidtoname_downlevel.obj
 0002:00004d08       ??_C@_1O@KNHJLDJA@?$AAs?$AAy?$AAr?$AA?9?$AAS?$AAY?$AA?$AA@ 0000000180022d08     libucrt:lcidtoname_downlevel.obj
 0002:00004d18       ??_C@_1O@MKEKBLAH@?$AAd?$AAi?$AAv?$AA?9?$AAM?$AAV?$AA?$AA@ 0000000180022d18     libucrt:lcidtoname_downlevel.obj
 0002:00004d28       ??_C@_1O@OHDCKDDF@?$AAq?$AAu?$AAz?$AA?9?$AAB?$AAO?$AA?$AA@ 0000000180022d28     libucrt:lcidtoname_downlevel.obj
 0002:00004d38       ??_C@_1M@LEPJNLFD@?$AAn?$AAs?$AA?9?$AAZ?$AAA?$AA?$AA@ 0000000180022d38     libucrt:lcidtoname_downlevel.obj
 0002:00004d48       ??_C@_1M@OMLEIIJB@?$AAm?$AAi?$AA?9?$AAN?$AAZ?$AA?$AA@ 0000000180022d48     libucrt:lcidtoname_downlevel.obj
 0002:00004d58       ??_C@_1M@PMPEAILG@?$AAa?$AAr?$AA?9?$AAI?$AAQ?$AA?$AA@ 0000000180022d58     libucrt:lcidtoname_downlevel.obj
 0002:00004d68       ??_C@_1M@CNKPNOEE@?$AAd?$AAe?$AA?9?$AAC?$AAH?$AA?$AA@ 0000000180022d68     libucrt:lcidtoname_downlevel.obj
 0002:00004d78       ??_C@_1M@LKMGMLKO@?$AAe?$AAn?$AA?9?$AAG?$AAB?$AA?$AA@ 0000000180022d78     libucrt:lcidtoname_downlevel.obj
 0002:00004d88       ??_C@_1M@PGKJFFGL@?$AAe?$AAs?$AA?9?$AAM?$AAX?$AA?$AA@ 0000000180022d88     libucrt:lcidtoname_downlevel.obj
 0002:00004d98       ??_C@_1M@DNNANBDC@?$AAf?$AAr?$AA?9?$AAB?$AAE?$AA?$AA@ 0000000180022d98     libucrt:lcidtoname_downlevel.obj
 0002:00004da8       ??_C@_1M@HLGMDFHM@?$AAi?$AAt?$AA?9?$AAC?$AAH?$AA?$AA@ 0000000180022da8     libucrt:lcidtoname_downlevel.obj
 0002:00004db8       ??_C@_1M@CLLBGJH@?$AAn?$AAl?$AA?9?$AAB?$AAE?$AA?$AA@ 0000000180022db8     libucrt:lcidtoname_downlevel.obj
 0002:00004dc8       ??_C@_1M@BODBOGLF@?$AAn?$AAn?$AA?9?$AAN?$AAO?$AA?$AA@ 0000000180022dc8     libucrt:lcidtoname_downlevel.obj
 0002:00004dd8       ??_C@_1M@HFFAHKAD@?$AAp?$AAt?$AA?9?$AAP?$AAT?$AA?$AA@ 0000000180022dd8     libucrt:lcidtoname_downlevel.obj
 0002:00004de8       ??_C@_1BG@LNOAKHIE@?$AAs?$AAr?$AA?9?$AAS?$AAP?$AA?9?$AAL?$AAa?$AAt?$AAn?$AA?$AA@ 0000000180022de8     libucrt:lcidtoname_downlevel.obj
 0002:00004e00       ??_C@_1M@HBMHBGAK@?$AAs?$AAv?$AA?9?$AAF?$AAI?$AA?$AA@ 0000000180022e00     libucrt:lcidtoname_downlevel.obj
 0002:00004e10       ??_C@_1BG@DGCJGJBE@?$AAa?$AAz?$AA?9?$AAA?$AAZ?$AA?9?$AAC?$AAy?$AAr?$AAl?$AA?$AA@ 0000000180022e10     libucrt:lcidtoname_downlevel.obj
 0002:00004e28       ??_C@_1M@KEJDAAHB@?$AAs?$AAe?$AA?9?$AAS?$AAE?$AA?$AA@ 0000000180022e28     libucrt:lcidtoname_downlevel.obj
 0002:00004e38       ??_C@_1M@HEIBJJAD@?$AAm?$AAs?$AA?9?$AAB?$AAN?$AA?$AA@ 0000000180022e38     libucrt:lcidtoname_downlevel.obj
 0002:00004e48       ??_C@_1BG@PBGJMCEM@?$AAu?$AAz?$AA?9?$AAU?$AAZ?$AA?9?$AAC?$AAy?$AAr?$AAl?$AA?$AA@ 0000000180022e48     libucrt:lcidtoname_downlevel.obj
 0002:00004e60       ??_C@_1O@LAOBCMDF@?$AAq?$AAu?$AAz?$AA?9?$AAE?$AAC?$AA?$AA@ 0000000180022e60     libucrt:lcidtoname_downlevel.obj
 0002:00004e70       ??_C@_1M@POEEMAIO@?$AAa?$AAr?$AA?9?$AAE?$AAG?$AA?$AA@ 0000000180022e70     libucrt:lcidtoname_downlevel.obj
 0002:00004e80       ??_C@_1M@EFAKDEDL@?$AAz?$AAh?$AA?9?$AAH?$AAK?$AA?$AA@ 0000000180022e80     libucrt:lcidtoname_downlevel.obj
 0002:00004e90       ??_C@_1M@HKKIJHGI@?$AAd?$AAe?$AA?9?$AAA?$AAT?$AA?$AA@ 0000000180022e90     libucrt:lcidtoname_downlevel.obj
 0002:00004ea0       ??_C@_1M@KBFBEHJF@?$AAe?$AAn?$AA?9?$AAA?$AAU?$AA?$AA@ 0000000180022ea0     libucrt:lcidtoname_downlevel.obj
 0002:00004eb0       ??_C@_1M@MNPLFAAH@?$AAe?$AAs?$AA?9?$AAE?$AAS?$AA?$AA@ 0000000180022eb0     libucrt:lcidtoname_downlevel.obj
 0002:00004ec0       ??_C@_1M@HJOOJFMA@?$AAf?$AAr?$AA?9?$AAC?$AAA?$AA?$AA@ 0000000180022ec0     libucrt:lcidtoname_downlevel.obj
 0002:00004ed0       ??_C@_1BG@JPOFPNAB@?$AAs?$AAr?$AA?9?$AAS?$AAP?$AA?9?$AAC?$AAy?$AAr?$AAl?$AA?$AA@ 0000000180022ed0     libucrt:lcidtoname_downlevel.obj
 0002:00004ee8       ??_C@_1M@LNFOCMOB@?$AAs?$AAe?$AA?9?$AAF?$AAI?$AA?$AA@ 0000000180022ee8     libucrt:lcidtoname_downlevel.obj
 0002:00004ef8       ??_C@_1O@MGJBOAMB@?$AAq?$AAu?$AAz?$AA?9?$AAP?$AAE?$AA?$AA@ 0000000180022ef8     libucrt:lcidtoname_downlevel.obj
 0002:00004f08       ??_C@_1M@GJINLBOK@?$AAa?$AAr?$AA?9?$AAL?$AAY?$AA?$AA@ 0000000180022f08     libucrt:lcidtoname_downlevel.obj
 0002:00004f18       ??_C@_1M@GGMNHJNL@?$AAz?$AAh?$AA?9?$AAS?$AAG?$AA?$AA@ 0000000180022f18     libucrt:lcidtoname_downlevel.obj
 0002:00004f28       ??_C@_1M@HOIKODND@?$AAd?$AAe?$AA?9?$AAL?$AAU?$AA?$AA@ 0000000180022f28     libucrt:lcidtoname_downlevel.obj
 0002:00004f38       ??_C@_1M@DDOCCGFG@?$AAe?$AAn?$AA?9?$AAC?$AAA?$AA?$AA@ 0000000180022f38     libucrt:lcidtoname_downlevel.obj
 0002:00004f48       ??_C@_1M@BNOEMJLF@?$AAe?$AAs?$AA?9?$AAG?$AAT?$AA?$AA@ 0000000180022f48     libucrt:lcidtoname_downlevel.obj
 0002:00004f58       ??_C@_1M@EOGNKEK@?$AAf?$AAr?$AA?9?$AAC?$AAH?$AA?$AA@ 0000000180022f58     libucrt:lcidtoname_downlevel.obj
 0002:00004f68       ??_C@_1M@FLIDJFHL@?$AAh?$AAr?$AA?9?$AAB?$AAA?$AA?$AA@ 0000000180022f68     libucrt:lcidtoname_downlevel.obj
 0002:00004f78       ??_C@_1O@FMCELNAJ@?$AAs?$AAm?$AAj?$AA?9?$AAN?$AAO?$AA?$AA@ 0000000180022f78     libucrt:lcidtoname_downlevel.obj
 0002:00004f88       ??_C@_1M@JHGLJMGJ@?$AAa?$AAr?$AA?9?$AAD?$AAZ?$AA?$AA@ 0000000180022f88     libucrt:lcidtoname_downlevel.obj
 0002:00004f98       ??_C@_1M@JKKFDCNP@?$AAz?$AAh?$AA?9?$AAM?$AAO?$AA?$AA@ 0000000180022f98     libucrt:lcidtoname_downlevel.obj
 0002:00004fa8       ??_C@_1M@GEEFALPE@?$AAd?$AAe?$AA?9?$AAL?$AAI?$AA?$AA@ 0000000180022fa8     libucrt:lcidtoname_downlevel.obj
 0002:00004fb8       ??_C@_1M@IGEOFBG@?$AAe?$AAn?$AA?9?$AAN?$AAZ?$AA?$AA@ 0000000180022fb8     libucrt:lcidtoname_downlevel.obj
 0002:00004fc8       ??_C@_1M@KDBONEHP@?$AAe?$AAs?$AA?9?$AAC?$AAR?$AA?$AA@ 0000000180022fc8     libucrt:lcidtoname_downlevel.obj
 0002:00004fd8       ??_C@_1M@FHMDOHNN@?$AAf?$AAr?$AA?9?$AAL?$AAU?$AA?$AA@ 0000000180022fd8     libucrt:lcidtoname_downlevel.obj
 0002:00004fe8       ??_C@_1BG@NFKKMAFG@?$AAb?$AAs?$AA?9?$AAB?$AAA?$AA?9?$AAL?$AAa?$AAt?$AAn?$AA?$AA@ 0000000180022fe8     libucrt:lcidtoname_downlevel.obj
 0002:00005000       ??_C@_1O@IMNBEMCI@?$AAs?$AAm?$AAj?$AA?9?$AAS?$AAE?$AA?$AA@ 0000000180023000     libucrt:lcidtoname_downlevel.obj
 0002:00005010       ??_C@_1M@DHHMBNDP@?$AAa?$AAr?$AA?9?$AAM?$AAA?$AA?$AA@ 0000000180023010     libucrt:lcidtoname_downlevel.obj
 0002:00005020       ??_C@_1M@BNBLJCGH@?$AAe?$AAn?$AA?9?$AAI?$AAE?$AA?$AA@ 0000000180023020     libucrt:lcidtoname_downlevel.obj
 0002:00005030       ??_C@_1M@GEPAFMDL@?$AAe?$AAs?$AA?9?$AAP?$AAA?$AA?$AA@ 0000000180023030     libucrt:lcidtoname_downlevel.obj
 0002:00005040       ??_C@_1M@OJONDMDL@?$AAf?$AAr?$AA?9?$AAM?$AAC?$AA?$AA@ 0000000180023040     libucrt:lcidtoname_downlevel.obj
 0002:00005050       ??_C@_1BG@OBCNFJB@?$AAs?$AAr?$AA?9?$AAB?$AAA?$AA?9?$AAL?$AAa?$AAt?$AAn?$AA?$AA@ 0000000180023050     libucrt:lcidtoname_downlevel.obj
 0002:00005068       ??_C@_1O@KEMEEGPO@?$AAs?$AAm?$AAa?$AA?9?$AAN?$AAO?$AA?$AA@ 0000000180023068     libucrt:lcidtoname_downlevel.obj
 0002:00005078       ??_C@_1M@ELMGFODK@?$AAa?$AAr?$AA?9?$AAT?$AAN?$AA?$AA@ 0000000180023078     libucrt:lcidtoname_downlevel.obj
 0002:00005088       ??_C@_1M@BHDLHFAF@?$AAe?$AAn?$AA?9?$AAZ?$AAA?$AA?$AA@ 0000000180023088     libucrt:lcidtoname_downlevel.obj
 0002:00005098       ??_C@_1M@BMGIGLIF@?$AAe?$AAs?$AA?9?$AAD?$AAO?$AA?$AA@ 0000000180023098     libucrt:lcidtoname_downlevel.obj
 0002:000050a8       ??_C@_1BG@CMBHIPBE@?$AAs?$AAr?$AA?9?$AAB?$AAA?$AA?9?$AAC?$AAy?$AAr?$AAl?$AA?$AA@ 00000001800230a8     libucrt:lcidtoname_downlevel.obj
 0002:000050c0       ??_C@_1O@HEDBLHNP@?$AAs?$AAm?$AAa?$AA?9?$AAS?$AAE?$AA?$AA@ 00000001800230c0     libucrt:lcidtoname_downlevel.obj
 0002:000050d0       ??_C@_1M@DAGCADIM@?$AAa?$AAr?$AA?9?$AAO?$AAM?$AA?$AA@ 00000001800230d0     libucrt:lcidtoname_downlevel.obj
 0002:000050e0       ??_C@_1M@FODLMICG@?$AAe?$AAn?$AA?9?$AAJ?$AAM?$AA?$AA@ 00000001800230e0     libucrt:lcidtoname_downlevel.obj
 0002:000050f0       ??_C@_1M@DNMLCIHB@?$AAe?$AAs?$AA?9?$AAV?$AAE?$AA?$AA@ 00000001800230f0     libucrt:lcidtoname_downlevel.obj
 0002:00005100       ??_C@_1O@EOKHMKJK@?$AAs?$AAm?$AAs?$AA?9?$AAF?$AAI?$AA?$AA@ 0000000180023100     libucrt:lcidtoname_downlevel.obj
 0002:00005110       ??_C@_1M@CAFJMKOF@?$AAa?$AAr?$AA?9?$AAY?$AAE?$AA?$AA@ 0000000180023110     libucrt:lcidtoname_downlevel.obj
 0002:00005120       ??_C@_1M@CBFHIJLI@?$AAe?$AAn?$AA?9?$AAC?$AAB?$AA?$AA@ 0000000180023120     libucrt:lcidtoname_downlevel.obj
 0002:00005130       ??_C@_1M@BGNFLDN@?$AAe?$AAs?$AA?9?$AAC?$AAO?$AA?$AA@ 0000000180023130     libucrt:lcidtoname_downlevel.obj
 0002:00005140       ??_C@_1O@JMPHMAMC@?$AAs?$AAm?$AAn?$AA?9?$AAF?$AAI?$AA?$AA@ 0000000180023140     libucrt:lcidtoname_downlevel.obj
 0002:00005150       ??_C@_1M@JLANABKE@?$AAa?$AAr?$AA?9?$AAS?$AAY?$AA?$AA@ 0000000180023150     libucrt:lcidtoname_downlevel.obj
 0002:00005160       ??_C@_1M@HPKGCFGN@?$AAe?$AAn?$AA?9?$AAB?$AAZ?$AA?$AA@ 0000000180023160     libucrt:lcidtoname_downlevel.obj
 0002:00005170       ??_C@_1M@OLJCMLGM@?$AAe?$AAs?$AA?9?$AAP?$AAE?$AA?$AA@ 0000000180023170     libucrt:lcidtoname_downlevel.obj
 0002:00005180       ??_C@_1M@MKKGFKLE@?$AAa?$AAr?$AA?9?$AAJ?$AAO?$AA?$AA@ 0000000180023180     libucrt:lcidtoname_downlevel.obj
 0002:00005190       ??_C@_1M@EKPGLDNI@?$AAe?$AAn?$AA?9?$AAT?$AAT?$AA?$AA@ 0000000180023190     libucrt:lcidtoname_downlevel.obj
 0002:000051a0       ??_C@_1M@OONGHFHE@?$AAe?$AAs?$AA?9?$AAA?$AAR?$AA?$AA@ 00000001800231a0     libucrt:lcidtoname_downlevel.obj
 0002:000051b0       ??_C@_1M@OOJFGBHE@?$AAa?$AAr?$AA?9?$AAL?$AAB?$AA?$AA@ 00000001800231b0     libucrt:lcidtoname_downlevel.obj
 0002:000051c0       ??_C@_1M@GCEJHNEG@?$AAe?$AAn?$AA?9?$AAZ?$AAW?$AA?$AA@ 00000001800231c0     libucrt:lcidtoname_downlevel.obj
 0002:000051d0       ??_C@_1M@JNOCAHJI@?$AAe?$AAs?$AA?9?$AAE?$AAC?$AA?$AA@ 00000001800231d0     libucrt:lcidtoname_downlevel.obj
 0002:000051e0       ??_C@_1M@JEFHPGGB@?$AAa?$AAr?$AA?9?$AAK?$AAW?$AA?$AA@ 00000001800231e0     libucrt:lcidtoname_downlevel.obj
 0002:000051f0       ??_C@_1M@MLKIBJOJ@?$AAe?$AAn?$AA?9?$AAP?$AAH?$AA?$AA@ 00000001800231f0     libucrt:lcidtoname_downlevel.obj
 0002:00005200       ??_C@_1M@BDNIPEND@?$AAe?$AAs?$AA?9?$AAC?$AAL?$AA?$AA@ 0000000180023200     libucrt:lcidtoname_downlevel.obj
 0002:00005210       ??_C@_1M@MPNMEKBD@?$AAa?$AAr?$AA?9?$AAA?$AAE?$AA?$AA@ 0000000180023210     libucrt:lcidtoname_downlevel.obj
 0002:00005220       ??_C@_1M@KBJALCPI@?$AAe?$AAs?$AA?9?$AAU?$AAY?$AA?$AA@ 0000000180023220     libucrt:lcidtoname_downlevel.obj
 0002:00005230       ??_C@_1M@LLCCOAGA@?$AAa?$AAr?$AA?9?$AAB?$AAH?$AA?$AA@ 0000000180023230     libucrt:lcidtoname_downlevel.obj
 0002:00005240       ??_C@_1M@PBFNCDEL@?$AAe?$AAs?$AA?9?$AAP?$AAY?$AA?$AA@ 0000000180023240     libucrt:lcidtoname_downlevel.obj
 0002:00005250       ??_C@_1M@EDGINPNP@?$AAa?$AAr?$AA?9?$AAQ?$AAA?$AA?$AA@ 0000000180023250     libucrt:lcidtoname_downlevel.obj
 0002:00005260       ??_C@_1M@MKDBIIJI@?$AAe?$AAs?$AA?9?$AAB?$AAO?$AA?$AA@ 0000000180023260     libucrt:lcidtoname_downlevel.obj
 0002:00005270       ??_C@_1M@CPKKEBLD@?$AAe?$AAs?$AA?9?$AAS?$AAV?$AA?$AA@ 0000000180023270     libucrt:lcidtoname_downlevel.obj
 0002:00005280       ??_C@_1M@NDBGMMJL@?$AAe?$AAs?$AA?9?$AAH?$AAN?$AA?$AA@ 0000000180023280     libucrt:lcidtoname_downlevel.obj
 0002:00005290       ??_C@_1M@JIJIBHDP@?$AAe?$AAs?$AA?9?$AAN?$AAI?$AA?$AA@ 0000000180023290     libucrt:lcidtoname_downlevel.obj
 0002:000052a0       ??_C@_1M@CGFMKEEK@?$AAe?$AAs?$AA?9?$AAP?$AAR?$AA?$AA@ 00000001800232a0     libucrt:lcidtoname_downlevel.obj
 0002:000052b0       ??_C@_1O@ICJHKIIK@?$AAz?$AAh?$AA?9?$AAC?$AAH?$AAT?$AA?$AA@ 00000001800232b0     libucrt:lcidtoname_downlevel.obj
 0002:000052c0       ??_C@_15CLNEJCE@?$AAs?$AAr?$AA?$AA@ 00000001800232c0     libucrt:lcidtoname_downlevel.obj
 0002:00006110       ??_C@_1M@KAHEKEIG@?$AAa?$AAf?$AA?9?$AAz?$AAa?$AA?$AA@ 0000000180024110     libucrt:lcidtoname_downlevel.obj
 0002:00006120       ??_C@_1M@GIECOABL@?$AAa?$AAr?$AA?9?$AAa?$AAe?$AA?$AA@ 0000000180024120     libucrt:lcidtoname_downlevel.obj
 0002:00006130       ??_C@_1M@BMLMEKGI@?$AAa?$AAr?$AA?9?$AAb?$AAh?$AA?$AA@ 0000000180024130     libucrt:lcidtoname_downlevel.obj
 0002:00006140       ??_C@_1M@DAPFDGGB@?$AAa?$AAr?$AA?9?$AAd?$AAz?$AA?$AA@ 0000000180024140     libucrt:lcidtoname_downlevel.obj
 0002:00006150       ??_C@_1M@FJNKGKIG@?$AAa?$AAr?$AA?9?$AAe?$AAg?$AA?$AA@ 0000000180024150     libucrt:lcidtoname_downlevel.obj
 0002:00006160       ??_C@_1M@FLGKKCLO@?$AAa?$AAr?$AA?9?$AAi?$AAq?$AA?$AA@ 0000000180024160     libucrt:lcidtoname_downlevel.obj
 0002:00006170       ??_C@_1M@GNDIPALM@?$AAa?$AAr?$AA?9?$AAj?$AAo?$AA?$AA@ 0000000180024170     libucrt:lcidtoname_downlevel.obj
 0002:00006180       ??_C@_1M@DDMJFMGJ@?$AAa?$AAr?$AA?9?$AAk?$AAw?$AA?$AA@ 0000000180024180     libucrt:lcidtoname_downlevel.obj
 0002:00006190       ??_C@_1M@EJALMLHM@?$AAa?$AAr?$AA?9?$AAl?$AAb?$AA?$AA@ 0000000180024190     libucrt:lcidtoname_downlevel.obj
 0002:000061a0       ??_C@_1M@MOBDBLOC@?$AAa?$AAr?$AA?9?$AAl?$AAy?$AA?$AA@ 00000001800241a0     libucrt:lcidtoname_downlevel.obj
 0002:000061b0       ??_C@_1M@JAOCLHDH@?$AAa?$AAr?$AA?9?$AAm?$AAa?$AA?$AA@ 00000001800241b0     libucrt:lcidtoname_downlevel.obj
 0002:000061c0       ??_C@_1M@JHPMKJIE@?$AAa?$AAr?$AA?9?$AAo?$AAm?$AA?$AA@ 00000001800241c0     libucrt:lcidtoname_downlevel.obj
 0002:000061d0       ??_C@_1M@OEPGHFNH@?$AAa?$AAr?$AA?9?$AAq?$AAa?$AA?$AA@ 00000001800241d0     libucrt:lcidtoname_downlevel.obj
 0002:000061e0       ??_C@_1M@KJDONENM@?$AAa?$AAr?$AA?9?$AAs?$AAa?$AA?$AA@ 00000001800241e0     libucrt:lcidtoname_downlevel.obj
 0002:000061f0       ??_C@_1M@DMJDKLKM@?$AAa?$AAr?$AA?9?$AAs?$AAy?$AA?$AA@ 00000001800241f0     libucrt:lcidtoname_downlevel.obj
 0002:00006200       ??_C@_1M@OMFIPEDC@?$AAa?$AAr?$AA?9?$AAt?$AAn?$AA?$AA@ 0000000180024200     libucrt:lcidtoname_downlevel.obj
 0002:00006210       ??_C@_1M@IHMHGAON@?$AAa?$AAr?$AA?9?$AAy?$AAe?$AA?$AA@ 0000000180024210     libucrt:lcidtoname_downlevel.obj
 0002:00006220       ??_C@_1BG@KDCPGJGB@?$AAa?$AAz?$AA?9?$AAa?$AAz?$AA?9?$AAc?$AAy?$AAr?$AAl?$AA?$AA@ 0000000180024220     libucrt:lcidtoname_downlevel.obj
 0002:00006238       ??_C@_1BG@IBCKDDOE@?$AAa?$AAz?$AA?9?$AAa?$AAz?$AA?9?$AAl?$AAa?$AAt?$AAn?$AA?$AA@ 0000000180024238     libucrt:lcidtoname_downlevel.obj
 0002:00006250       ??_C@_1M@EGPFDCPD@?$AAb?$AAe?$AA?9?$AAb?$AAy?$AA?$AA@ 0000000180024250     libucrt:lcidtoname_downlevel.obj
 0002:00006260       ??_C@_1M@PCMGMCGC@?$AAb?$AAg?$AA?9?$AAb?$AAg?$AA?$AA@ 0000000180024260     libucrt:lcidtoname_downlevel.obj
 0002:00006270       ??_C@_1M@BJBMFGOB@?$AAb?$AAn?$AA?9?$AAi?$AAn?$AA?$AA@ 0000000180024270     libucrt:lcidtoname_downlevel.obj
 0002:00006280       ??_C@_1BG@EAKMMACD@?$AAb?$AAs?$AA?9?$AAb?$AAa?$AA?9?$AAl?$AAa?$AAt?$AAn?$AA?$AA@ 0000000180024280     libucrt:lcidtoname_downlevel.obj
 0002:00006298       ??_C@_1M@KGADAODK@?$AAc?$AAa?$AA?9?$AAe?$AAs?$AA?$AA@ 0000000180024298     libucrt:lcidtoname_downlevel.obj
 0002:000062a8       ??_C@_1M@COAJPDHI@?$AAc?$AAs?$AA?9?$AAc?$AAz?$AA?$AA@ 00000001800242a8     libucrt:lcidtoname_downlevel.obj
 0002:000062b8       ??_C@_1M@DHBHFONH@?$AAc?$AAy?$AA?9?$AAg?$AAb?$AA?$AA@ 00000001800242b8     libucrt:lcidtoname_downlevel.obj
 0002:000062c8       ??_C@_1M@IMGKELGA@?$AAd?$AAa?$AA?9?$AAd?$AAk?$AA?$AA@ 00000001800242c8     libucrt:lcidtoname_downlevel.obj
 0002:000062d8       ??_C@_1M@NNDGDNGA@?$AAd?$AAe?$AA?9?$AAa?$AAt?$AA?$AA@ 00000001800242d8     libucrt:lcidtoname_downlevel.obj
 0002:000062e8       ??_C@_1M@IKDBHEEM@?$AAd?$AAe?$AA?9?$AAc?$AAh?$AA?$AA@ 00000001800242e8     libucrt:lcidtoname_downlevel.obj
 0002:000062f8       ??_C@_1M@GFFOJMCJ@?$AAd?$AAe?$AA?9?$AAd?$AAe?$AA?$AA@ 00000001800242f8     libucrt:lcidtoname_downlevel.obj
 0002:00006308       ??_C@_1M@MDNLKBPM@?$AAd?$AAe?$AA?9?$AAl?$AAi?$AA?$AA@ 0000000180024308     libucrt:lcidtoname_downlevel.obj
 0002:00006318       ??_C@_1M@NJBEEJNL@?$AAd?$AAe?$AA?9?$AAl?$AAu?$AA?$AA@ 0000000180024318     libucrt:lcidtoname_downlevel.obj
 0002:00006328       ??_C@_1O@GNNELBAP@?$AAd?$AAi?$AAv?$AA?9?$AAm?$AAv?$AA?$AA@ 0000000180024328     libucrt:lcidtoname_downlevel.obj
 0002:00006338       ??_C@_1M@EJLEOGAE@?$AAe?$AAl?$AA?9?$AAg?$AAr?$AA?$AA@ 0000000180024338     libucrt:lcidtoname_downlevel.obj
 0002:00006348       ??_C@_1M@GMPONJN@?$AAe?$AAn?$AA?9?$AAa?$AAu?$AA?$AA@ 0000000180024348     libucrt:lcidtoname_downlevel.obj
 0002:00006358       ??_C@_1M@NIDIIPGF@?$AAe?$AAn?$AA?9?$AAb?$AAz?$AA?$AA@ 0000000180024358     libucrt:lcidtoname_downlevel.obj
 0002:00006368       ??_C@_1M@JEHMIMFO@?$AAe?$AAn?$AA?9?$AAc?$AAa?$AA?$AA@ 0000000180024368     libucrt:lcidtoname_downlevel.obj
 0002:00006378       ??_C@_1M@IGMJCDLA@?$AAe?$AAn?$AA?9?$AAc?$AAb?$AA?$AA@ 0000000180024378     libucrt:lcidtoname_downlevel.obj
 0002:00006388       ??_C@_1M@BNFIGBKG@?$AAe?$AAn?$AA?9?$AAg?$AAb?$AA?$AA@ 0000000180024388     libucrt:lcidtoname_downlevel.obj
 0002:00006398       ??_C@_1M@LKIFDIGP@?$AAe?$AAn?$AA?9?$AAi?$AAe?$AA?$AA@ 0000000180024398     libucrt:lcidtoname_downlevel.obj
 0002:000063a8       ??_C@_1M@PJKFGCCO@?$AAe?$AAn?$AA?9?$AAj?$AAm?$AA?$AA@ 00000001800243a8     libucrt:lcidtoname_downlevel.obj
 0002:000063b8       ??_C@_1M@KPPKEPBO@?$AAe?$AAn?$AA?9?$AAn?$AAz?$AA?$AA@ 00000001800243b8     libucrt:lcidtoname_downlevel.obj
 0002:000063c8       ??_C@_1M@GMDGLDOB@?$AAe?$AAn?$AA?9?$AAp?$AAh?$AA?$AA@ 00000001800243c8     libucrt:lcidtoname_downlevel.obj
 0002:000063d8       ??_C@_1M@ONGIBJNA@?$AAe?$AAn?$AA?9?$AAt?$AAt?$AA?$AA@ 00000001800243d8     libucrt:lcidtoname_downlevel.obj
 0002:000063e8       ??_C@_1M@LLODPCMM@?$AAe?$AAn?$AA?9?$AAu?$AAs?$AA?$AA@ 00000001800243e8     libucrt:lcidtoname_downlevel.obj
 0002:000063f8       ??_C@_1M@LAKFNPAN@?$AAe?$AAn?$AA?9?$AAz?$AAa?$AA?$AA@ 00000001800243f8     libucrt:lcidtoname_downlevel.obj
 0002:00006408       ??_C@_1M@MFNHNHEO@?$AAe?$AAn?$AA?9?$AAz?$AAw?$AA?$AA@ 0000000180024408     libucrt:lcidtoname_downlevel.obj
 0002:00006418       ??_C@_1M@EJEINPHM@?$AAe?$AAs?$AA?9?$AAa?$AAr?$AA?$AA@ 0000000180024418     libucrt:lcidtoname_downlevel.obj
 0002:00006428       ??_C@_1M@GNKPCCJA@?$AAe?$AAs?$AA?9?$AAb?$AAo?$AA?$AA@ 0000000180024428     libucrt:lcidtoname_downlevel.obj
 0002:00006438       ??_C@_1M@LEEGFONL@?$AAe?$AAs?$AA?9?$AAc?$AAl?$AA?$AA@ 0000000180024438     libucrt:lcidtoname_downlevel.obj
 0002:00006448       ??_C@_1M@KGPDPBDF@?$AAe?$AAs?$AA?9?$AAc?$AAo?$AA?$AA@ 0000000180024448     libucrt:lcidtoname_downlevel.obj
 0002:00006458       ??_C@_1M@EIAHOHH@?$AAe?$AAs?$AA?9?$AAc?$AAr?$AA?$AA@ 0000000180024458     libucrt:lcidtoname_downlevel.obj
 0002:00006468       ??_C@_1M@LLPGMBIN@?$AAe?$AAs?$AA?9?$AAd?$AAo?$AA?$AA@ 0000000180024468     libucrt:lcidtoname_downlevel.obj
 0002:00006478       ??_C@_1M@DKHMKNJA@?$AAe?$AAs?$AA?9?$AAe?$AAc?$AA?$AA@ 0000000180024478     libucrt:lcidtoname_downlevel.obj
 0002:00006488       ??_C@_1M@GKGFPKAP@?$AAe?$AAs?$AA?9?$AAe?$AAs?$AA?$AA@ 0000000180024488     libucrt:lcidtoname_downlevel.obj
 0002:00006498       ??_C@_1M@LKHKGDLN@?$AAe?$AAs?$AA?9?$AAg?$AAt?$AA?$AA@ 0000000180024498     libucrt:lcidtoname_downlevel.obj
 0002:000064a8       ??_C@_1M@HEIIGGJD@?$AAe?$AAs?$AA?9?$AAh?$AAn?$AA?$AA@ 00000001800244a8     libucrt:lcidtoname_downlevel.obj
 0002:000064b8       ??_C@_1M@FBDHPPGD@?$AAe?$AAs?$AA?9?$AAm?$AAx?$AA?$AA@ 00000001800244b8     libucrt:lcidtoname_downlevel.obj
 0002:000064c8       ??_C@_1M@DPAGLNDH@?$AAe?$AAs?$AA?9?$AAn?$AAi?$AA?$AA@ 00000001800244c8     libucrt:lcidtoname_downlevel.obj
 0002:000064d8       ??_C@_1M@MDGOPGDD@?$AAe?$AAs?$AA?9?$AAp?$AAa?$AA?$AA@ 00000001800244d8     libucrt:lcidtoname_downlevel.obj
 0002:000064e8       ??_C@_1M@EMAMGBGE@?$AAe?$AAs?$AA?9?$AAp?$AAe?$AA?$AA@ 00000001800244e8     libucrt:lcidtoname_downlevel.obj
 0002:000064f8       ??_C@_1M@IBMCAOEC@?$AAe?$AAs?$AA?9?$AAp?$AAr?$AA?$AA@ 00000001800244f8     libucrt:lcidtoname_downlevel.obj
 0002:00006508       ??_C@_1M@FGMDIJED@?$AAe?$AAs?$AA?9?$AAp?$AAy?$AA?$AA@ 0000000180024508     libucrt:lcidtoname_downlevel.obj
 0002:00006518       ??_C@_1M@IIDEOLLL@?$AAe?$AAs?$AA?9?$AAs?$AAv?$AA?$AA@ 0000000180024518     libucrt:lcidtoname_downlevel.obj
 0002:00006528       ??_C@_1M@GAOBIPA@?$AAe?$AAs?$AA?9?$AAu?$AAy?$AA?$AA@ 0000000180024528     libucrt:lcidtoname_downlevel.obj
 0002:00006538       ??_C@_1M@JKFFICHJ@?$AAe?$AAs?$AA?9?$AAv?$AAe?$AA?$AA@ 0000000180024538     libucrt:lcidtoname_downlevel.obj
 0002:00006548       ??_C@_1M@PNMLOJDF@?$AAe?$AAt?$AA?9?$AAe?$AAe?$AA?$AA@ 0000000180024548     libucrt:lcidtoname_downlevel.obj
 0002:00006558       ??_C@_1M@GHHLIKEI@?$AAe?$AAu?$AA?9?$AAe?$AAs?$AA?$AA@ 0000000180024558     libucrt:lcidtoname_downlevel.obj
 0002:00006568       ??_C@_1M@PBNONODE@?$AAf?$AAa?$AA?9?$AAi?$AAr?$AA?$AA@ 0000000180024568     libucrt:lcidtoname_downlevel.obj
 0002:00006578       ??_C@_1M@JEEHPMIL@?$AAf?$AAi?$AA?9?$AAf?$AAi?$AA?$AA@ 0000000180024578     libucrt:lcidtoname_downlevel.obj
 0002:00006588       ??_C@_1M@LMDCNDBA@?$AAf?$AAo?$AA?9?$AAf?$AAo?$AA?$AA@ 0000000180024588     libucrt:lcidtoname_downlevel.obj
 0002:00006598       ??_C@_1M@JKEOHLDK@?$AAf?$AAr?$AA?9?$AAb?$AAe?$AA?$AA@ 0000000180024598     libucrt:lcidtoname_downlevel.obj
 0002:000065a8       ??_C@_1M@NOHADPMI@?$AAf?$AAr?$AA?9?$AAc?$AAa?$AA?$AA@ 00000001800245a8     libucrt:lcidtoname_downlevel.obj
 0002:000065b8       ??_C@_1M@KDHIHAEC@?$AAf?$AAr?$AA?9?$AAc?$AAh?$AA?$AA@ 00000001800245b8     libucrt:lcidtoname_downlevel.obj
 0002:000065c8       ??_C@_1M@MMBBFGAK@?$AAf?$AAr?$AA?9?$AAf?$AAr?$AA?$AA@ 00000001800245c8     libucrt:lcidtoname_downlevel.obj
 0002:000065d8       ??_C@_1M@PAFNENNF@?$AAf?$AAr?$AA?9?$AAl?$AAu?$AA?$AA@ 00000001800245d8     libucrt:lcidtoname_downlevel.obj
 0002:000065e8       ??_C@_1M@EOHDJGDD@?$AAf?$AAr?$AA?9?$AAm?$AAc?$AA?$AA@ 00000001800245e8     libucrt:lcidtoname_downlevel.obj
 0002:000065f8       ??_C@_1M@FAPLLOPF@?$AAg?$AAl?$AA?9?$AAe?$AAs?$AA?$AA@ 00000001800245f8     libucrt:lcidtoname_downlevel.obj
 0002:00006608       ??_C@_1M@FOPBFLOO@?$AAg?$AAu?$AA?9?$AAi?$AAn?$AA?$AA@ 0000000180024608     libucrt:lcidtoname_downlevel.obj
 0002:00006618       ??_C@_1M@KBMCINPM@?$AAh?$AAe?$AA?9?$AAi?$AAl?$AA?$AA@ 0000000180024618     libucrt:lcidtoname_downlevel.obj
 0002:00006628       ??_C@_1M@BBPHKFPJ@?$AAh?$AAi?$AA?9?$AAi?$AAn?$AA?$AA@ 0000000180024628     libucrt:lcidtoname_downlevel.obj
 0002:00006638       ??_C@_1M@PMBNDPHD@?$AAh?$AAr?$AA?9?$AAb?$AAa?$AA?$AA@ 0000000180024638     libucrt:lcidtoname_downlevel.obj
 0002:00006648       ??_C@_1M@BPCKOEGE@?$AAh?$AAr?$AA?9?$AAh?$AAr?$AA?$AA@ 0000000180024648     libucrt:lcidtoname_downlevel.obj
 0002:00006658       ??_C@_1M@GACBMHKE@?$AAh?$AAu?$AA?9?$AAh?$AAu?$AA?$AA@ 0000000180024658     libucrt:lcidtoname_downlevel.obj
 0002:00006668       ??_C@_1M@MILPAJJC@?$AAh?$AAy?$AA?9?$AAa?$AAm?$AA?$AA@ 0000000180024668     libucrt:lcidtoname_downlevel.obj
 0002:00006678       ??_C@_1M@BABBICEC@?$AAi?$AAd?$AA?9?$AAi?$AAd?$AA?$AA@ 0000000180024678     libucrt:lcidtoname_downlevel.obj
 0002:00006688       ??_C@_1M@BIKNHHPF@?$AAi?$AAs?$AA?9?$AAi?$AAs?$AA?$AA@ 0000000180024688     libucrt:lcidtoname_downlevel.obj
 0002:00006698       ??_C@_1M@NMPCJPHE@?$AAi?$AAt?$AA?9?$AAc?$AAh?$AA?$AA@ 0000000180024698     libucrt:lcidtoname_downlevel.obj
 0002:000066a8       ??_C@_1M@GHKGFEDF@?$AAi?$AAt?$AA?9?$AAi?$AAt?$AA?$AA@ 00000001800246a8     libucrt:lcidtoname_downlevel.obj
 0002:000066b8       ??_C@_1M@NIEJCJJA@?$AAj?$AAa?$AA?9?$AAj?$AAp?$AA?$AA@ 00000001800246b8     libucrt:lcidtoname_downlevel.obj
 0002:000066c8       ??_C@_1M@JILFNBIM@?$AAk?$AAa?$AA?9?$AAg?$AAe?$AA?$AA@ 00000001800246c8     libucrt:lcidtoname_downlevel.obj
 0002:000066d8       ??_C@_1M@PACPMGPH@?$AAk?$AAk?$AA?9?$AAk?$AAz?$AA?$AA@ 00000001800246d8     libucrt:lcidtoname_downlevel.obj
 0002:000066e8       ??_C@_1M@IELFGMHA@?$AAk?$AAn?$AA?9?$AAi?$AAn?$AA?$AA@ 00000001800246e8     libucrt:lcidtoname_downlevel.obj
 0002:000066f8       ??_C@_1O@IBBJHCH@?$AAk?$AAo?$AAk?$AA?9?$AAi?$AAn?$AA?$AA@ 00000001800246f8     libucrt:lcidtoname_downlevel.obj
 0002:00006708       ??_C@_1M@DMHAEOGC@?$AAk?$AAo?$AA?9?$AAk?$AAr?$AA?$AA@ 0000000180024708     libucrt:lcidtoname_downlevel.obj
 0002:00006718       ??_C@_1M@HBAHBIGA@?$AAk?$AAy?$AA?9?$AAk?$AAg?$AA?$AA@ 0000000180024718     libucrt:lcidtoname_downlevel.obj
 0002:00006728       ??_C@_1M@KPMILCJG@?$AAl?$AAt?$AA?9?$AAl?$AAt?$AA?$AA@ 0000000180024728     libucrt:lcidtoname_downlevel.obj
 0002:00006738       ??_C@_1M@BDEKKCA@?$AAl?$AAv?$AA?9?$AAl?$AAv?$AA?$AA@ 0000000180024738     libucrt:lcidtoname_downlevel.obj
 0002:00006748       ??_C@_1M@ELCKCCJJ@?$AAm?$AAi?$AA?9?$AAn?$AAz?$AA?$AA@ 0000000180024748     libucrt:lcidtoname_downlevel.obj
 0002:00006758       ??_C@_1M@CBOOLAPA@?$AAm?$AAk?$AA?9?$AAm?$AAk?$AA?$AA@ 0000000180024758     libucrt:lcidtoname_downlevel.obj
 0002:00006768       ??_C@_1M@GPHNBJKN@?$AAm?$AAl?$AA?9?$AAi?$AAn?$AA?$AA@ 0000000180024768     libucrt:lcidtoname_downlevel.obj
 0002:00006778       ??_C@_1M@PABJILIG@?$AAm?$AAn?$AA?9?$AAm?$AAn?$AA?$AA@ 0000000180024778     libucrt:lcidtoname_downlevel.obj
 0002:00006788       ??_C@_1M@FGBKKIPG@?$AAm?$AAr?$AA?9?$AAi?$AAn?$AA?$AA@ 0000000180024788     libucrt:lcidtoname_downlevel.obj
 0002:00006798       ??_C@_1M@NDBPDDAL@?$AAm?$AAs?$AA?9?$AAb?$AAn?$AA?$AA@ 0000000180024798     libucrt:lcidtoname_downlevel.obj
 0002:000067a8       ??_C@_1M@OPIHOOPI@?$AAm?$AAs?$AA?9?$AAm?$AAy?$AA?$AA@ 00000001800247a8     libucrt:lcidtoname_downlevel.obj
 0002:000067b8       ??_C@_1M@PPDBCNFM@?$AAm?$AAt?$AA?9?$AAm?$AAt?$AA?$AA@ 00000001800247b8     libucrt:lcidtoname_downlevel.obj
 0002:000067c8       ??_C@_1M@KDJDKMDD@?$AAn?$AAb?$AA?9?$AAn?$AAo?$AA?$AA@ 00000001800247c8     libucrt:lcidtoname_downlevel.obj
 0002:000067d8       ??_C@_1M@KFCFLMJP@?$AAn?$AAl?$AA?9?$AAb?$AAe?$AA?$AA@ 00000001800247d8     libucrt:lcidtoname_downlevel.obj
 0002:000067e8       ??_C@_1M@KPOPDDGO@?$AAn?$AAl?$AA?9?$AAn?$AAl?$AA?$AA@ 00000001800247e8     libucrt:lcidtoname_downlevel.obj
 0002:000067f8       ??_C@_1M@LJKPEMLN@?$AAn?$AAn?$AA?9?$AAn?$AAo?$AA?$AA@ 00000001800247f8     libucrt:lcidtoname_downlevel.obj
 0002:00006808       ??_C@_1M@BDGHHBFL@?$AAn?$AAs?$AA?9?$AAz?$AAa?$AA?$AA@ 0000000180024808     libucrt:lcidtoname_downlevel.obj
 0002:00006818       ??_C@_1M@IDEHOAP@?$AAp?$AAa?$AA?9?$AAi?$AAn?$AA?$AA@ 0000000180024818     libucrt:lcidtoname_downlevel.obj
 0002:00006828       ??_C@_1M@HDBKGOGH@?$AAp?$AAl?$AA?9?$AAp?$AAl?$AA?$AA@ 0000000180024828     libucrt:lcidtoname_downlevel.obj
 0002:00006838       ??_C@_1M@LJLLCMEH@?$AAp?$AAt?$AA?9?$AAb?$AAr?$AA?$AA@ 0000000180024838     libucrt:lcidtoname_downlevel.obj
 0002:00006848       ??_C@_1M@NCMONAAL@?$AAp?$AAt?$AA?9?$AAp?$AAt?$AA?$AA@ 0000000180024848     libucrt:lcidtoname_downlevel.obj
 0002:00006858       ??_C@_1O@EAKMAJDN@?$AAq?$AAu?$AAz?$AA?9?$AAb?$AAo?$AA?$AA@ 0000000180024858     libucrt:lcidtoname_downlevel.obj
 0002:00006868       ??_C@_1O@BHHPIGDN@?$AAq?$AAu?$AAz?$AA?9?$AAe?$AAc?$AA?$AA@ 0000000180024868     libucrt:lcidtoname_downlevel.obj
 0002:00006878       ??_C@_1O@GBAPEKMJ@?$AAq?$AAu?$AAz?$AA?9?$AAp?$AAe?$AA?$AA@ 0000000180024878     libucrt:lcidtoname_downlevel.obj
 0002:00006888       ??_C@_1M@CLGLEFBO@?$AAr?$AAo?$AA?9?$AAr?$AAo?$AA?$AA@ 0000000180024888     libucrt:lcidtoname_downlevel.obj
 0002:00006898       ??_C@_1M@CEEDODME@?$AAr?$AAu?$AA?9?$AAr?$AAu?$AA?$AA@ 0000000180024898     libucrt:lcidtoname_downlevel.obj
 0002:000068a8       ??_C@_1M@HPKKKMPP@?$AAs?$AAa?$AA?9?$AAi?$AAn?$AA?$AA@ 00000001800248a8     libucrt:lcidtoname_downlevel.obj
 0002:000068b8       ??_C@_1M@BKMAIGOJ@?$AAs?$AAe?$AA?9?$AAf?$AAi?$AA?$AA@ 00000001800248b8     libucrt:lcidtoname_downlevel.obj
 0002:000068c8       ??_C@_1M@NDPIFLFI@?$AAs?$AAe?$AA?9?$AAn?$AAo?$AA?$AA@ 00000001800248c8     libucrt:lcidtoname_downlevel.obj
 0002:000068d8       ??_C@_1M@DANKKHJ@?$AAs?$AAe?$AA?9?$AAs?$AAe?$AA?$AA@ 00000001800248d8     libucrt:lcidtoname_downlevel.obj
 0002:000068e8       ??_C@_1M@PNBLONPJ@?$AAs?$AAk?$AA?9?$AAs?$AAk?$AA?$AA@ 00000001800248e8     libucrt:lcidtoname_downlevel.obj
 0002:000068f8       ??_C@_1M@LFMODOAL@?$AAs?$AAl?$AA?9?$AAs?$AAi?$AA?$AA@ 00000001800248f8     libucrt:lcidtoname_downlevel.obj
 0002:00006908       ??_C@_1O@DFKOMPG@?$AAs?$AAm?$AAa?$AA?9?$AAn?$AAo?$AA?$AA@ 0000000180024908     libucrt:lcidtoname_downlevel.obj
 0002:00006918       ??_C@_1O@NDKPBNNH@?$AAs?$AAm?$AAa?$AA?9?$AAs?$AAe?$AA?$AA@ 0000000180024918     libucrt:lcidtoname_downlevel.obj
 0002:00006928       ??_C@_1O@PLLKBHAB@?$AAs?$AAm?$AAj?$AA?9?$AAn?$AAo?$AA?$AA@ 0000000180024928     libucrt:lcidtoname_downlevel.obj
 0002:00006938       ??_C@_1O@CLEPOGCA@?$AAs?$AAm?$AAj?$AA?9?$AAs?$AAe?$AA?$AA@ 0000000180024938     libucrt:lcidtoname_downlevel.obj
 0002:00006948       ??_C@_1O@DLGJGKMK@?$AAs?$AAm?$AAn?$AA?9?$AAf?$AAi?$AA?$AA@ 0000000180024948     libucrt:lcidtoname_downlevel.obj
 0002:00006958       ??_C@_1O@OJDJGAJC@?$AAs?$AAm?$AAs?$AA?9?$AAf?$AAi?$AA?$AA@ 0000000180024958     libucrt:lcidtoname_downlevel.obj
 0002:00006968       ??_C@_1M@BOFOGHPB@?$AAs?$AAq?$AA?9?$AAa?$AAl?$AA?$AA@ 0000000180024968     libucrt:lcidtoname_downlevel.obj
 0002:00006978       ??_C@_1BG@LJBBIPGB@?$AAs?$AAr?$AA?9?$AAb?$AAa?$AA?9?$AAc?$AAy?$AAr?$AAl?$AA?$AA@ 0000000180024978     libucrt:lcidtoname_downlevel.obj
 0002:00006990       ??_C@_1BG@JLBENFOE@?$AAs?$AAr?$AA?9?$AAb?$AAa?$AA?9?$AAl?$AAa?$AAt?$AAn?$AA?$AA@ 0000000180024990     libucrt:lcidtoname_downlevel.obj
 0002:000069a8       ??_C@_1BG@KODPNHE@?$AAs?$AAr?$AA?9?$AAs?$AAp?$AA?9?$AAc?$AAy?$AAr?$AAl?$AA?$AA@ 00000001800249a8     libucrt:lcidtoname_downlevel.obj
 0002:000069c0       ??_C@_1BG@CIOGKHPB@?$AAs?$AAr?$AA?9?$AAs?$AAp?$AA?9?$AAl?$AAa?$AAt?$AAn?$AA?$AA@ 00000001800249c0     libucrt:lcidtoname_downlevel.obj
 0002:000069d8       ??_C@_1M@NGFJLMAC@?$AAs?$AAv?$AA?9?$AAf?$AAi?$AA?$AA@ 00000001800249d8     libucrt:lcidtoname_downlevel.obj
 0002:000069e8       ??_C@_1M@MPJEJAJC@?$AAs?$AAv?$AA?9?$AAs?$AAe?$AA?$AA@ 00000001800249e8     libucrt:lcidtoname_downlevel.obj
 0002:000069f8       ??_C@_1M@MPNDHLFK@?$AAs?$AAw?$AA?9?$AAk?$AAe?$AA?$AA@ 00000001800249f8     libucrt:lcidtoname_downlevel.obj
 0002:00006a08       ??_C@_1O@KOHBJJI@?$AAs?$AAy?$AAr?$AA?9?$AAs?$AAy?$AA?$AA@ 0000000180024a08     libucrt:lcidtoname_downlevel.obj
 0002:00006a18       ??_C@_1M@LDCEFHA@?$AAt?$AAa?$AA?9?$AAi?$AAn?$AA?$AA@ 0000000180024a18     libucrt:lcidtoname_downlevel.obj
 0002:00006a28       ??_C@_1M@CNJOFAK@?$AAt?$AAe?$AA?9?$AAi?$AAn?$AA?$AA@ 0000000180024a28     libucrt:lcidtoname_downlevel.obj
 0002:00006a38       ??_C@_1M@GNAECACD@?$AAt?$AAh?$AA?9?$AAt?$AAh?$AA?$AA@ 0000000180024a38     libucrt:lcidtoname_downlevel.obj
 0002:00006a48       ??_C@_1M@CHBIHOJO@?$AAt?$AAn?$AA?9?$AAz?$AAa?$AA?$AA@ 0000000180024a48     libucrt:lcidtoname_downlevel.obj
 0002:00006a58       ??_C@_1M@GCCMIGPJ@?$AAt?$AAr?$AA?9?$AAt?$AAr?$AA?$AA@ 0000000180024a58     libucrt:lcidtoname_downlevel.obj
 0002:00006a68       ??_C@_1M@CELMCNBK@?$AAt?$AAt?$AA?9?$AAr?$AAu?$AA?$AA@ 0000000180024a68     libucrt:lcidtoname_downlevel.obj
 0002:00006a78       ??_C@_1M@KLMCELGA@?$AAu?$AAk?$AA?9?$AAu?$AAa?$AA?$AA@ 0000000180024a78     libucrt:lcidtoname_downlevel.obj
 0002:00006a88       ??_C@_1M@EPAJJAJF@?$AAu?$AAr?$AA?9?$AAp?$AAk?$AA?$AA@ 0000000180024a88     libucrt:lcidtoname_downlevel.obj
 0002:00006a98       ??_C@_1BG@GEGPMCDJ@?$AAu?$AAz?$AA?9?$AAu?$AAz?$AA?9?$AAc?$AAy?$AAr?$AAl?$AA?$AA@ 0000000180024a98     libucrt:lcidtoname_downlevel.obj
 0002:00006ab0       ??_C@_1BG@EGGKJILM@?$AAu?$AAz?$AA?9?$AAu?$AAz?$AA?9?$AAl?$AAa?$AAt?$AAn?$AA?$AA@ 0000000180024ab0     libucrt:lcidtoname_downlevel.obj
 0002:00006ac8       ??_C@_1M@GFOCLFF@?$AAv?$AAi?$AA?9?$AAv?$AAn?$AA?$AA@ 0000000180024ac8     libucrt:lcidtoname_downlevel.obj
 0002:00006ad8       ??_C@_1M@CPAMEDFI@?$AAx?$AAh?$AA?9?$AAz?$AAa?$AA?$AA@ 0000000180024ad8     libucrt:lcidtoname_downlevel.obj
 0002:00006ae8       ??_C@_1O@EBKIFIGN@?$AAz?$AAh?$AA?9?$AAc?$AAh?$AAs?$AA?$AA@ 0000000180024ae8     libucrt:lcidtoname_downlevel.obj
 0002:00006af8       ??_C@_1O@NMHPGANE@?$AAz?$AAh?$AA?9?$AAc?$AAh?$AAt?$AA?$AA@ 0000000180024af8     libucrt:lcidtoname_downlevel.obj
 0002:00006b08       ??_C@_1M@LPINJOMC@?$AAz?$AAh?$AA?9?$AAc?$AAn?$AA?$AA@ 0000000180024b08     libucrt:lcidtoname_downlevel.obj
 0002:00006b18       ??_C@_1M@OCJEJODD@?$AAz?$AAh?$AA?9?$AAh?$AAk?$AA?$AA@ 0000000180024b18     libucrt:lcidtoname_downlevel.obj
 0002:00006b28       ??_C@_1M@DNDLJINH@?$AAz?$AAh?$AA?9?$AAm?$AAo?$AA?$AA@ 0000000180024b28     libucrt:lcidtoname_downlevel.obj
 0002:00006b38       ??_C@_1M@MBFDNDND@?$AAz?$AAh?$AA?9?$AAs?$AAg?$AA?$AA@ 0000000180024b38     libucrt:lcidtoname_downlevel.obj
 0002:00006b48       ??_C@_1M@IMEPLEPE@?$AAz?$AAh?$AA?9?$AAt?$AAw?$AA?$AA@ 0000000180024b48     libucrt:lcidtoname_downlevel.obj
 0002:00006b58       ??_C@_1M@BBGHNHJP@?$AAz?$AAu?$AA?9?$AAz?$AAa?$AA?$AA@ 0000000180024b58     libucrt:lcidtoname_downlevel.obj
 0002:00006b68       __real@3ff0000000000000    0000000180024b68     libucrt:ceil.obj
 0002:00006de8       ??_C@_1BA@BALFACEM@?$AAC?$AAO?$AAN?$AAO?$AAU?$AAT?$AA$?$AA?$AA@ 0000000180024de8     libucrt:initcon.obj
 0002:00006e00       __log10_256_lead           0000000180024e00     libucrt:log10_256_lead_tail_table.obj
 0002:00007610       __log10_256_tail           0000000180025610     libucrt:log10_256_lead_tail_table.obj
 0002:00007e20       __log_F_inv_qword          0000000180025e20     libucrt:log_f_inv_qword_table.obj
 0002:00008630       ??_C@_05HGHHAHAP@log10?$AA@ 0000000180026630     libucrt:log_special.obj
 0002:00008650       ??_C@_1IC@NJIINFEL@?$AAg?$AA?3?$AA?2?$AAg?$AAi?$AAt?$AAh?$AAu?$AAb?$AA?2?$AAe?$AAl?$AAe?$AAc?$AAt?$AAr?$AAo?$AAn?$AAq?$AAq?$AAl?$AAo?$AAg?$AAi?$AAn?$AA?2?$AAe?$AAl?$AAe?$AAc?$AAt?$AAr@ 0000000180026650     ffi.obj
 0002:000086e0       ??_C@_1GA@PFOOBIAG@?$AAl?$AAe?$AAn?$AAg?$AAt?$AAh?$AA?5?$AA?$DM?$AA?$DN?$AA?5?$AAi?$AAm?$AAp?$AA?3?$AA?3?$AAk?$AAM?$AAa?$AAx?$AAL?$AAe?$AAn?$AAg?$AAt?$AAh?$AA?5?$AA?$CG?$AA?$CG?$AA?5?$AA?$CC?$AAt?$AAo@ 00000001800266e0     ffi.obj
 0002:00008740       ??_C@_06KHGDIILE@dlopen?$AA@ 0000000180026740     ffi.obj
 0002:00008748       ??_C@_07HNLAOBEA@dlclose?$AA@ 0000000180026748     ffi.obj
 0002:00008750       ??_C@_05HDGDMABL@dlsym?$AA@ 0000000180026750     ffi.obj
 0002:00008758       ??_C@_07MGPFHKHO@dlerror?$AA@ 0000000180026758     ffi.obj
 0002:00008760       ??_C@_06NDPGNMM@_errno?$AA@ 0000000180026760     ffi.obj
 0002:00008768       ??_C@_0BA@BOIHMNDD@StaticFunctions?$AA@ 0000000180026768     ffi.obj
 0002:00008778       ??_C@_06MEIGBDJG@3?40?411?$AA@ 0000000180026778     ffi.obj
 0002:00008780       ??_C@_07CPCPJPKL@version?$AA@ 0000000180026780     ffi.obj
 0002:00008788       ??_C@_0N@NBHPAHKM@ffi_prep_cif?$AA@ 0000000180026788     ffi.obj
 0002:00008798       ??_C@_0BB@PLIKCKHK@ffi_prep_cif_var?$AA@ 0000000180026798     ffi.obj
 0002:000087b0       ??_C@_08BGHAICED@ffi_call?$AA@ 00000001800267b0     ffi.obj
 0002:000087c0       ??_C@_0P@IDJHAKII@ffi_call_async?$AA@ 00000001800267c0     ffi.obj
 0002:000087d0       ??_C@_06DCIPPAEM@FFI_OK?$AA@ 00000001800267d0     ffi.obj
 0002:000087d8       ??_C@_0BA@IJCDEOKH@FFI_BAD_TYPEDEF?$AA@ 00000001800267d8     ffi.obj
 0002:000087e8       ??_C@_0M@HMIOGDGG@FFI_BAD_ABI?$AA@ 00000001800267e8     ffi.obj
 0002:000087f8       ??_C@_0BA@ELLEFFKB@FFI_DEFAULT_ABI?$AA@ 00000001800267f8     ffi.obj
 0002:00008808       ??_C@_0O@HECBJFOB@FFI_FIRST_ABI?$AA@ 0000000180026808     ffi.obj
 0002:00008818       ??_C@_0N@EEFKFOLP@FFI_LAST_ABI?$AA@ 0000000180026818     ffi.obj
 0002:00008828       ??_C@_09GFHJJNNH@FFI_WIN64?$AA@ 0000000180026828     ffi.obj
 0002:00008838       ??_C@_09JHNCKAH@RTLD_LAZY?$AA@ 0000000180026838     ffi.obj
 0002:00008848       ??_C@_08MMOIFOJA@RTLD_NOW?$AA@ 0000000180026848     ffi.obj
 0002:00008858       ??_C@_0L@ECLFLMDM@RTLD_LOCAL?$AA@ 0000000180026858     ffi.obj
 0002:00008868       ??_C@_0M@CIOPDONK@RTLD_GLOBAL?$AA@ 0000000180026868     ffi.obj
 0002:00008878       ??_C@_09EKPFEEBD@RTLD_NEXT?$AA@ 0000000180026878     ffi.obj
 0002:00008888       ??_C@_0N@BMDKOFEE@RTLD_DEFAULT?$AA@ 0000000180026888     ffi.obj
 0002:00008898       ??_C@_0N@LDLPBE@FFI_ARG_SIZE?$AA@ 0000000180026898     ffi.obj
 0002:000088a8       ??_C@_0O@EJOMENGB@FFI_SARG_SIZE?$AA@ 00000001800268a8     ffi.obj
 0002:000088b8       ??_C@_0O@GJJCKACF@FFI_TYPE_SIZE?$AA@ 00000001800268b8     ffi.obj
 0002:000088c8       ??_C@_0N@KJODLBFL@FFI_CIF_SIZE?$AA@ 00000001800268c8     ffi.obj
 0002:000088d8       ??_C@_08DLIJIKML@HAS_OBJC?$AA@ 00000001800268d8     ffi.obj
 0002:000088e4       ??_C@_04GKJNKENE@void?$AA@ 00000001800268e4     ffi.obj
 0002:000088ec       ??_C@_05BOGOCLFF@uint8?$AA@ 00000001800268ec     ffi.obj
 0002:000088f4       ??_C@_04DCGBOBJJ@int8?$AA@ 00000001800268f4     ffi.obj
 0002:000088fc       ??_C@_06JNNCGBKK@uint16?$AA@ 00000001800268fc     ffi.obj
 0002:00008904       ??_C@_05PCMOAPL@int16?$AA@ 0000000180026904     ffi.obj
 0002:0000890c       ??_C@_06PKDKHAMA@uint32?$AA@ 000000018002690c     ffi.obj
 0002:00008914       ??_C@_05GIMEPBJB@int32?$AA@ 0000000180026914     ffi.obj
 0002:0000891c       ??_C@_06KKKLBFKN@uint64?$AA@ 000000018002691c     ffi.obj
 0002:00008924       ??_C@_05DIFFJEPM@int64?$AA@ 0000000180026924     ffi.obj
 0002:0000892c       ??_C@_05GBMOKKDM@uchar?$AA@ 000000018002692c     ffi.obj
 0002:00008934       ??_C@_04ENMBGAPA@char?$AA@ 0000000180026934     ffi.obj
 0002:0000893c       ??_C@_06IHFEHLHH@ushort?$AA@ 000000018002693c     ffi.obj
 0002:00008944       ??_C@_05BFKKPKCG@short?$AA@ 0000000180026944     ffi.obj
 0002:0000894c       ??_C@_04EHNLIFAM@uint?$AA@ 000000018002694c     ffi.obj
 0002:00008954       ??_C@_03JBIPMCLC@int?$AA@  0000000180026954     ffi.obj
 0002:00008958       ??_C@_05KNFBNCOH@float?$AA@ 0000000180026958     ffi.obj
 0002:00008960       ??_C@_06BNJCAIGJ@double?$AA@ 0000000180026960     ffi.obj
 0002:00008968       ??_C@_07PFMCDPMA@pointer?$AA@ 0000000180026968     ffi.obj
 0002:00008970       ??_C@_09CGIDHHPL@ulonglong?$AA@ 0000000180026970     ffi.obj
 0002:00008980       ??_C@_08DDGAEFPP@longlong?$AA@ 0000000180026980     ffi.obj
 0002:00008990       ??_C@_09EPMAHDDO@FFI_TYPES?$AA@ 0000000180026990     ffi.obj
 0002:000089a0       ??_C@_0CF@IOKPAGAF@ffi_prep_cif?$CI?$CJ?5requires?55?5argume@ 00000001800269a0     ffi.obj
 0002:000089c8       ??_C@_0CI@GLBDJBBI@prepCif?$CI?$CJ?3?5Buffer?5required?5as?5fi@ 00000001800269c8     ffi.obj
 0002:000089f0       ??_C@_0CL@JAEBPJKK@prepCifVar?$CI?$CJ?3?5Buffer?5required?5as@ 00000001800269f0     ffi.obj
 0002:00008a20       ??_C@_0CB@MGALBCIB@ffi_call?$CI?$CJ?5requires?54?5arguments?$CB@ 0000000180026a20     ffi.obj
 0002:00008a48       ??_C@_0CH@GNFHOGOK@ffi_call_async?$CI?$CJ?5requires?55?5argu@ 0000000180026a48     ffi.obj
 0002:00008a70       ??_C@_0EG@MCHABDAP@g?3?2github?2electronqqlogin?2electr@ 0000000180026a70     ffi.obj
 0002:00008ab8       ??_C@_0N@JPIAKLE@ffi_bindings?$AA@ 0000000180026ab8     ffi.obj
 0002:00008ac8       ??_C@_0DA@KGNPNPE@ffi?5fatal?3?5callback?5has?5been?5gar@ 0000000180026ac8     callback_info.obj
 0002:00008af8       ??_C@_0BG@FKAPLCHH@Not?5enough?5arguments?4?$AA@ 0000000180026af8     callback_info.obj
 0002:00008b10       ??_C@_0CD@PPEAHEKO@ffi_closure_alloc?$CI?$CJ?5Returned?5Err@ 0000000180026b10     callback_info.obj
 0002:00008b38       ??_C@_0CC@JEGCEPCG@ffi_prep_closure?$CI?$CJ?5Returned?5Erro@ 0000000180026b38     callback_info.obj
 0002:00008b60       ??_C@_08HNHIOOFI@Callback?$AA@ 0000000180026b60     callback_info.obj
 0002:00008b70       ??_C@_0BC@KBDMBKEH@deque?$DMT?$DO?5too?5long?$AA@ 0000000180026b70     callback_info.obj
 0002:00008b88       ??_C@_0BA@OIIBEHIA@Win32?5error?5?$CFlu?$AA@ 0000000180026b88     win32-dlfcn.obj
 0002:00008b98       ffi_type_sint16            0000000180026b98     libffi:types.obj
 0002:00008bb0       ffi_type_void              0000000180026bb0     libffi:types.obj
 0002:00008bc8       ffi_type_sint32            0000000180026bc8     libffi:types.obj
 0002:00008be0       ffi_type_uint16            0000000180026be0     libffi:types.obj
 0002:00008bf8       ffi_type_pointer           0000000180026bf8     libffi:types.obj
 0002:00008c10       ffi_type_uint64            0000000180026c10     libffi:types.obj
 0002:00008c28       ffi_type_uint8             0000000180026c28     libffi:types.obj
 0002:00008c40       ffi_type_sint8             0000000180026c40     libffi:types.obj
 0002:00008c58       ffi_type_sint64            0000000180026c58     libffi:types.obj
 0002:00008c70       ffi_type_uint32            0000000180026c70     libffi:types.obj
 0002:00008c88       ffi_type_float             0000000180026c88     libffi:types.obj
 0002:00008ca0       ffi_type_double            0000000180026ca0     libffi:types.obj
 0002:00008d20       _load_config_used          0000000180026d20     LIBCMT:loadcfg.obj
 0002:00008e20       ??_R4exception@std@@6B@    0000000180026e20     libcpmt:xthrow.obj
 0002:00008e48       ??_R3exception@std@@8      0000000180026e48     libcpmt:xthrow.obj
 0002:00008e60       ??_R2exception@std@@8      0000000180026e60     libcpmt:xthrow.obj
 0002:00008e70       ??_R1A@?0A@EA@exception@std@@8 0000000180026e70     libcpmt:xthrow.obj
 0002:00008e98       ??_R4bad_alloc@std@@6B@    0000000180026e98     libcpmt:xthrow.obj
 0002:00008ec0       ??_R3bad_alloc@std@@8      0000000180026ec0     libcpmt:xthrow.obj
 0002:00008ed8       ??_R2bad_alloc@std@@8      0000000180026ed8     libcpmt:xthrow.obj
 0002:00008ef0       ??_R1A@?0A@EA@bad_alloc@std@@8 0000000180026ef0     libcpmt:xthrow.obj
 0002:00008f18       ??_R4logic_error@std@@6B@  0000000180026f18     libcpmt:xthrow.obj
 0002:00008f40       ??_R3logic_error@std@@8    0000000180026f40     libcpmt:xthrow.obj
 0002:00008f58       ??_R2logic_error@std@@8    0000000180026f58     libcpmt:xthrow.obj
 0002:00008f70       ??_R1A@?0A@EA@logic_error@std@@8 0000000180026f70     libcpmt:xthrow.obj
 0002:00008f98       ??_R4length_error@std@@6B@ 0000000180026f98     libcpmt:xthrow.obj
 0002:00008fc0       ??_R3length_error@std@@8   0000000180026fc0     libcpmt:xthrow.obj
 0002:00008fd8       ??_R2length_error@std@@8   0000000180026fd8     libcpmt:xthrow.obj
 0002:00008ff8       ??_R1A@?0A@EA@length_error@std@@8 0000000180026ff8     libcpmt:xthrow.obj
 0002:00009020       ??_R4type_info@@6B@        0000000180027020     LIBCMT:std_type_info_static.obj
 0002:00009048       ??_R3type_info@@8          0000000180027048     LIBCMT:std_type_info_static.obj
 0002:00009060       ??_R2type_info@@8          0000000180027060     LIBCMT:std_type_info_static.obj
 0002:00009070       ??_R1A@?0A@EA@type_info@@8 0000000180027070     LIBCMT:std_type_info_static.obj
 0002:00009098       ??_R4bad_array_new_length@std@@6B@ 0000000180027098     LIBCMT:throw_bad_alloc.obj
 0002:000090c0       ??_R3bad_array_new_length@std@@8 00000001800270c0     LIBCMT:throw_bad_alloc.obj
 0002:000090d8       ??_R2bad_array_new_length@std@@8 00000001800270d8     LIBCMT:throw_bad_alloc.obj
 0002:000090f8       ??_R1A@?0A@EA@bad_array_new_length@std@@8 00000001800270f8     LIBCMT:throw_bad_alloc.obj
 0002:00009120       ??_R4bad_exception@std@@6B@ 0000000180027120     libvcruntime:frame.obj
 0002:00009148       ??_R3bad_exception@std@@8  0000000180027148     libvcruntime:frame.obj
 0002:00009160       ??_R2bad_exception@std@@8  0000000180027160     libvcruntime:frame.obj
 0002:00009178       ??_R1A@?0A@EA@bad_exception@std@@8 0000000180027178     libvcruntime:frame.obj
 0002:00009518       __rtc_iaa                  0000000180027518     LIBCMT:_initsect_.obj
 0002:00009520       __rtc_izz                  0000000180027520     LIBCMT:_initsect_.obj
 0002:00009528       __rtc_taa                  0000000180027528     LIBCMT:_initsect_.obj
 0002:00009530       __rtc_tzz                  0000000180027530     LIBCMT:_initsect_.obj
 0002:0000ac78       _TI2?AVbad_alloc@std@@     0000000180028c78     libcpmt:xthrow.obj
 0002:0000ac98       _CTA2?AVbad_alloc@std@@    0000000180028c98     libcpmt:xthrow.obj
 0002:0000acb0       _CT??_R0?AVbad_alloc@std@@@8??0bad_alloc@std@@QEAA@AEBV01@@Z24 0000000180028cb0     libcpmt:xthrow.obj
 0002:0000acd8       _CT??_R0?AVexception@std@@@8??0exception@std@@QEAA@AEBV01@@Z24 0000000180028cd8     libcpmt:xthrow.obj
 0002:0000ad00       _CT??_R0?AVlogic_error@std@@@8??0logic_error@std@@QEAA@AEBV01@@Z24 0000000180028d00     libcpmt:xthrow.obj
 0002:0000ad28       _TI3?AVlength_error@std@@  0000000180028d28     libcpmt:xthrow.obj
 0002:0000ad48       _CTA3?AVlength_error@std@@ 0000000180028d48     libcpmt:xthrow.obj
 0002:0000ad68       _CT??_R0?AVlength_error@std@@@8??0length_error@std@@QEAA@AEBV01@@Z24 0000000180028d68     libcpmt:xthrow.obj
 0002:0000ad90       _TI3?AVbad_array_new_length@std@@ 0000000180028d90     LIBCMT:throw_bad_alloc.obj
 0002:0000adb0       _CTA3?AVbad_array_new_length@std@@ 0000000180028db0     LIBCMT:throw_bad_alloc.obj
 0002:0000add0       _CT??_R0?AVbad_array_new_length@std@@@8??0bad_array_new_length@std@@QEAA@AEBV01@@Z24 0000000180028dd0     LIBCMT:throw_bad_alloc.obj
 0002:0000adf8       _TI2?AVbad_exception@std@@ 0000000180028df8     libvcruntime:frame.obj
 0002:0000ae18       _CTA2?AVbad_exception@std@@ 0000000180028e18     libvcruntime:frame.obj
 0002:0000ae30       _CT??_R0?AVbad_exception@std@@@8??0bad_exception@std@@QEAA@AEBV01@@Z24 0000000180028e30     libvcruntime:frame.obj
 0002:0000aebc       __IMPORT_DESCRIPTOR_KERNEL32 0000000180028ebc     kernel32:KERNEL32.dll
 0002:0000aed0       __IMPORT_DESCRIPTOR_node   0000000180028ed0     iojs:node.dll
 0002:0000aee4       __NULL_IMPORT_DESCRIPTOR   0000000180028ee4     kernel32:KERNEL32.dll
 0003:00000000       __scrt_native_dllmain_reason 000000018002b000     LIBCMT:utility.obj
 0003:00000010       __security_cookie          000000018002b010     LIBCMT:gs_cookie.obj
 0003:00000018       __security_cookie_complement 000000018002b018     LIBCMT:gs_cookie.obj
 0003:00000020       __isa_available            000000018002b020     LIBCMT:_cpu_disp_.obj
 0003:00000024       __isa_enabled              000000018002b024     LIBCMT:_cpu_disp_.obj
 0003:00000028       __memcpy_nt_iters          000000018002b028     LIBCMT:_cpu_disp_.obj
 0003:00000048       __abort_behavior           000000018002b048     libucrt:abort.obj
 0003:00000060       _iob                       000000018002b060     libucrt:_file.obj
 0003:00000170       __acrt_initial_locale_data 000000018002b170     libucrt:nlsdata.obj
 0003:000002c8       __acrt_initial_locale_pointers 000000018002b2c8     libucrt:nlsdata.obj
 0003:000002d8       __acrt_wide_c_locale_string 000000018002b2d8     libucrt:nlsdata.obj
 0003:000002e0       __badioinfo                000000018002b2e0     libucrt:ioinit.obj
 0003:00000420       __acrt_initial_multibyte_data 000000018002b420     libucrt:mbctype.obj
 0003:00000860       _pwctype                   000000018002b860     libucrt:ctype.obj
 0003:00000868       __globallocalestatus       000000018002b868     libucrt:glstatus.obj
 0003:00000870       __acrt_lconv_c             000000018002b870     libucrt:localeconv.obj
 0003:00000908       __acrt_lconv_static_decimal 000000018002b908     libucrt:localeconv.obj
 0003:0000090c       __acrt_lconv_static_W_decimal 000000018002b90c     libucrt:localeconv.obj
 0003:00000924       _fltused                   000000018002b924     LIBCMT:fltused.obj
 0003:00000970       ??_R0?AVbad_alloc@std@@@8  000000018002b970     libcpmt:xthrow.obj
 0003:00000998       ??_R0?AVexception@std@@@8  000000018002b998     libcpmt:xthrow.obj
 0003:000009c0       ??_R0?AVlogic_error@std@@@8 000000018002b9c0     libcpmt:xthrow.obj
 0003:000009e8       ??_R0?AVlength_error@std@@@8 000000018002b9e8     libcpmt:xthrow.obj
 0003:00000a10       ??_R0?AVtype_info@@@8      000000018002ba10     LIBCMT:std_type_info_static.obj
 0003:00000a30       ??_R0?AVbad_array_new_length@std@@@8 000000018002ba30     LIBCMT:throw_bad_alloc.obj
 0003:00000a60       ??_R0?AVbad_exception@std@@@8 000000018002ba60     libvcruntime:frame.obj
 0003:00000a90       __scrt_current_native_startup_state 000000018002ba90     LIBCMT:utility.obj
 0003:00000a98       __scrt_native_startup_lock 000000018002ba98     LIBCMT:utility.obj
 0003:00001050       __favor                    000000018002c050     LIBCMT:_cpu_disp_.obj
 0003:00001054       __scrt_debugger_hook_flag  000000018002c054     LIBCMT:utility_desktop.obj
 0003:00001060       ?__type_info_root_node@@3U__type_info_node@@A 000000018002c060     LIBCMT:tncleanup.obj
 0003:00001070       ?_OptionsStorage@?1??__local_stdio_scanf_options@@9@4_KA 000000018002c070     LIBCMT:default_local_stdio_options.obj
 0003:00001168       __pPurecall                000000018002c168     libvcruntime:purevirt_data.obj
 0003:00001170       ?m_pGetParameter@UnDecorator@@0P6APEADJ@ZEA 000000018002c170     libvcruntime:undname.obj
 0003:00001178       ?m_CHPENameOffset@UnDecorator@@0KA 000000018002c178     libvcruntime:undname.obj
 0003:0000117c       ?m_recursionLevel@UnDecorator@@0KA 000000018002c17c     libvcruntime:undname.obj
 0003:00001180       ?pArgList@UnDecorator@@0PEAVReplicator@@EA 000000018002c180     libvcruntime:undname.obj
 0003:00001188       ?pZNameList@UnDecorator@@0PEAVReplicator@@EA 000000018002c188     libvcruntime:undname.obj
 0003:00001190       ?pTemplateArgList@UnDecorator@@0PEAVReplicator@@EA 000000018002c190     libvcruntime:undname.obj
 0003:00001198       ?gName@UnDecorator@@0PEBDEB 000000018002c198     libvcruntime:undname.obj
 0003:000011a0       ?name@UnDecorator@@0PEBDEB 000000018002c1a0     libvcruntime:undname.obj
 0003:000011a8       ?disableFlags@UnDecorator@@0KA 000000018002c1a8     libvcruntime:undname.obj
 0003:000011ac       ?fExplicitTemplateParams@UnDecorator@@0_NA 000000018002c1ac     libvcruntime:undname.obj
 0003:000011ad       ?fGetTemplateArgumentList@UnDecorator@@0_NA 000000018002c1ad     libvcruntime:undname.obj
 0003:000011d8       ?__WinRTOutOfMemoryExceptionCallback@@3P6APEAXXZEA 000000018002c1d8     libvcruntime:ehhelpers.obj
 0003:00001200       ?c_exit_complete@?1???R<lambda_6e4b09c48022b2350581041d5f6b0c4c>@@QEBA@XZ@4_NA 000000018002c200     libucrt:exit.obj
 0003:00001318       _environ_table             000000018002c318     libucrt:environment_initialization.obj
 0003:00001320       _wenviron_table            000000018002c320     libucrt:environment_initialization.obj
 0003:00001328       __dcrt_initial_wide_environment 000000018002c328     libucrt:environment_initialization.obj
 0003:00001330       __dcrt_initial_narrow_environment 000000018002c330     libucrt:environment_initialization.obj
 0003:00001338       __acrt_atexit_table        000000018002c338     libucrt:onexit.obj
 0003:00001350       __acrt_at_quick_exit_table 000000018002c350     libucrt:onexit.obj
 0003:00001370       _nstream                   000000018002c370     libucrt:_file.obj
 0003:00001378       __piob                     000000018002c378     libucrt:_file.obj
 0003:00001380       _cflush                    000000018002c380     libucrt:_file.obj
 0003:000013b8       __acrt_stdout_buffer       000000018002c3b8     libucrt:_sftbuf.obj
 0003:000013c0       __acrt_stderr_buffer       000000018002c3c0     libucrt:_sftbuf.obj
 0003:000013c8       __acrt_locale_changed_data 000000018002c3c8     libucrt:wsetlocale.obj
 0003:000013d0       __acrt_current_locale_data 000000018002c3d0     libucrt:nlsdata.obj
 0003:000013e0       __pioinfo                  000000018002c3e0     libucrt:ioinit.obj
 0003:000017e0       _nhandle                   000000018002c7e0     libucrt:ioinit.obj
 0003:00001a30       __acrt_current_multibyte_data 000000018002ca30     libucrt:mbctype.obj
 0003:00001a38       _mbctype                   000000018002ca38     libucrt:mbctype.obj
 0003:00001a40       _mbcasemap                 000000018002ca40     libucrt:mbctype.obj
 0003:00001a50       __argc                     000000018002ca50     libucrt:argv_data.obj
 0003:00001a58       __argv                     000000018002ca58     libucrt:argv_data.obj
 0003:00001a60       __wargv                    000000018002ca60     libucrt:argv_data.obj
 0003:00001a68       _acmdln                    000000018002ca68     libucrt:argv_data.obj
 0003:00001a70       _wcmdln                    000000018002ca70     libucrt:argv_data.obj
 0003:00001a78       _pgmptr                    000000018002ca78     libucrt:argv_data.obj
 0003:00001c30       __acrt_heap                000000018002cc30     libucrt:heap_handle.obj
 0003:00001c44       __acrt_lconv_static_null   000000018002cc44     libucrt:localeconv.obj
 0003:00001c48       __acrt_lconv_static_W_null 000000018002cc48     libucrt:localeconv.obj
 0003:00001c58       __fma3_is_available        000000018002cc58     libucrt:fma3_available.obj
 0003:00001c5c       __use_fma3_lib             000000018002cc5c     libucrt:fma3_available.obj
 0003:00001c70       ?g_threadID@CallbackInfo@@0KA 000000018002cc70     callback_info.obj
 0003:00001c78       ?g_queue_mutex@CallbackInfo@@0U_RTL_CRITICAL_SECTION@@A 000000018002cc78     callback_info.obj
 0003:00001ca0       ?g_async@CallbackInfo@@0Uuv_async_s@@A 000000018002cca0     callback_info.obj
 0003:00001d80       ?g_queue@CallbackInfo@@0V?$queue@PEAVThreadedCallbackInvokation@@V?$deque@PEAVThreadedCallbackInvokation@@V?$allocator@PEAVThreadedCallbackInvokation@@@std@@@std@@@std@@A 000000018002cd80     callback_info.obj
 0003:00002168       ?_OptionsStorage@?1??__local_stdio_printf_options@@9@4_KA 000000018002d168     win32-dlfcn.obj
 0003:000021b0       __dyn_tls_init_callback    000000018002d1b0     <common>
 0003:000021b8       __scrt_ucrt_dll_is_in_use  000000018002d1b8     <common>

 entry point at        0001:00006ef0

 Static symbols

 0000:fffce000       .debug$S                   0000000180000000     kernel32:KERNEL32.dll
 0000:fffce000       .debug$S                   0000000180000000     kernel32:KERNEL32.dll
 0000:fffce000       .debug$S                   0000000180000000     kernel32:KERNEL32.dll
 0000:fffce000       .debug$S                   0000000180000000     kernel32:KERNEL32.dll
 0000:fffce000       .debug$S                   0000000180000000     kernel32:KERNEL32.dll
 0000:fffce000       .debug$S                   0000000180000000     kernel32:KERNEL32.dll
 0000:fffce000       .debug$S                   0000000180000000     kernel32:KERNEL32.dll
 0000:fffce000       .debug$S                   0000000180000000     kernel32:KERNEL32.dll
 0000:fffce000       .debug$S                   0000000180000000     kernel32:KERNEL32.dll
 0000:fffce000       .debug$S                   0000000180000000     kernel32:KERNEL32.dll
 0000:fffce000       .debug$S                   0000000180000000     kernel32:KERNEL32.dll
 0000:fffce000       .debug$S                   0000000180000000     kernel32:KERNEL32.dll
 0000:fffce000       .debug$S                   0000000180000000     kernel32:KERNEL32.dll
 0000:fffce000       .debug$S                   0000000180000000     kernel32:KERNEL32.dll
 0000:fffce000       .debug$S                   0000000180000000     kernel32:KERNEL32.dll
 0000:fffce000       .debug$S                   0000000180000000     kernel32:KERNEL32.dll
 0000:fffce000       .debug$S                   0000000180000000     iojs:node.dll
 0000:fffce000       .debug$S                   0000000180000000     kernel32:KERNEL32.dll
 0000:fffce000       .debug$S                   0000000180000000     iojs:node.dll
 0000:fffce000       .debug$S                   0000000180000000     kernel32:KERNEL32.dll
 0000:fffce000       .debug$S                   0000000180000000     iojs:node.dll
 0000:fffce000       .debug$S                   0000000180000000     kernel32:KERNEL32.dll
 0000:fffce000       .debug$S                   0000000180000000     iojs:node.dll
 0000:fffce000       .debug$S                   0000000180000000     kernel32:KERNEL32.dll
 0000:fffce000       .debug$S                   0000000180000000     iojs:node.dll
 0000:fffce000       .debug$S                   0000000180000000     kernel32:KERNEL32.dll
 0000:fffce000       .debug$S                   0000000180000000     iojs:node.dll
 0000:fffce000       .debug$S                   0000000180000000     kernel32:KERNEL32.dll
 0000:fffce000       .debug$S                   0000000180000000     iojs:node.dll
 0000:fffce000       .debug$S                   0000000180000000     kernel32:KERNEL32.dll
 0000:fffce000       .debug$S                   0000000180000000     iojs:node.dll
 0000:fffce000       .debug$S                   0000000180000000     kernel32:KERNEL32.dll
 0000:fffce000       .debug$S                   0000000180000000     iojs:node.dll
 0000:fffce000       .debug$S                   0000000180000000     kernel32:KERNEL32.dll
 0000:fffce000       .debug$S                   0000000180000000     iojs:node.dll
 0000:fffce000       .debug$S                   0000000180000000     kernel32:KERNEL32.dll
 0000:fffce000       .debug$S                   0000000180000000     iojs:node.dll
 0000:fffce000       .debug$S                   0000000180000000     kernel32:KERNEL32.dll
 0000:fffce000       .debug$S                   0000000180000000     kernel32:KERNEL32.dll
 0000:fffce000       .debug$S                   0000000180000000     kernel32:KERNEL32.dll
 0000:fffce000       .debug$S                   0000000180000000     kernel32:KERNEL32.dll
 0000:fffce000       .debug$S                   0000000180000000     kernel32:KERNEL32.dll
 0000:fffce000       .debug$S                   0000000180000000     kernel32:KERNEL32.dll
 0000:fffce000       .debug$S                   0000000180000000     kernel32:KERNEL32.dll
 0000:fffce000       .debug$S                   0000000180000000     kernel32:KERNEL32.dll
 0000:fffce000       .debug$S                   0000000180000000     kernel32:KERNEL32.dll
 0000:fffce000       .debug$S                   0000000180000000     kernel32:KERNEL32.dll
 0000:fffce000       .debug$S                   0000000180000000     kernel32:KERNEL32.dll
 0000:fffce000       .debug$S                   0000000180000000     kernel32:KERNEL32.dll
 0000:fffce000       .debug$S                   0000000180000000     kernel32:KERNEL32.dll
 0000:fffce000       .debug$S                   0000000180000000     iojs:node.dll
 0000:fffce000       .debug$S                   0000000180000000     kernel32:KERNEL32.dll
 0000:fffce000       .debug$S                   0000000180000000     iojs:node.dll
 0000:fffce000       .debug$S                   0000000180000000     kernel32:KERNEL32.dll
 0000:fffce000       .debug$S                   0000000180000000     iojs:node.dll
 0000:fffce000       .debug$S                   0000000180000000     kernel32:KERNEL32.dll
 0000:fffce000       .debug$S                   0000000180000000     iojs:node.dll
 0000:fffce000       .debug$S                   0000000180000000     kernel32:KERNEL32.dll
 0000:fffce000       .debug$S                   0000000180000000     iojs:node.dll
 0000:fffce000       .debug$S                   0000000180000000     kernel32:KERNEL32.dll
 0000:fffce000       .debug$S                   0000000180000000     iojs:node.dll
 0000:fffce000       .debug$S                   0000000180000000     kernel32:KERNEL32.dll
 0000:fffce000       .debug$S                   0000000180000000     iojs:node.dll
 0000:fffce000       .debug$S                   0000000180000000     kernel32:KERNEL32.dll
 0000:fffce000       .debug$S                   0000000180000000     iojs:node.dll
 0000:fffce000       .debug$S                   0000000180000000     kernel32:KERNEL32.dll
 0000:fffce000       .debug$S                   0000000180000000     iojs:node.dll
 0000:fffce000       .debug$S                   0000000180000000     kernel32:KERNEL32.dll
 0000:fffce000       .debug$S                   0000000180000000     kernel32:KERNEL32.dll
 0000:fffce000       .debug$S                   0000000180000000     iojs:node.dll
 0000:fffce000       .debug$S                   0000000180000000     kernel32:KERNEL32.dll
 0000:fffce000       .debug$S                   0000000180000000     iojs:node.dll
 0000:fffce000       .debug$S                   0000000180000000     kernel32:KERNEL32.dll
 0000:fffce000       .debug$S                   0000000180000000     iojs:node.dll
 0000:fffce000       .debug$S                   0000000180000000     kernel32:KERNEL32.dll
 0000:fffce000       .debug$S                   0000000180000000     iojs:node.dll
 0000:fffce000       .debug$S                   0000000180000000     kernel32:KERNEL32.dll
 0000:fffce000       .debug$S                   0000000180000000     iojs:node.dll
 0000:fffce000       .debug$S                   0000000180000000     kernel32:KERNEL32.dll
 0000:fffce000       .debug$S                   0000000180000000     kernel32:KERNEL32.dll
 0000:fffce000       .debug$S                   0000000180000000     kernel32:KERNEL32.dll
 0000:fffce000       .debug$S                   0000000180000000     iojs:node.dll
 0000:fffce000       .debug$S                   0000000180000000     iojs:node.dll
 0000:fffce000       .debug$S                   0000000180000000     iojs:node.dll
 0000:fffce000       .debug$S                   0000000180000000     kernel32:KERNEL32.dll
 0000:fffce000       .debug$S                   0000000180000000     iojs:node.dll
 0000:fffce000       .debug$S                   0000000180000000     kernel32:KERNEL32.dll
 0000:fffce000       .debug$S                   0000000180000000     iojs:node.dll
 0000:fffce000       .debug$S                   0000000180000000     kernel32:KERNEL32.dll
 0000:fffce000       .debug$S                   0000000180000000     iojs:node.dll
 0000:fffce000       .debug$S                   0000000180000000     kernel32:KERNEL32.dll
 0000:fffce000       .debug$S                   0000000180000000     iojs:node.dll
 0000:fffce000       .debug$S                   0000000180000000     kernel32:KERNEL32.dll
 0000:fffce000       .debug$S                   0000000180000000     iojs:node.dll
 0000:fffce000       .debug$S                   0000000180000000     kernel32:KERNEL32.dll
 0000:fffce000       .debug$S                   0000000180000000     iojs:node.dll
 0000:fffce000       .debug$S                   0000000180000000     kernel32:KERNEL32.dll
 0000:fffce000       .debug$S                   0000000180000000     iojs:node.dll
 0000:fffce000       .debug$S                   0000000180000000     kernel32:KERNEL32.dll
 0000:fffce000       .debug$S                   0000000180000000     iojs:node.dll
 0000:fffce000       .debug$S                   0000000180000000     kernel32:KERNEL32.dll
 0000:fffce000       .debug$S                   0000000180000000     iojs:node.dll
 0000:fffce000       .debug$S                   0000000180000000     kernel32:KERNEL32.dll
 0000:fffce000       .debug$S                   0000000180000000     iojs:node.dll
 0000:fffce000       .debug$S                   0000000180000000     kernel32:KERNEL32.dll
 0000:fffce000       .debug$S                   0000000180000000     iojs:node.dll
 0000:fffce000       .debug$S                   0000000180000000     kernel32:KERNEL32.dll
 0000:fffce000       .debug$S                   0000000180000000     iojs:node.dll
 0000:fffce000       .debug$S                   0000000180000000     kernel32:KERNEL32.dll
 0000:fffce000       .debug$S                   0000000180000000     iojs:node.dll
 0000:fffce000       .debug$S                   0000000180000000     kernel32:KERNEL32.dll
 0000:fffce000       .debug$S                   0000000180000000     iojs:node.dll
 0000:fffce000       .debug$S                   0000000180000000     kernel32:KERNEL32.dll
 0000:fffce000       .debug$S                   0000000180000000     iojs:node.dll
 0000:fffce000       .debug$S                   0000000180000000     kernel32:KERNEL32.dll
 0000:fffce000       .debug$S                   0000000180000000     iojs:node.dll
 0000:fffce000       .debug$S                   0000000180000000     kernel32:KERNEL32.dll
 0000:fffce000       .debug$S                   0000000180000000     iojs:node.dll
 0000:fffce000       .debug$S                   0000000180000000     kernel32:KERNEL32.dll
 0000:fffce000       .debug$S                   0000000180000000     iojs:node.dll
 0000:fffce000       .debug$S                   0000000180000000     kernel32:KERNEL32.dll
 0000:fffce000       .debug$S                   0000000180000000     iojs:node.dll
 0000:fffce000       .debug$S                   0000000180000000     kernel32:KERNEL32.dll
 0000:fffce000       .debug$S                   0000000180000000     iojs:node.dll
 0000:fffce000       .debug$S                   0000000180000000     kernel32:KERNEL32.dll
 0000:fffce000       .debug$S                   0000000180000000     iojs:node.dll
 0000:fffce000       .debug$S                   0000000180000000     kernel32:KERNEL32.dll
 0000:fffce000       .debug$S                   0000000180000000     iojs:node.dll
 0000:fffce000       .debug$S                   0000000180000000     kernel32:KERNEL32.dll
 0000:fffce000       .debug$S                   0000000180000000     iojs:node.dll
 0000:fffce000       .debug$S                   0000000180000000     kernel32:KERNEL32.dll
 0000:fffce000       .debug$S                   0000000180000000     iojs:node.dll
 0000:fffce000       .debug$S                   0000000180000000     kernel32:KERNEL32.dll
 0000:fffce000       .debug$S                   0000000180000000     iojs:node.dll
 0000:fffce000       .debug$S                   0000000180000000     kernel32:KERNEL32.dll
 0000:fffce000       .debug$S                   0000000180000000     iojs:node.dll
 0000:fffce000       .debug$S                   0000000180000000     kernel32:KERNEL32.dll
 0000:fffce000       .debug$S                   0000000180000000     iojs:node.dll
 0000:fffce000       .debug$S                   0000000180000000     kernel32:KERNEL32.dll
 0000:fffce000       .debug$S                   0000000180000000     iojs:node.dll
 0000:fffce000       .debug$S                   0000000180000000     kernel32:KERNEL32.dll
 0000:fffce000       .debug$S                   0000000180000000     iojs:node.dll
 0000:fffce000       .debug$S                   0000000180000000     kernel32:KERNEL32.dll
 0000:fffce000       .debug$S                   0000000180000000     iojs:node.dll
 0000:fffce000       .debug$S                   0000000180000000     kernel32:KERNEL32.dll
 0000:fffce000       .debug$S                   0000000180000000     kernel32:KERNEL32.dll
 0000:fffce000       .debug$S                   0000000180000000     kernel32:KERNEL32.dll
 0000:fffce000       .debug$S                   0000000180000000     iojs:node.dll
 0000:fffce000       .debug$S                   0000000180000000     iojs:node.dll
 0000:fffce000       .debug$S                   0000000180000000     ffi_bindings.exp
 0000:fffce000       .debug$S                   0000000180000000     iojs:node.dll
 0000:fffce000       .debug$S                   0000000180000000     iojs:node.dll
 0000:fffce000       .debug$S                   0000000180000000     iojs:node.dll
 0000:fffce000       .debug$S                   0000000180000000     iojs:node.dll
 0000:fffce000       .debug$S                   0000000180000000     iojs:node.dll
 0000:fffce000       .debug$S                   0000000180000000     iojs:node.dll
 0000:fffce000       .debug$S                   0000000180000000     iojs:node.dll
 0001:00000000       ??__E?g_queue@CallbackInfo@@0V?$queue@PEAVThreadedCallbackInvokation@@V?$deque@PEAVThreadedCallbackInvokation@@V?$allocator@PEAVThreadedCallbackInvokation@@@std@@@std@@@std@@A@@YAXXZ 0000000180001000 f   callback_info.obj
 0001:00000060       ?FunctionCallbackWrapper@imp@Nan@@YAXAEBV?$FunctionCallbackInfo@VValue@v8@@@v8@@@Z 0000000180001060 f   ffi.obj
 0001:00002ea0       _register_ffi_bindings     0000000180003ea0 f   ffi.obj
 0001:00003cb0       initialize_aggregate       0000000180004cb0 f   libffi:prep_cif.obj
 0001:00003efc       $LN44                      0000000180004efc     libffi:prep_cif.obj
 0001:000040d0       $LN31                      00000001800050d0     libffi:ffi.obj
 0001:00004430       win32munmap                0000000180005430 f   libffi:closures.obj
 0001:000044d0       init_mparams               00000001800054d0 f   libffi:closures.obj
 0001:000045a0       init_top                   00000001800055a0 f   libffi:closures.obj
 0001:000045e0       init_bins                  00000001800055e0 f   libffi:closures.obj
 0001:000047c0       prepend_alloc              00000001800057c0 f   libffi:closures.obj
 0001:00004bd0       add_segment                0000000180005bd0 f   libffi:closures.obj
 0001:00004f00       sys_alloc                  0000000180005f00 f   libffi:closures.obj
 0001:00005220       release_unused_segments    0000000180006220 f   libffi:closures.obj
 0001:00005560       sys_trim                   0000000180006560 f   libffi:closures.obj
 0001:000056c0       tmalloc_small              00000001800066c0 f   libffi:closures.obj
 0001:00005940       dlmalloc                   0000000180006940 f   libffi:closures.obj
 0001:00005ca0       dlfree                     0000000180006ca0 f   libffi:closures.obj
 0001:00006770       $$000000                   0000000180007770     LIBCMT:_amdsecgs_.obj
 0001:00006bd0       ?dllmain_crt_dispatch@@YAHQEAUHINSTANCE__@@KQEAX@Z 0000000180007bd0 f   LIBCMT:dll_dllmain.obj
 0001:00006c20       ?dllmain_crt_process_attach@@YAHQEAUHINSTANCE__@@QEAX@Z 0000000180007c20 f   LIBCMT:dll_dllmain.obj
 0001:00006d38       ?dllmain_crt_process_detach@@YAH_N@Z 0000000180007d38 f   LIBCMT:dll_dllmain.obj
 0001:00006dbc       ?dllmain_dispatch@@YAHQEAUHINSTANCE__@@KQEAX@Z 0000000180007dbc f   LIBCMT:dll_dllmain.obj
 0001:00006f30       $$000000                   0000000180007f30     LIBCMT:_chkstk_.obj
 0001:00007178       capture_current_context    0000000180008178 f   LIBCMT:gs_report.obj
 0001:000071e8       capture_previous_context   00000001800081e8 f   LIBCMT:gs_report.obj
 0001:00007bb0       $$000000                   0000000180008bb0     libvcruntime:memset.obj
 0001:00007cac       MsetTab                    0000000180008cac     libvcruntime:memset.obj
 0001:00007ffc       ?try_get_function@@YAPEAXW4function_id@?A0x89697e75@@QEBDQEBW4module_id@2@2@Z 0000000180008ffc f   libvcruntime:winapi_downlevel.obj
 0001:000083f0       $$000000                   00000001800093f0     libvcruntime:_jmpuwind_.obj
 0001:00008a80       $$000000                   0000000180009a80     libvcruntime:memcpy.obj
 0001:00008b27       MoveSmall                  0000000180009b27     libvcruntime:memcpy.obj
 0001:00009044       ?CatchIt@@YAXPEAUEHExceptionRecord@@PEA_KPEAU_CONTEXT@@PEAU_xDISPATCHER_CONTEXT@@PEBU_s_FuncInfo@@PEBU_s_HandlerType@@PEBU_s_CatchableType@@PEBU_s_TryBlockMapEntry@@H1EE@Z 000000018000a044 f   libvcruntime:frame.obj
 0001:00009108       ?ExFilterRethrow@@YAHPEAU_EXCEPTION_POINTERS@@PEAUEHExceptionRecord@@PEAH@Z 000000018000a108 f   libvcruntime:frame.obj
 0001:00009190       ?FindHandler@@YAXPEAUEHExceptionRecord@@PEA_KPEAU_CONTEXT@@PEAU_xDISPATCHER_CONTEXT@@PEBU_s_FuncInfo@@EH1@Z 000000018000a190 f   libvcruntime:frame.obj
 0001:00009640       ?FindHandlerForForeignException@@YAXPEAUEHExceptionRecord@@PEA_KPEAU_CONTEXT@@PEAU_xDISPATCHER_CONTEXT@@PEBU_s_FuncInfo@@HH1@Z 000000018000a640 f   libvcruntime:frame.obj
 0001:00009898       ?IsInExceptionSpec@@YAEPEAUEHExceptionRecord@@PEBU_s_ESTypeList@@@Z 000000018000a898 f   libvcruntime:frame.obj
 0001:0000a350       $$000000                   000000018000b350     libvcruntime:handlers.obj
 0001:0000a590       ??$common_assert_to_message_box@_W@@YAXQEB_W0IQEAX@Z 000000018000b590 f   libucrt:assert.obj
 0001:0000a654       ??$common_assert_to_message_box_build_string@_W@@YAXQEA_W_KQEB_W2IQEAX@Z 000000018000b654 f   libucrt:assert.obj
 0001:0000ae18       ??$common_assert_to_stderr@_W@@YAXQEB_W0I@Z 000000018000be18 f   libucrt:assert.obj
 0001:0000af88       ?get_assert_format@@YAPEB_W_W@Z 000000018000bf88 f   libucrt:assert.obj
 0001:0000b358       ??$?RV<lambda_0d412022a4b28cc8a401ea49574e8ae6>@@AEAV<lambda_a775ed57af18ba8e4d5dc780aa9068fe>@@V<lambda_975a71a6baa488a08f4e15f6b0339b9e>@@@?$__crt_seh_guarded_call@H@@QEAAH$$QEAV<lambda_0d412022a4b28cc8a401ea49574e8ae6>@@AEAV<lambda_a775ed57af18ba8e4d5dc780aa9068fe>@@$$QEAV<lambda_975a71a6baa488a08f4e15f6b0339b9e>@@@Z 000000018000c358 f   libucrt:output.obj
 0001:0000b398       ??$common_vsprintf@Vstandard_base@__crt_stdio_output@@D@@YAH_KQEAD0QEBDQEAU__crt_locale_pointers@@1@Z 000000018000c398 f   libucrt:output.obj
 0001:0000b564       ??$common_vsprintf@Vstandard_base@__crt_stdio_output@@_W@@YAH_KQEA_W0QEB_WQEAU__crt_locale_pointers@@QEAD@Z 000000018000c564 f   libucrt:output.obj
 0001:0000bd6c       ??R<lambda_a775ed57af18ba8e4d5dc780aa9068fe>@@QEBAHXZ 000000018000cd6c f   libucrt:output.obj
 0001:0000e944       ??$?RV<lambda_d80eeec6fff315bfe5c115232f3240e3>@@AEAV<lambda_6e4b09c48022b2350581041d5f6b0c4c>@@V<lambda_2358e3775559c9db80273638284d5e45>@@@?$__crt_seh_guarded_call@X@@QEAAX$$QEAV<lambda_d80eeec6fff315bfe5c115232f3240e3>@@AEAV<lambda_6e4b09c48022b2350581041d5f6b0c4c>@@$$QEAV<lambda_2358e3775559c9db80273638284d5e45>@@@Z 000000018000f944 f   libucrt:exit.obj
 0001:0000e97c       ??R<lambda_6e4b09c48022b2350581041d5f6b0c4c>@@QEBA@XZ 000000018000f97c f   libucrt:exit.obj
 0001:0000ea54       ?atexit_exception_filter@@YAHK@Z 000000018000fa54 f   libucrt:exit.obj
 0001:0000ea60       ?common_exit@@YAXHW4_crt_exit_cleanup_mode@@W4_crt_exit_return_mode@@@Z 000000018000fa60 f   libucrt:exit.obj
 0001:0000eb1c       ?exit_or_terminate_process@@YAXI@Z 000000018000fb1c f   libucrt:exit.obj
 0001:0000eb68       ?try_cor_exit_process@@YAXI@Z 000000018000fb68 f   libucrt:exit.obj
 0001:0000ebf0       ??$parse_command_line@D@@YAXPEADPEAPEAD0PEA_K2@Z 000000018000fbf0 f   libucrt:argv_parsing.obj
 0001:0000ef9c       ??$common_initialize_environment_nolock@D@@YAHXZ 000000018000ff9c f   libucrt:environment_initialization.obj
 0001:0000f008       ??$create_environment@D@@YAQEAPEADQEAD@Z 0000000180010008 f   libucrt:environment_initialization.obj
 0001:0000f110       ??$free_environment@_W@@YAXQEAPEA_W@Z 0000000180010110 f   libucrt:environment_initialization.obj
 0001:0000f110       ??$free_environment@D@@YAXQEAPEAD@Z 0000000180010110 f   libucrt:environment_initialization.obj
 0001:0000f154       ??$uninitialize_environment_internal@D@@YAXAEAPEAPEAD@Z 0000000180010154 f   libucrt:environment_initialization.obj
 0001:0000f170       ??$uninitialize_environment_internal@_W@@YAXAEAPEAPEA_W@Z 0000000180010170 f   libucrt:environment_initialization.obj
 0001:0000f1cc       ??$?RV<lambda_7777bce6b2f8c936911f934f8298dc43>@@AEAV<lambda_f03950bc5685219e0bcd2087efbe011e>@@V<lambda_3883c3dff614d5e0c5f61bb1ac94921c>@@@?$__crt_seh_guarded_call@H@@QEAAH$$QEAV<lambda_7777bce6b2f8c936911f934f8298dc43>@@AEAV<lambda_f03950bc5685219e0bcd2087efbe011e>@@$$QEAV<lambda_3883c3dff614d5e0c5f61bb1ac94921c>@@@Z 00000001800101cc f   libucrt:onexit.obj
 0001:0000f208       ??$?RV<lambda_8369fcb7c4df1e85de37618bd2b85f07>@@AEAV<lambda_a10e4b102d4a2c3aac6f4f48bbdf488f>@@V<lambda_5b7707bd6d7a0c4713179f36c7fd995d>@@@?$__crt_seh_guarded_call@H@@QEAAH$$QEAV<lambda_8369fcb7c4df1e85de37618bd2b85f07>@@AEAV<lambda_a10e4b102d4a2c3aac6f4f48bbdf488f>@@$$QEAV<lambda_5b7707bd6d7a0c4713179f36c7fd995d>@@@Z 0000000180010208 f   libucrt:onexit.obj
 0001:0000f244       ??R<lambda_a10e4b102d4a2c3aac6f4f48bbdf488f>@@QEBAHXZ 0000000180010244 f   libucrt:onexit.obj
 0001:0000f408       ??R<lambda_f03950bc5685219e0bcd2087efbe011e>@@QEBAHXZ 0000000180010408 f   libucrt:onexit.obj
 0001:0000f628       initialize_global_variables 0000000180010628 f   libucrt:initialization.obj
 0001:0000f63c       initialize_c               000000018001063c f   libucrt:initialization.obj
 0001:0000f660       initialize_environment     0000000180010660 f   libucrt:initialization.obj
 0001:0000f660       initialize_global_state_isolation 0000000180010660 f   libucrt:initialization.obj
 0001:0000f660       uninitialize_global_state_isolation 0000000180010660 f   libucrt:initialization.obj
 0001:0000f660       uninitialize_c             0000000180010660 f   libucrt:initialization.obj
 0001:0000f660       report_memory_leaks        0000000180010660 f   libucrt:initialization.obj
 0001:0000f664       uninitialize_environment   0000000180010664 f   libucrt:initialization.obj
 0001:0000f674       initialize_pointers        0000000180010674 f   libucrt:initialization.obj
 0001:0000f6c8       uninitialize_vcruntime     00000001800106c8 f   libucrt:initialization.obj
 0001:0000f6d0       uninitialize_allocated_memory 00000001800106d0 f   libucrt:initialization.obj
 0001:0000f710       uninitialize_allocated_io_buffers 0000000180010710 f   libucrt:initialization.obj
 0001:00010350       $$000000                   0000000180011350     libucrt:strncmp.obj
 0001:000103e0       ??$?RV<lambda_0ae27a3a962d80f24befdcbee591983d>@@AEAV<lambda_8d0ee55de4b1038c4002e0adecdf1839>@@V<lambda_dc504788e8f1664fe9b84e20bfb512f2>@@@?$__crt_seh_guarded_call@X@@QEAAX$$QEAV<lambda_0ae27a3a962d80f24befdcbee591983d>@@AEAV<lambda_8d0ee55de4b1038c4002e0adecdf1839>@@$$QEAV<lambda_dc504788e8f1664fe9b84e20bfb512f2>@@@Z 00000001800113e0 f   libucrt:per_thread_data.obj
 0001:00010420       ??$?RV<lambda_2d41944a1d46af3157314b8a01080d33>@@AEAV<lambda_8f455de75cd7d7f24b4096f044d8b9e6>@@V<lambda_aa500f224e6afead328df44964fe2772>@@@?$__crt_seh_guarded_call@X@@QEAAX$$QEAV<lambda_2d41944a1d46af3157314b8a01080d33>@@AEAV<lambda_8f455de75cd7d7f24b4096f044d8b9e6>@@$$QEAV<lambda_aa500f224e6afead328df44964fe2772>@@@Z 0000000180011420 f   libucrt:per_thread_data.obj
 0001:00010460       ??$?RV<lambda_aa87e3671a710a21b5dc78c0bdf72e11>@@AEAV<lambda_92619d2358a28f41a33ba319515a20b9>@@V<lambda_6992ecaafeb10aed2b74cb1fae11a551>@@@?$__crt_seh_guarded_call@X@@QEAAX$$QEAV<lambda_aa87e3671a710a21b5dc78c0bdf72e11>@@AEAV<lambda_92619d2358a28f41a33ba319515a20b9>@@$$QEAV<lambda_6992ecaafeb10aed2b74cb1fae11a551>@@@Z 0000000180011460 f   libucrt:per_thread_data.obj
 0001:000104a8       ??$?RV<lambda_f2e299630e499de9f9a165e60fcd3db5>@@AEAV<lambda_2ae9d31cdba2644fcbeaf08da7c24588>@@V<lambda_40d01ff24d0e7b3814fdbdcee8eab3c7>@@@?$__crt_seh_guarded_call@X@@QEAAX$$QEAV<lambda_f2e299630e499de9f9a165e60fcd3db5>@@AEAV<lambda_2ae9d31cdba2644fcbeaf08da7c24588>@@$$QEAV<lambda_40d01ff24d0e7b3814fdbdcee8eab3c7>@@@Z 00000001800114a8 f   libucrt:per_thread_data.obj
 0001:00010508       ?construct_ptd_array@@YAXQEAU__acrt_ptd@@@Z 0000000180011508 f   libucrt:per_thread_data.obj
 0001:000105d8       ?destroy_fls@@YAXPEAX@Z    00000001800115d8 f   libucrt:per_thread_data.obj
 0001:000105f8       ?destroy_ptd_array@@YAXQEAU__acrt_ptd@@@Z 00000001800115f8 f   libucrt:per_thread_data.obj
 0001:000106f0       ?replace_current_thread_locale_nolock@@YAXQEAU__acrt_ptd@@QEAU__crt_locale_data@@@Z 00000001800116f0 f   libucrt:per_thread_data.obj
 0001:00010a28       ??$common_xtox@K_W@@YAHKQEA_W_KI_N@Z 0000000180011a28 f   libucrt:xtoa.obj
 0001:00010aec       ??$common_xtox_s@K_W@@YAHKQEA_W_KI_N@Z 0000000180011aec f   libucrt:xtoa.obj
 0001:00011098       ??$?RV<lambda_842d9ff0dc9ef11c61343bbaebe7f885>@@AEAV<lambda_c5860995281e5c4ce005b3de8f5874ee>@@V<lambda_d90129c13df834fdcbf8d2b88dafcf2d>@@@?$__crt_seh_guarded_call@X@@QEAAX$$QEAV<lambda_842d9ff0dc9ef11c61343bbaebe7f885>@@AEAV<lambda_c5860995281e5c4ce005b3de8f5874ee>@@$$QEAV<lambda_d90129c13df834fdcbf8d2b88dafcf2d>@@@Z 0000000180012098 f   libucrt:fflush.obj
 0001:00011134       ??$?RV<lambda_886d6c58226a84441f68b9f2b8217b83>@@AEAV<lambda_ab61a845afdef5b7c387490eaf3616ee>@@V<lambda_f7f22ab5edc0698d5f6905b0d3f44752>@@@?$__crt_seh_guarded_call@X@@QEAAX$$QEAV<lambda_886d6c58226a84441f68b9f2b8217b83>@@AEAV<lambda_ab61a845afdef5b7c387490eaf3616ee>@@$$QEAV<lambda_f7f22ab5edc0698d5f6905b0d3f44752>@@@Z 0000000180012134 f   libucrt:fflush.obj
 0001:00011214       ??$?RV<lambda_c376a267cfb53b6959b3b692ec76b120>@@AEAV<lambda_9a32fed5bf61b6b509b2d3f6003082a1>@@V<lambda_572fbb9fa0ab338edf41edfd4b5fcc8d>@@@?$__crt_seh_guarded_call@H@@QEAAH$$QEAV<lambda_c376a267cfb53b6959b3b692ec76b120>@@AEAV<lambda_9a32fed5bf61b6b509b2d3f6003082a1>@@$$QEAV<lambda_572fbb9fa0ab338edf41edfd4b5fcc8d>@@@Z 0000000180012214 f   libucrt:fflush.obj
 0001:00011254       ?common_flush_all@@YAH_N@Z 0000000180012254 f   libucrt:fflush.obj
 0001:000113ec       ??$?RV<lambda_84ec643ea9557e2f7dc01bb0e9624395>@@AEAV<lambda_ca71763b3c0644891230e4f79ea54fa6>@@V<lambda_439a761618c59b0600e24586724d733b>@@@?$__crt_seh_guarded_call@H@@QEAAH$$QEAV<lambda_84ec643ea9557e2f7dc01bb0e9624395>@@AEAV<lambda_ca71763b3c0644891230e4f79ea54fa6>@@$$QEAV<lambda_439a761618c59b0600e24586724d733b>@@@Z 00000001800123ec f   libucrt:setvbuf.obj
 0001:0001142c       ??R<lambda_ca71763b3c0644891230e4f79ea54fa6>@@QEBAHXZ 000000018001242c f   libucrt:setvbuf.obj
 0001:000115b8       ??$?RV<lambda_450d765d439847d4c735a33c368b5fc0>@@AEAV<lambda_44731a7d0e6d81c3e6aa82d741081786>@@V<lambda_601a2a7da3b7a96e9554ac7215c4b07c>@@@?$__crt_seh_guarded_call@P6AXH@Z@@QEAAP6AXH@Z$$QEAV<lambda_450d765d439847d4c735a33c368b5fc0>@@AEAV<lambda_44731a7d0e6d81c3e6aa82d741081786>@@$$QEAV<lambda_601a2a7da3b7a96e9554ac7215c4b07c>@@@Z 00000001800125b8 f   libucrt:signal.obj
 0001:00011948       ?internal_isupper_l@@YA_NHQEAU__crt_locale_pointers@@@Z 0000000180012948 f   libucrt:tolower_toupper.obj
 0001:000122a8       ?fp_format_a@@YAHQEBNPEAD_KQEAD2H_NIQEAU__crt_locale_pointers@@@Z 00000001800132a8 f   libucrt:cvt.obj
 0001:00012610       ?fp_format_e@@YAHQEBNQEAD_K12H_NIQEAU__crt_locale_pointers@@@Z 0000000180013610 f   libucrt:cvt.obj
 0001:000126ec       ?fp_format_e_internal@@YAHQEAD_KH_NIQEAU_strflt@@2QEAU__crt_locale_pointers@@@Z 00000001800136ec f   libucrt:cvt.obj
 0001:000128c0       ?fp_format_f_internal@@YAHQEAD_KHQEAU_strflt@@_NQEAU__crt_locale_pointers@@@Z 00000001800138c0 f   libucrt:cvt.obj
 0001:00012a04       ?fp_format_g@@YAHQEBNQEAD_K12H_NIQEAU__crt_locale_pointers@@@Z 0000000180013a04 f   libucrt:cvt.obj
 0001:00012b38       ?fp_format_nan_or_infinity@@YAHW4__acrt_fp_class@@_NPEAD_K1@Z 0000000180013b38 f   libucrt:cvt.obj
 0001:000131dc       ??$?RV<lambda_410d79af7f07d98d83a3f525b3859a53>@@AEAV<lambda_3e16ef9562a7dcce91392c22ab16ea36>@@V<lambda_38119f0e861e05405d8a144b9b982f0a>@@@?$__crt_seh_guarded_call@X@@QEAAX$$QEAV<lambda_410d79af7f07d98d83a3f525b3859a53>@@AEAV<lambda_3e16ef9562a7dcce91392c22ab16ea36>@@$$QEAV<lambda_38119f0e861e05405d8a144b9b982f0a>@@@Z 00000001800141dc f   libucrt:wsetlocale.obj
 0001:00013288       ?initialize_inherited_file_handles_nolock@@YAXXZ 0000000180014288 f   libucrt:ioinit.obj
 0001:00013374       ?initialize_stdio_handles_nolock@@YAXXZ 0000000180014374 f   libucrt:ioinit.obj
 0001:00013718       ?<lambda_invoker_cdecl>@<lambda_c2303d2482d7c3675ea2e24c4cfb6115>@@CAHPEBX0@Z 0000000180014718 f   libucrt:argv_wildcards.obj
 0001:0001372c       ??$common_expand_argv_wildcards@D@@YAHQEAPEADQEAPEAPEAD@Z 000000018001472c f   libucrt:argv_wildcards.obj
 0001:00013938       ??$copy_and_add_argument_to_buffer@D@@YAHQEBD0_KAEAV?$argument_list@D@?A0x5f5c8891@@@Z 0000000180014938 f   libucrt:argv_wildcards.obj
 0001:00013ad4       ??$expand_argument_wildcards@D@@YAHQEAD0AEAV?$argument_list@D@?A0x5f5c8891@@@Z 0000000180014ad4 f   libucrt:argv_wildcards.obj
 0001:00013c88       ??$?RV<lambda_efdfa57d1f175319df784efa44bb7b81>@@AEAV<lambda_5f0a4c1567f8adc6734073e5d1e1b35c>@@V<lambda_2e8a7d3640ea6ccb4c2413664c2db6fd>@@@?$__crt_seh_guarded_call@X@@QEAAX$$QEAV<lambda_efdfa57d1f175319df784efa44bb7b81>@@AEAV<lambda_5f0a4c1567f8adc6734073e5d1e1b35c>@@$$QEAV<lambda_2e8a7d3640ea6ccb4c2413664c2db6fd>@@@Z 0000000180014c88 f   libucrt:mbctype.obj
 0001:00013e44       ?getSystemCP@@YAHH@Z       0000000180014e44 f   libucrt:mbctype.obj
 0001:00013ec4       ?setSBCS@@YAXPEAU__crt_multibyte_data@@@Z 0000000180014ec4 f   libucrt:mbctype.obj
 0001:00013f54       ?setSBUpLow@@YAXPEAU__crt_multibyte_data@@@Z 0000000180014f54 f   libucrt:mbctype.obj
 0001:00014138       ?setmbcp_internal@@YAHH_NQEAU__acrt_ptd@@QEAPEAU__crt_multibyte_data@@@Z 0000000180015138 f   libucrt:mbctype.obj
 0001:000142fc       ?update_thread_multibyte_data_internal@@YAPEAU__crt_multibyte_data@@QEAU__acrt_ptd@@QEAPEAU1@@Z 00000001800152fc f   libucrt:mbctype.obj
 0001:000146e8       ?x_ismbbtype_l@@YAHPEAU__crt_locale_pointers@@IHH@Z 00000001800156e8 f   libucrt:ismbbyte.obj
 0001:00014a34       ?try_get_function@@YAPEAXW4function_id@?A0x391cf84c@@QEBDQEBW4module_id@2@2@Z 0000000180015a34 f   libucrt:winapi_thunks.obj
 0001:00015968       ?_mbstowcs_l_helper@@YA_KPEA_WPEBD_KPEAU__crt_locale_pointers@@@Z 0000000180016968 f   libucrt:mbstowcs.obj
 0001:00015c84       ??$?RV<lambda_a37b2b86f63e897a80ea819b0eb08c01>@@AEAV<lambda_38ce7e780aa69e748d6df282ebc68efe>@@V<lambda_99fb1378e971ab6e7edea83e3a7a83a2>@@@?$__crt_seh_guarded_call@H@@QEAAH$$QEAV<lambda_a37b2b86f63e897a80ea819b0eb08c01>@@AEAV<lambda_38ce7e780aa69e748d6df282ebc68efe>@@$$QEAV<lambda_99fb1378e971ab6e7edea83e3a7a83a2>@@@Z 0000000180016c84 f   libucrt:commit.obj
 0001:00015da4       ?write_double_translated_ansi_nolock@@YA?AUwrite_result@?A0x17268360@@HQEBDI@Z 0000000180016da4 f   libucrt:write.obj
 0001:00015fbc       ?write_text_ansi_nolock@@YA?AUwrite_result@?A0x17268360@@HQEBDI@Z 0000000180016fbc f   libucrt:write.obj
 0001:000160c0       ?write_text_utf16le_nolock@@YA?AUwrite_result@?A0x17268360@@HQEBDI@Z 00000001800170c0 f   libucrt:write.obj
 0001:000161dc       ?write_text_utf8_nolock@@YA?AUwrite_result@?A0x17268360@@HQEBDI@Z 00000001800171dc f   libucrt:write.obj
 0001:00016758       ?__acrt_LCMapStringA_stat@@YAHPEAU__crt_locale_pointers@@PEB_WKPEBDHPEADHHH@Z 0000000180017758 f   libucrt:lcmapstringa.obj
 0001:00018518       memcpy_s                   0000000180019518 f   libucrt:cfout.obj
 0001:000185a0       ??$write_buffer_nolock@D@@YA_NDV__crt_stdio_stream@@@Z 00000001800195a0 f   libucrt:_flsbuf.obj
 0001:00018680       ??$write_buffer_nolock@_W@@YA_N_WV__crt_stdio_stream@@@Z 0000000180019680 f   libucrt:_flsbuf.obj
 0001:00018b10       ?free_crt_array_internal@@YAXQEAPEBX_K@Z 0000000180019b10 f   libucrt:inittime.obj
 0001:000195a8       fallbackMethod             000000018001a5a8 f   libucrt:strpbrk.obj
 0001:00019974       $LN78                      000000018001a974     libucrt:strpbrk.obj
 0001:000199b0       $LN77                      000000018001a9b0     libucrt:strpbrk.obj
 0001:000199f0       $LN76                      000000018001a9f0     libucrt:strpbrk.obj
 0001:00019e78       ?initialize_multibyte@@YAHXZ 000000018001ae78 f   libucrt:multibyte_initializer.obj
 0001:00019f50       ?GetTableIndexFromLocaleName@@YAHPEB_W@Z 000000018001af50 f   libucrt:lcidtoname_downlevel.obj
 0001:0001a15c       ??$common_lseek@_J@@YA_JH_JH@Z 000000018001b15c f   libucrt:lseek.obj
 0001:0001a24c       ??$common_lseek_nolock@_J@@YA_JH_JH@Z 000000018001b24c f   libucrt:lseek.obj
 0001:0001a6b0       $$000000                   000000018001b6b0     libucrt:log10.obj
 0001:0001acc4       ?_wcstombs_l_helper@@YA_KPEADPEB_W_KPEAU__crt_locale_pointers@@@Z 000000018001bcc4 f   libucrt:wcstombs.obj
 0001:0001b034       ??$?RV<lambda_751a882b2c74d4b022dec766aa51a29a>@@AEAV<lambda_628dfdc04ba53c8bfc02c9951375f3f5>@@V<lambda_f6c7be5f7998530c34de24c7437d6b54>@@@?$__crt_seh_guarded_call@H@@QEAAH$$QEAV<lambda_751a882b2c74d4b022dec766aa51a29a>@@AEAV<lambda_628dfdc04ba53c8bfc02c9951375f3f5>@@$$QEAV<lambda_f6c7be5f7998530c34de24c7437d6b54>@@@Z 000000018001c034 f   libucrt:close.obj
 0001:0001b6e8       _call_matherr              000000018001c6e8 f   libucrt:libm_error.obj
 0001:0001b750       _exception_enabled         000000018001c750 f   libucrt:libm_error.obj
 0001:0001b9e0       _log_special_common        000000018001c9e0 f   libucrt:log_special.obj
 0001:0001bba0       $$000000                   000000018001cba0     libucrt:fpsr.obj
 0001:0001c4d0       $$000000                   000000018001d4d0     libvcruntime:memcmp.obj
 0001:0001c5b0       $$000000                   000000018001d5b0     LIBCMT:_guard_dispatch_.obj
 0001:0001c5d0       __scrt_is_nonwritable_in_current_image$filt$0 000000018001d5d0 f   LIBCMT:utility.obj
 0001:0001c5e8       ?fin$0@?0??dllmain_crt_process_attach@@YAHQEAUHINSTANCE__@@QEAX@Z@4HA 000000018001d5e8 f   LIBCMT:dll_dllmain.obj
 0001:0001c5ff       ?fin$0@?0??dllmain_crt_process_detach@@YAH_N@Z@4HA 000000018001d5ff f   LIBCMT:dll_dllmain.obj
 0001:0001c61b       ?filt$0@?0??dllmain_dispatch@@YAHQEAUHINSTANCE__@@KQEAX@Z@4HA 000000018001d61b f   LIBCMT:dll_dllmain.obj
 0001:0001c651       _CallSETranslator$filt$0   000000018001d651 f   libvcruntime:risctrnsctrl.obj
 0001:0001c6e2       __CxxCallCatchBlock$filt$0 000000018001d6e2 f   libvcruntime:frame.obj
 0001:0001c707       __CxxCallCatchBlock$fin$1  000000018001d707 f   libvcruntime:frame.obj
 0001:0001c77f       __FrameUnwindToState$filt$0 000000018001d77f f   libvcruntime:frame.obj
 0001:0001c795       __FrameUnwindToState$fin$1 000000018001d795 f   libvcruntime:frame.obj
 0001:0001c7b8       __DestructExceptionObject$filt$0 000000018001d7b8 f   libvcruntime:ehhelpers.obj
 0001:0001c7d0       ?fin$0@?0???$?RV<lambda_0d412022a4b28cc8a401ea49574e8ae6>@@AEAV<lambda_a775ed57af18ba8e4d5dc780aa9068fe>@@V<lambda_975a71a6baa488a08f4e15f6b0339b9e>@@@?$__crt_seh_guarded_call@H@@QEAAH$$QEAV<lambda_0d412022a4b28cc8a401ea49574e8ae6>@@AEAV<lambda_a775ed57af18ba8e4d5dc780aa9068fe>@@$$QEAV<lambda_975a71a6baa488a08f4e15f6b0339b9e>@@@Z@4HA 000000018001d7d0 f   libucrt:output.obj
 0001:0001c7d0       ?fin$0@?0???$?RV<lambda_842d9ff0dc9ef11c61343bbaebe7f885>@@AEAV<lambda_c5860995281e5c4ce005b3de8f5874ee>@@V<lambda_d90129c13df834fdcbf8d2b88dafcf2d>@@@?$__crt_seh_guarded_call@X@@QEAAX$$QEAV<lambda_842d9ff0dc9ef11c61343bbaebe7f885>@@AEAV<lambda_c5860995281e5c4ce005b3de8f5874ee>@@$$QEAV<lambda_d90129c13df834fdcbf8d2b88dafcf2d>@@@Z@4HA 000000018001d7d0 f   libucrt:fflush.obj
 0001:0001c7d0       ?fin$0@?0???$?RV<lambda_84ec643ea9557e2f7dc01bb0e9624395>@@AEAV<lambda_ca71763b3c0644891230e4f79ea54fa6>@@V<lambda_439a761618c59b0600e24586724d733b>@@@?$__crt_seh_guarded_call@H@@QEAAH$$QEAV<lambda_84ec643ea9557e2f7dc01bb0e9624395>@@AEAV<lambda_ca71763b3c0644891230e4f79ea54fa6>@@$$QEAV<lambda_439a761618c59b0600e24586724d733b>@@@Z@4HA 000000018001d7d0 f   libucrt:setvbuf.obj
 0001:0001c7d0       ?fin$0@?0???$?RV<lambda_c376a267cfb53b6959b3b692ec76b120>@@AEAV<lambda_9a32fed5bf61b6b509b2d3f6003082a1>@@V<lambda_572fbb9fa0ab338edf41edfd4b5fcc8d>@@@?$__crt_seh_guarded_call@H@@QEAAH$$QEAV<lambda_c376a267cfb53b6959b3b692ec76b120>@@AEAV<lambda_9a32fed5bf61b6b509b2d3f6003082a1>@@$$QEAV<lambda_572fbb9fa0ab338edf41edfd4b5fcc8d>@@@Z@4HA 000000018001d7d0 f   libucrt:fflush.obj
 0001:0001c7eb       _query_new_handler$fin$0   000000018001d7eb f   libucrt:new_handler.obj
 0001:0001c801       ?fin$0@?0???$?RV<lambda_8369fcb7c4df1e85de37618bd2b85f07>@@AEAV<lambda_a10e4b102d4a2c3aac6f4f48bbdf488f>@@V<lambda_5b7707bd6d7a0c4713179f36c7fd995d>@@@?$__crt_seh_guarded_call@H@@QEAAH$$QEAV<lambda_8369fcb7c4df1e85de37618bd2b85f07>@@AEAV<lambda_a10e4b102d4a2c3aac6f4f48bbdf488f>@@$$QEAV<lambda_5b7707bd6d7a0c4713179f36c7fd995d>@@@Z@4HA 000000018001d801 f   libucrt:onexit.obj
 0001:0001c801       ?fin$0@?0???$?RV<lambda_d80eeec6fff315bfe5c115232f3240e3>@@AEAV<lambda_6e4b09c48022b2350581041d5f6b0c4c>@@V<lambda_2358e3775559c9db80273638284d5e45>@@@?$__crt_seh_guarded_call@X@@QEAAX$$QEAV<lambda_d80eeec6fff315bfe5c115232f3240e3>@@AEAV<lambda_6e4b09c48022b2350581041d5f6b0c4c>@@$$QEAV<lambda_2358e3775559c9db80273638284d5e45>@@@Z@4HA 000000018001d801 f   libucrt:exit.obj
 0001:0001c801       ?fin$0@?0???$?RV<lambda_7777bce6b2f8c936911f934f8298dc43>@@AEAV<lambda_f03950bc5685219e0bcd2087efbe011e>@@V<lambda_3883c3dff614d5e0c5f61bb1ac94921c>@@@?$__crt_seh_guarded_call@H@@QEAAH$$QEAV<lambda_7777bce6b2f8c936911f934f8298dc43>@@AEAV<lambda_f03950bc5685219e0bcd2087efbe011e>@@$$QEAV<lambda_3883c3dff614d5e0c5f61bb1ac94921c>@@@Z@4HA 000000018001d801 f   libucrt:onexit.obj
 0001:0001c801       ?fin$0@?0???$?RV<lambda_f2e299630e499de9f9a165e60fcd3db5>@@AEAV<lambda_2ae9d31cdba2644fcbeaf08da7c24588>@@V<lambda_40d01ff24d0e7b3814fdbdcee8eab3c7>@@@?$__crt_seh_guarded_call@X@@QEAAX$$QEAV<lambda_f2e299630e499de9f9a165e60fcd3db5>@@AEAV<lambda_2ae9d31cdba2644fcbeaf08da7c24588>@@$$QEAV<lambda_40d01ff24d0e7b3814fdbdcee8eab3c7>@@@Z@4HA 000000018001d801 f   libucrt:per_thread_data.obj
 0001:0001c801       ?fin$0@?0???$?RV<lambda_efdfa57d1f175319df784efa44bb7b81>@@AEAV<lambda_5f0a4c1567f8adc6734073e5d1e1b35c>@@V<lambda_2e8a7d3640ea6ccb4c2413664c2db6fd>@@@?$__crt_seh_guarded_call@X@@QEAAX$$QEAV<lambda_efdfa57d1f175319df784efa44bb7b81>@@AEAV<lambda_5f0a4c1567f8adc6734073e5d1e1b35c>@@$$QEAV<lambda_2e8a7d3640ea6ccb4c2413664c2db6fd>@@@Z@4HA 000000018001d801 f   libucrt:mbctype.obj
 0001:0001c801       ?fin$0@?0???$?RV<lambda_2d41944a1d46af3157314b8a01080d33>@@AEAV<lambda_8f455de75cd7d7f24b4096f044d8b9e6>@@V<lambda_aa500f224e6afead328df44964fe2772>@@@?$__crt_seh_guarded_call@X@@QEAAX$$QEAV<lambda_2d41944a1d46af3157314b8a01080d33>@@AEAV<lambda_8f455de75cd7d7f24b4096f044d8b9e6>@@$$QEAV<lambda_aa500f224e6afead328df44964fe2772>@@@Z@4HA 000000018001d801 f   libucrt:per_thread_data.obj
 0001:0001c801       ?fin$0@?0???$?RV<lambda_450d765d439847d4c735a33c368b5fc0>@@AEAV<lambda_44731a7d0e6d81c3e6aa82d741081786>@@V<lambda_601a2a7da3b7a96e9554ac7215c4b07c>@@@?$__crt_seh_guarded_call@P6AXH@Z@@QEAAP6AXH@Z$$QEAV<lambda_450d765d439847d4c735a33c368b5fc0>@@AEAV<lambda_44731a7d0e6d81c3e6aa82d741081786>@@$$QEAV<lambda_601a2a7da3b7a96e9554ac7215c4b07c>@@@Z@4HA 000000018001d801 f   libucrt:signal.obj
 0001:0001c801       ?fin$0@?0???$?RV<lambda_aa87e3671a710a21b5dc78c0bdf72e11>@@AEAV<lambda_92619d2358a28f41a33ba319515a20b9>@@V<lambda_6992ecaafeb10aed2b74cb1fae11a551>@@@?$__crt_seh_guarded_call@X@@QEAAX$$QEAV<lambda_aa87e3671a710a21b5dc78c0bdf72e11>@@AEAV<lambda_92619d2358a28f41a33ba319515a20b9>@@$$QEAV<lambda_6992ecaafeb10aed2b74cb1fae11a551>@@@Z@4HA 000000018001d801 f   libucrt:per_thread_data.obj
 0001:0001c801       ?fin$0@?0???$?RV<lambda_0ae27a3a962d80f24befdcbee591983d>@@AEAV<lambda_8d0ee55de4b1038c4002e0adecdf1839>@@V<lambda_dc504788e8f1664fe9b84e20bfb512f2>@@@?$__crt_seh_guarded_call@X@@QEAAX$$QEAV<lambda_0ae27a3a962d80f24befdcbee591983d>@@AEAV<lambda_8d0ee55de4b1038c4002e0adecdf1839>@@$$QEAV<lambda_dc504788e8f1664fe9b84e20bfb512f2>@@@Z@4HA 000000018001d801 f   libucrt:per_thread_data.obj
 0001:0001c81b       ?filt$0@?0???R<lambda_6e4b09c48022b2350581041d5f6b0c4c>@@QEBA@XZ@4HA 000000018001d81b f   libucrt:exit.obj
 0001:0001c836       ?fin$0@?0???$?RV<lambda_886d6c58226a84441f68b9f2b8217b83>@@AEAV<lambda_ab61a845afdef5b7c387490eaf3616ee>@@V<lambda_f7f22ab5edc0698d5f6905b0d3f44752>@@@?$__crt_seh_guarded_call@X@@QEAAX$$QEAV<lambda_886d6c58226a84441f68b9f2b8217b83>@@AEAV<lambda_ab61a845afdef5b7c387490eaf3616ee>@@$$QEAV<lambda_f7f22ab5edc0698d5f6905b0d3f44752>@@@Z@4HA 000000018001d836 f   libucrt:fflush.obj
 0001:0001c853       raise$fin$0                000000018001d853 f   libucrt:signal.obj
 0001:0001c874       ?fin$0@?0???$?RV<lambda_410d79af7f07d98d83a3f525b3859a53>@@AEAV<lambda_3e16ef9562a7dcce91392c22ab16ea36>@@V<lambda_38119f0e861e05405d8a144b9b982f0a>@@@?$__crt_seh_guarded_call@X@@QEAAX$$QEAV<lambda_410d79af7f07d98d83a3f525b3859a53>@@AEAV<lambda_3e16ef9562a7dcce91392c22ab16ea36>@@$$QEAV<lambda_38119f0e861e05405d8a144b9b982f0a>@@@Z@4HA 000000018001d874 f   libucrt:wsetlocale.obj
 0001:0001c88e       __acrt_initialize_lowio$fin$0 000000018001d88e f   libucrt:ioinit.obj
 0001:0001c88e       __acrt_lowio_ensure_fh_exists$fin$0 000000018001d88e f   libucrt:osfinfo.obj
 0001:0001c8a7       ?fin$0@?0??update_thread_multibyte_data_internal@@YAPEAU__crt_multibyte_data@@QEAU__acrt_ptd@@QEAPEAU1@@Z@4HA 000000018001d8a7 f   libucrt:mbctype.obj
 0001:0001c8c0       __acrt_update_thread_locale_data$fin$0 000000018001d8c0 f   libucrt:locale_refcounting.obj
 0001:0001c8d9       _fcloseall$fin$0           000000018001d8d9 f   libucrt:closeall.obj
 0001:0001c8f2       ?fin$0@?0???$?RV<lambda_a37b2b86f63e897a80ea819b0eb08c01>@@AEAV<lambda_38ce7e780aa69e748d6df282ebc68efe>@@V<lambda_99fb1378e971ab6e7edea83e3a7a83a2>@@@?$__crt_seh_guarded_call@H@@QEAAH$$QEAV<lambda_a37b2b86f63e897a80ea819b0eb08c01>@@AEAV<lambda_38ce7e780aa69e748d6df282ebc68efe>@@$$QEAV<lambda_99fb1378e971ab6e7edea83e3a7a83a2>@@@Z@4HA 000000018001d8f2 f   libucrt:commit.obj
 0001:0001c8f2       ?fin$0@?0???$?RV<lambda_751a882b2c74d4b022dec766aa51a29a>@@AEAV<lambda_628dfdc04ba53c8bfc02c9951375f3f5>@@V<lambda_f6c7be5f7998530c34de24c7437d6b54>@@@?$__crt_seh_guarded_call@H@@QEAAH$$QEAV<lambda_751a882b2c74d4b022dec766aa51a29a>@@AEAV<lambda_628dfdc04ba53c8bfc02c9951375f3f5>@@$$QEAV<lambda_f6c7be5f7998530c34de24c7437d6b54>@@@Z@4HA 000000018001d8f2 f   libucrt:close.obj
 0001:0001c90c       ?fin$0@?0???$common_lseek@_J@@YA_JH_JH@Z@4HA 000000018001d90c f   libucrt:lseek.obj
 0001:0001c90c       _write$fin$0               000000018001d90c f   libucrt:write.obj
 0001:0001c923       fclose$fin$0               000000018001d923 f   libucrt:fclose.obj
 0001:0001c93b       ?dtor$0@?0??_wcstombs_l_helper@@YA_KPEADPEB_W_KPEAU__crt_locale_pointers@@@Z@4HA 000000018001d93b f   libucrt:wcstombs.obj
 0001:0001c947       _ctrlfp$filt$0             000000018001d947 f   libucrt:fpctrl.obj
 0001:0001c980       _IsNonwritableInCurrentImage$filt$0 000000018001d980 f   LIBCMT:pesect.obj
 0001:0001c9a0       ??__F?g_queue@CallbackInfo@@0V?$queue@PEAVThreadedCallbackInvokation@@V?$deque@PEAVThreadedCallbackInvokation@@V?$allocator@PEAVThreadedCallbackInvokation@@@std@@@std@@@std@@A@@YAXXZ 000000018001d9a0 f   callback_info.obj
 0002:00000470       ??g_queue$initializer$@CallbackInfo@@0P6AXXZEA@@3P6AXXZEA 000000018001e470     callback_info.obj
 0002:00000590       GS_ExceptionPointers       000000018001e590     LIBCMT:gs_report.obj
 0002:000005d0       ?ExceptionTemplate@?1??_CxxThrowException@@9@4UEHExceptionRecord@@B 000000018001e5d0     libvcruntime:throw.obj
 0002:00000610       ?module_names@?A0x89697e75@@3QBQEB_WB 000000018001e610     libvcruntime:winapi_downlevel.obj
 0002:000006e0       ?candidate_modules@?1??try_get_FlsAlloc@@YAP6AKP6AXPEAX@Z@ZXZ@4QBW4module_id@?A0x89697e75@@B 000000018001e6e0     libvcruntime:winapi_downlevel.obj
 0002:000006f8       ?candidate_modules@?1??try_get_FlsFree@@YAP6AHK@ZXZ@4QBW4module_id@?A0x89697e75@@B 000000018001e6f8     libvcruntime:winapi_downlevel.obj
 0002:00000708       ?candidate_modules@?1??try_get_FlsGetValue@@YAP6APEAXK@ZXZ@4QBW4module_id@?A0x89697e75@@B 000000018001e708     libvcruntime:winapi_downlevel.obj
 0002:00000720       ?candidate_modules@?1??try_get_FlsSetValue@@YAP6AHKPEAX@ZXZ@4QBW4module_id@?A0x89697e75@@B 000000018001e720     libvcruntime:winapi_downlevel.obj
 0002:00000738       ?candidate_modules@?1??try_get_InitializeCriticalSectionEx@@YAP6AHPEAU_RTL_CRITICAL_SECTION@@KK@ZXZ@4QBW4module_id@?A0x89697e75@@B 000000018001e738     libvcruntime:winapi_downlevel.obj
 0002:00000760       ?tokenTable@@3QBQEBDB      000000018001e760     libvcruntime:undname.obj
 0002:000007d8       ?rttiTable@@3QBQEBDB       000000018001e7d8     libvcruntime:undname.obj
 0002:00000800       ?nameTable@@3QBQEBDB       000000018001e800     libvcruntime:undname.obj
 0002:00001110       ?ExceptionTemplate@?1??_UnwindNestedFrames@@9@4U_EXCEPTION_RECORD@@B 000000018001f110     libvcruntime:risctrnsctrl.obj
 0002:000011e0       ?errtable@@3QBUerrentry@?A0x31fdb9ec@@B 000000018001f1e0     libucrt:errno.obj
 0002:000017a0       __acrt_initializers        000000018001f7a0     libucrt:initialization.obj
 0002:00001f80       ?_mb_locale_names@@3QBQEB_WB 000000018001ff80     libucrt:mbctype.obj
 0002:00001fe0       ?module_names@?A0x391cf84c@@3QBQEB_WB 000000018001ffe0     libucrt:winapi_thunks.obj
 0002:000024d8       ?candidate_modules@?1??try_get_FlsAlloc@@YAP6AKP6AXPEAX@Z@ZXZ@4QBW4module_id@?A0x391cf84c@@B 00000001800204d8     libucrt:winapi_thunks.obj
 0002:000024e0       ?candidate_modules@?1??try_get_FlsFree@@YAP6AHK@ZXZ@4QBW4module_id@?A0x391cf84c@@B 00000001800204e0     libucrt:winapi_thunks.obj
 0002:000024e8       ?candidate_modules@?1??try_get_FlsGetValue@@YAP6APEAXK@ZXZ@4QBW4module_id@?A0x391cf84c@@B 00000001800204e8     libucrt:winapi_thunks.obj
 0002:000024f0       ?candidate_modules@?1??try_get_FlsSetValue@@YAP6AHKPEAX@ZXZ@4QBW4module_id@?A0x391cf84c@@B 00000001800204f0     libucrt:winapi_thunks.obj
 0002:000024f8       ?candidate_modules@?1??try_get_GetActiveWindow@@YAP6APEAUHWND__@@XZXZ@4QBW4module_id@?A0x391cf84c@@B 00000001800204f8     libucrt:winapi_thunks.obj
 0002:00002510       ?candidate_modules@?1??try_get_GetLastActivePopup@@YAP6APEAUHWND__@@PEAU2@@ZXZ@4QBW4module_id@?A0x391cf84c@@B 0000000180020510     libucrt:winapi_thunks.obj
 0002:00002530       ?candidate_modules@?1??try_get_GetProcessWindowStation@@YAP6APEAUHWINSTA__@@XZXZ@4QBW4module_id@?A0x391cf84c@@B 0000000180020530     libucrt:winapi_thunks.obj
 0002:00002550       ?candidate_modules@?1??try_get_GetUserObjectInformationW@@YAP6AHPEAXH0KPEAK@ZXZ@4QBW4module_id@?A0x391cf84c@@B 0000000180020550     libucrt:winapi_thunks.obj
 0002:00002578       ?candidate_modules@?1??try_get_InitializeCriticalSectionEx@@YAP6AHPEAU_RTL_CRITICAL_SECTION@@KK@ZXZ@4QBW4module_id@?A0x391cf84c@@B 0000000180020578     libucrt:winapi_thunks.obj
 0002:00002580       ?candidate_modules@?1??try_get_LCMapStringEx@@YAP6AHPEB_WK0HPEA_WHPEAU_nlsversioninfo@@PEAX_J@ZXZ@4QBW4module_id@?A0x391cf84c@@B 0000000180020580     libucrt:winapi_thunks.obj
 0002:00002598       ?candidate_modules@?1??try_get_LocaleNameToLCID@@YAP6AKPEB_WK@ZXZ@4QBW4module_id@?A0x391cf84c@@B 0000000180020598     libucrt:winapi_thunks.obj
 0002:000025b8       ?candidate_modules@?1??try_get_MessageBoxA@@YAP6AHPEAUHWND__@@PEBD1I@ZXZ@4QBW4module_id@?A0x391cf84c@@B 00000001800205b8     libucrt:winapi_thunks.obj
 0002:000025d0       ?candidate_modules@?1??try_get_MessageBoxW@@YAP6AHPEAUHWND__@@PEB_W1I@ZXZ@4QBW4module_id@?A0x391cf84c@@B 00000001800205d0     libucrt:winapi_thunks.obj
 0002:000025e4       ?candidate_modules@?1??try_get_AppPolicyGetProcessTerminationMethod@@YAP6AJPEAXPEAW4AppPolicyProcessTerminationMethod@@@ZXZ@4QBW4module_id@?A0x391cf84c@@B 00000001800205e4     libucrt:winapi_thunks.obj
 0002:00002610       ?candidate_modules@?1??try_get_AppPolicyGetShowDeveloperDiagnostic@@YAP6AJPEAXPEAW4AppPolicyShowDeveloperDiagnostic@@@ZXZ@4QBW4module_id@?A0x391cf84c@@B 0000000180020610     libucrt:winapi_thunks.obj
 0002:0000263c       ?candidate_modules@?1??try_get_AppPolicyGetWindowingModel@@YAP6AJPEAXPEAW4AppPolicyWindowingModel@@@ZXZ@4QBW4module_id@?A0x391cf84c@@B 000000018002063c     libucrt:winapi_thunks.obj
 0002:00003870       ?LcidToLocaleNameTable@?A0x881e4c05@@3QBULcidToLocaleName@1@B 0000000180021870     libucrt:lcidtoname_downlevel.obj
 0002:000052d0       ?LocaleNameToIndexTable@?A0x881e4c05@@3QBULocaleNameIndex@1@B 00000001800232d0     libucrt:lcidtoname_downlevel.obj
 0002:00006b70       __real_ninf                0000000180024b70     libucrt:log10.obj
 0002:00006b80       __real_inf                 0000000180024b80     libucrt:log10.obj
 0002:00006b90       __real_neg_qnan            0000000180024b90     libucrt:log10.obj
 0002:00006ba0       __real_qnanbit             0000000180024ba0     libucrt:log10.obj
 0002:00006bb0       __int_1023                 0000000180024bb0     libucrt:log10.obj
 0002:00006bc0       __mask_001                 0000000180024bc0     libucrt:log10.obj
 0002:00006bd0       __mask_mant                0000000180024bd0     libucrt:log10.obj
 0002:00006be0       __mask_mant_top8           0000000180024be0     libucrt:log10.obj
 0002:00006bf0       __mask_mant9               0000000180024bf0     libucrt:log10.obj
 0002:00006c00       __real_log10_e             0000000180024c00     libucrt:log10.obj
 0002:00006c10       __real_log10_e_lead        0000000180024c10     libucrt:log10.obj
 0002:00006c20       __real_log10_e_tail        0000000180024c20     libucrt:log10.obj
 0002:00006c30       __real_log10_2_lead        0000000180024c30     libucrt:log10.obj
 0002:00006c40       __real_log10_2_tail        0000000180024c40     libucrt:log10.obj
 0002:00006c50       __real_two                 0000000180024c50     libucrt:log10.obj
 0002:00006c60       __real_one                 0000000180024c60     libucrt:log10.obj
 0002:00006c70       __real_half                0000000180024c70     libucrt:log10.obj
 0002:00006c80       __mask_100                 0000000180024c80     libucrt:log10.obj
 0002:00006c90       __real_1_over_512          0000000180024c90     libucrt:log10.obj
 0002:00006ca0       __real_1_over_2            0000000180024ca0     libucrt:log10.obj
 0002:00006cb0       __real_1_over_3            0000000180024cb0     libucrt:log10.obj
 0002:00006cc0       __real_1_over_4            0000000180024cc0     libucrt:log10.obj
 0002:00006cd0       __real_1_over_5            0000000180024cd0     libucrt:log10.obj
 0002:00006ce0       __real_1_over_6            0000000180024ce0     libucrt:log10.obj
 0002:00006cf0       __real_neg_1023            0000000180024cf0     libucrt:log10.obj
 0002:00006d00       __mask_2045                0000000180024d00     libucrt:log10.obj
 0002:00006d10       __real_threshold           0000000180024d10     libucrt:log10.obj
 0002:00006d20       __real_near_one_lt         0000000180024d20     libucrt:log10.obj
 0002:00006d30       __real_near_one_gt         0000000180024d30     libucrt:log10.obj
 0002:00006d40       __real_min_norm            0000000180024d40     libucrt:log10.obj
 0002:00006d50       __real_notsign             0000000180024d50     libucrt:log10.obj
 0002:00006d60       __real_ca1                 0000000180024d60     libucrt:log10.obj
 0002:00006d70       __real_ca2                 0000000180024d70     libucrt:log10.obj
 0002:00006d80       __real_ca3                 0000000180024d80     libucrt:log10.obj
 0002:00006d90       __real_ca4                 0000000180024d90     libucrt:log10.obj
 0002:00006da0       __mask_lower               0000000180024da0     libucrt:log10.obj
 0002:00006db0       __flag_x_zero              0000000180024db0     libucrt:log10.obj
 0002:00006db4       __flag_x_neg               0000000180024db4     libucrt:log10.obj
 0002:00006db8       __flag_x_nan               0000000180024db8     libucrt:log10.obj
 0002:00006dc0       $cppxdata$?_wcstombs_l_helper@@YA_KPEADPEB_W_KPEAU__crt_locale_pointers@@@Z 0000000180024dc0     libucrt:wcstombs.obj
 0002:00008640       __real@433fffffffffffff    0000000180026640     libucrt:fpsr.obj
 0002:00008648       __real@c33fffffffffffff    0000000180026648     libucrt:fpsr.obj
 0002:00009538       $unwind$?FunctionCallbackWrapper@imp@Nan@@YAXAEBV?$FunctionCallbackInfo@VValue@v8@@@v8@@@Z 0000000180027538     ffi.obj
 0002:00009548       $unwind$?ThrowError@Nan@@YAXPEBD@Z 0000000180027548     ffi.obj
 0002:00009550       $unwind$?Call@Callback@Nan@@QEBA?AV?$Local@VValue@v8@@@v8@@HQEAV34@@Z 0000000180027550     ffi.obj
 0002:00009564       $unwind$?WrapPointer@@YA?AV?$Local@VValue@v8@@@v8@@PEAD_K@Z 0000000180027564     ffi.obj
 0002:00009574       $unwind$__acrt_initialize_multibyte 0000000180027574     libucrt:mbctype.obj
 0002:00009574       $unwind$__GSHandlerCheck   0000000180027574     LIBCMT:_gshandler_.obj
 0002:00009574       $unwind$abort              0000000180027574     libucrt:abort.obj
 0002:00009574       $unwind$__acrt_uninitialize 0000000180027574     libucrt:initialization.obj
 0002:00009574       $unwind$__vcrt_freefls     0000000180027574     libvcruntime:per_thread_data.obj
 0002:00009574       $unwind$__acrt_uninitialize_critical 0000000180027574     libucrt:initialization.obj
 0002:00009574       $unwind$__acrt_update_thread_multibyte_data 0000000180027574     libucrt:mbctype.obj
 0002:00009574       $unwind$__vcrt_getptd      0000000180027574     libvcruntime:per_thread_data.obj
 0002:00009574       $unwind$__acrt_initialize_command_line 0000000180027574     libucrt:argv_data.obj
 0002:00009574       $unwind$_isatty            0000000180027574     libucrt:isatty.obj
 0002:00009574       $unwind$initialize_c       0000000180027574     libucrt:initialization.obj
 0002:00009574       $unwind$__vcrt_uninitialize_critical 0000000180027574     libvcruntime:initialization.obj
 0002:00009574       $unwind$__vcrt_uninitialize 0000000180027574     libvcruntime:initialization.obj
 0002:00009574       $unwind$__vcrt_uninitialize_ptd 0000000180027574     libvcruntime:per_thread_data.obj
 0002:00009574       $unwind$__vcrt_initialize  0000000180027574     libvcruntime:initialization.obj
 0002:00009574       $unwind$__vcrt_thread_attach 0000000180027574     libvcruntime:initialization.obj
 0002:00009574       $unwind$__acrt_thread_attach 0000000180027574     libucrt:initialization.obj
 0002:00009574       $unwind$__FrameUnwindFilter 0000000180027574     libvcruntime:ehhelpers.obj
 0002:00009574       $unwind$__acrt_DownlevelLocaleNameToLCID 0000000180027574     libucrt:lcidtoname_downlevel.obj
 0002:00009574       $unwind$uninitialize_environment 0000000180027574     libucrt:initialization.obj
 0002:00009574       $unwind$?WatcherCallback@CallbackInfo@@SAXPEAUuv_async_s@@H@Z 0000000180027574     callback_info.obj
 0002:00009574       $unwind$uninitialize_allocated_io_buffers 0000000180027574     libucrt:initialization.obj
 0002:00009574       $unwind$?state_case_size@?$output_processor@_WV?$stream_output_adapter@_W@__crt_stdio_output@@V?$standard_base@_WV?$stream_output_adapter@_W@__crt_stdio_output@@@2@@__crt_stdio_output@@AEAA_NXZ 0000000180027574     libucrt:output.obj
 0002:00009574       $unwind$__pctype_func      0000000180027574     libucrt:ctype.obj
 0002:00009574       $unwind$tolower            0000000180027574     libucrt:tolower_toupper.obj
 0002:00009574       $unwind$_msize_base        0000000180027574     libucrt:msize.obj
 0002:00009574       $unwind$?__GetCurrentState@@YAHPEA_KPEAU_xDISPATCHER_CONTEXT@@PEBU_s_FuncInfo@@@Z 0000000180027574     libvcruntime:riscehstate.obj
 0002:00009574       $unwind$?initialize_multibyte@@YAHXZ 0000000180027574     libucrt:multibyte_initializer.obj
 0002:00009574       $unwind$?node_ffi_errno@@YAHXZ 0000000180027574     ffi.obj
 0002:00009574       $unwind$?state_case_size@?$output_processor@DV?$string_output_adapter@D@__crt_stdio_output@@V?$standard_base@DV?$string_output_adapter@D@__crt_stdio_output@@@2@@__crt_stdio_output@@AEAA_NXZ 0000000180027574     libucrt:output.obj
 0002:00009574       $unwind$__acrt_initialize_heap 0000000180027574     libucrt:heap_handle.obj
 0002:00009574       $unwind$__scrt_dllmain_before_initialize_c 0000000180027574     LIBCMT:utility.obj
 0002:00009574       $unwind$?state_case_normal_tchar@?$output_processor@DV?$string_output_adapter@D@__crt_stdio_output@@V?$standard_base@DV?$string_output_adapter@D@__crt_stdio_output@@@2@@__crt_stdio_output@@AEAA_ND@Z 0000000180027574     libucrt:output.obj
 0002:00009574       $unwind$?_Xlen@?$deque@PEAVThreadedCallbackInvokation@@V?$allocator@PEAVThreadedCallbackInvokation@@@std@@@std@@IEBAXXZ 0000000180027574     callback_info.obj
 0002:00009574       $unwind$??__E?g_queue@CallbackInfo@@0V?$queue@PEAVThreadedCallbackInvokation@@V?$deque@PEAVThreadedCallbackInvokation@@V?$allocator@PEAVThreadedCallbackInvokation@@@std@@@std@@@std@@A@@YAXXZ 0000000180027574     callback_info.obj
 0002:00009574       $unwind$__dcrt_terminate_console_output 0000000180027574     libucrt:initcon.obj
 0002:00009574       $unwind$dlerror            0000000180027574     win32-dlfcn.obj
 0002:00009574       $unwind$_fileno            0000000180027574     libucrt:fileno.obj
 0002:00009574       $unwind$_errno             0000000180027574     libucrt:errno.obj
 0002:00009574       $unwind$ffi_prep_cif_core  0000000180027574     libffi:prep_cif.obj
 0002:00009574       $unwind$__scrt_dllmain_after_initialize_c 0000000180027574     LIBCMT:utility.obj
 0002:00009574       $unwind$__report_rangecheckfailure 0000000180027574     LIBCMT:gs_report.obj
 0002:00009574       $unwind$__scrt_dllmain_uninitialize_c 0000000180027574     LIBCMT:utility.obj
 0002:00009574       $unwind$__scrt_dllmain_uninitialize_critical 0000000180027574     LIBCMT:utility.obj
 0002:00009574       $unwind$__scrt_dllmain_crt_thread_attach 0000000180027574     LIBCMT:utility.obj
 0002:00009574       $unwind$__acrt_thread_detach 0000000180027574     libucrt:initialization.obj
 0002:00009574       $unwind$__vcrt_thread_detach 0000000180027574     libvcruntime:initialization.obj
 0002:00009574       $unwind$_set_errno_from_matherr 0000000180027574     libucrt:fpexcept.obj
 0002:00009574       $unwind$__vcrt_initialize_ptd 0000000180027574     libvcruntime:per_thread_data.obj
 0002:00009574       $unwind$_GetImageBase      0000000180027574     libvcruntime:risctrnsctrl.obj
 0002:00009574       $unwind$__dcrt_uninitialize_environments_nolock 0000000180027574     libucrt:environment_initialization.obj
 0002:00009574       $unwind$_GetThrowImageBase 0000000180027574     libvcruntime:risctrnsctrl.obj
 0002:00009574       $unwind$?dllmain_crt_dispatch@@YAHQEAUHINSTANCE__@@KQEAX@Z 0000000180027574     LIBCMT:dll_dllmain.obj
 0002:00009574       $unwind$??$uninitialize_environment_internal@D@@YAXAEAPEAPEAD@Z 0000000180027574     libucrt:environment_initialization.obj
 0002:00009574       $unwind$??$uninitialize_environment_internal@_W@@YAXAEAPEAPEA_W@Z 0000000180027574     libucrt:environment_initialization.obj
 0002:00009574       $unwind$_statfp            0000000180027574     libucrt:fpctrl.obj
 0002:00009574       $unwind$__acrt_initialize_ptd 0000000180027574     libucrt:per_thread_data.obj
 0002:00009574       $unwind$_invoke_watson     0000000180027574     libucrt:invalid_parameter.obj
 0002:00009574       $unwind$?__c32rtomb_utf8@__crt_mbstring@@YA_KPEAD_UPEAU_Mbstatet@@@Z 0000000180027574     libucrt:c32rtomb.obj
 0002:00009574       $unwind$__scrt_dllmain_crt_thread_detach 0000000180027574     LIBCMT:utility.obj
 0002:00009574       $unwind$_set_error_mode    0000000180027574     libucrt:set_error_mode.obj
 0002:00009574       $unwind$__scrt_acquire_startup_lock 0000000180027574     LIBCMT:utility.obj
 0002:00009574       $unwind$?state_case_size@?$output_processor@_WV?$string_output_adapter@_W@__crt_stdio_output@@V?$standard_base@_WV?$string_output_adapter@_W@__crt_stdio_output@@@2@@__crt_stdio_output@@AEAA_NXZ 0000000180027574     libucrt:output.obj
 0002:00009574       $unwind$atexit             0000000180027574     LIBCMT:utility.obj
 0002:00009574       $unwind$__acrt_release_locale_ref 0000000180027574     libucrt:locale_refcounting.obj
 0002:00009574       $unwind$__acrt_uninitialize_ptd 0000000180027574     libucrt:per_thread_data.obj
 0002:00009574       $unwind$_get_osfhandle     0000000180027574     libucrt:osfinfo.obj
 0002:00009574       $unwind$dlfree             0000000180027574     libffi:closures.obj
 0002:00009574       $unwind$__scrt_initialize_default_local_stdio_options 0000000180027574     LIBCMT:default_local_stdio_options.obj
 0002:00009574       $unwind$__doserrno         0000000180027574     libucrt:errno.obj
 0002:0000957c       $unwind$?InitializeStaticFunctions@FFI@@SAXV?$Local@VObject@v8@@@v8@@@Z 000000018002757c     ffi.obj
 0002:0000958c       $unwind$?InitializeBindings@FFI@@SAXV?$Local@VObject@v8@@@v8@@@Z 000000018002758c     ffi.obj
 0002:000095a0       $unwind$?FFIPrepCif@FFI@@KAXAEBV?$FunctionCallbackInfo@VValue@v8@@@Nan@@@Z 00000001800275a0     ffi.obj
 0002:000095a0       $unwind$?FFIPrepCifVar@FFI@@KAXAEBV?$FunctionCallbackInfo@VValue@v8@@@Nan@@@Z 00000001800275a0     ffi.obj
 0002:000095ac       $chain$2$?FFIPrepCif@FFI@@KAXAEBV?$FunctionCallbackInfo@VValue@v8@@@Nan@@@Z 00000001800275ac     ffi.obj
 0002:000095c8       $chain$3$?FFIPrepCif@FFI@@KAXAEBV?$FunctionCallbackInfo@VValue@v8@@@Nan@@@Z 00000001800275c8     ffi.obj
 0002:000095d8       $chain$2$?FFIPrepCifVar@FFI@@KAXAEBV?$FunctionCallbackInfo@VValue@v8@@@Nan@@@Z 00000001800275d8     ffi.obj
 0002:000095f4       $chain$3$?FFIPrepCifVar@FFI@@KAXAEBV?$FunctionCallbackInfo@VValue@v8@@@Nan@@@Z 00000001800275f4     ffi.obj
 0002:00009604       $unwind$?FFICall@FFI@@KAXAEBV?$FunctionCallbackInfo@VValue@v8@@@Nan@@@Z 0000000180027604     ffi.obj
 0002:00009618       $unwind$?FFICallAsync@FFI@@KAXAEBV?$FunctionCallbackInfo@VValue@v8@@@Nan@@@Z 0000000180027618     ffi.obj
 0002:00009630       $unwind$?FinishAsyncFFICall@FFI@@KAXPEAUuv_work_s@@@Z 0000000180027630     ffi.obj
 0002:00009644       $unwind$?init@@YAXV?$Local@VObject@v8@@@v8@@@Z 0000000180027644     ffi.obj
 0002:00009654       $unwind$??$New@VFunctionTemplate@v8@@@Nan@@YA?AV?$Local@VFunctionTemplate@v8@@@v8@@P6AXAEBV?$FunctionCallbackInfo@VValue@v8@@@0@@ZV?$Local@VValue@v8@@@2@@Z 0000000180027654     ffi.obj
 0002:00009668       $chain$0$??$New@VFunctionTemplate@v8@@@Nan@@YA?AV?$Local@VFunctionTemplate@v8@@@v8@@P6AXAEBV?$FunctionCallbackInfo@VValue@v8@@@0@@ZV?$Local@VValue@v8@@@2@@Z 0000000180027668     ffi.obj
 0002:0000967c       $chain$1$??$New@VFunctionTemplate@v8@@@Nan@@YA?AV?$Local@VFunctionTemplate@v8@@@v8@@P6AXAEBV?$FunctionCallbackInfo@VValue@v8@@@0@@ZV?$Local@VValue@v8@@@2@@Z 000000018002767c     ffi.obj
 0002:00009690       $chain$2$??$New@VFunctionTemplate@v8@@@Nan@@YA?AV?$Local@VFunctionTemplate@v8@@@v8@@P6AXAEBV?$FunctionCallbackInfo@VValue@v8@@@0@@ZV?$Local@VValue@v8@@@2@@Z 0000000180027690     ffi.obj
 0002:000096a0       $chain$3$??$New@VFunctionTemplate@v8@@@Nan@@YA?AV?$Local@VFunctionTemplate@v8@@@v8@@P6AXAEBV?$FunctionCallbackInfo@VValue@v8@@@0@@ZV?$Local@VValue@v8@@@2@@Z 00000001800276a0     ffi.obj
 0002:000096b0       $unwind$??$common_initialize_environment_nolock@D@@YAHXZ 00000001800276b0     libucrt:environment_initialization.obj
 0002:000096b0       $unwind$?replace_current_thread_locale_nolock@@YAXQEAU__acrt_ptd@@QEAU__crt_locale_data@@@Z 00000001800276b0     libucrt:per_thread_data.obj
 0002:000096b0       $unwind$__acrt_getptd_noexit 00000001800276b0     libucrt:per_thread_data.obj
 0002:000096b0       $unwind$__acrt_getptd      00000001800276b0     libucrt:per_thread_data.obj
 0002:000096b0       $unwind$initialize_aggregate 00000001800276b0     libffi:prep_cif.obj
 0002:000096b0       $unwind$?force_decimal_point@__crt_stdio_output@@YAXPEADQEAU__crt_locale_pointers@@@Z 00000001800276b0     libucrt:output.obj
 0002:000096b0       $unwind$__acrt_uninitialize_lowio 00000001800276b0     libucrt:ioinit.obj
 0002:000096b0       $unwind$wcsncat_s          00000001800276b0     libucrt:wcsncat_s.obj
 0002:000096b0       $unwind$__vcrt_FlsSetValue 00000001800276b0     libvcruntime:winapi_downlevel.obj
 0002:000096b0       $unwind$strncpy_s          00000001800276b0     libucrt:strncpy_s.obj
 0002:000096b0       $unwind$?closure_pointer_cb@@YAXPEADPEAX@Z 00000001800276b0     callback_info.obj
 0002:000096b0       $unwind$_initterm_e        00000001800276b0     libucrt:initterm.obj
 0002:000096b0       $unwind$__acrt_stdio_begin_temporary_buffering_nolock 00000001800276b0     libucrt:_sftbuf.obj
 0002:000096b0       $unwind$??_Gbad_array_new_length@std@@UEAAPEAXI@Z 00000001800276b0     LIBCMT:throw_bad_alloc.obj
 0002:000096b0       $unwind$_RTC_Initialize    00000001800276b0     LIBCMT:_initsect_.obj
 0002:000096b0       $unwind$_RTC_Terminate     00000001800276b0     LIBCMT:_initsect_.obj
 0002:000096b0       $unwind$__acrt_stdio_allocate_buffer_nolock 00000001800276b0     libucrt:_getbuf.obj
 0002:000096b0       $unwind$??_Glength_error@std@@UEAAPEAXI@Z 00000001800276b0     libcpmt:xthrow.obj
 0002:000096b0       $unwind$_close_nolock      00000001800276b0     libucrt:close.obj
 0002:000096b0       $unwind$_updatetlocinfoEx_nolock 00000001800276b0     libucrt:locale_refcounting.obj
 0002:000096b0       $unwind$__acrt_fp_strflt_to_string 00000001800276b0     libucrt:_fptostr.obj
 0002:000096b0       $unwind$_fclose_nolock     00000001800276b0     libucrt:fclose.obj
 0002:000096b0       $unwind$??_Glogic_error@std@@UEAAPEAXI@Z 00000001800276b0     libcpmt:xthrow.obj
 0002:000096b0       $unwind$dlclose            00000001800276b0     win32-dlfcn.obj
 0002:000096b0       $unwind$__acrt_FlsSetValue 00000001800276b0     libucrt:winapi_thunks.obj
 0002:000096b0       $unwind$__acrt_LocaleNameToLCID 00000001800276b0     libucrt:winapi_thunks.obj
 0002:000096b0       $unwind$??_Gbad_alloc@std@@UEAAPEAXI@Z 00000001800276b0     libcpmt:xthrow.obj
 0002:000096b0       $unwind$__acrt_execute_uninitializers 00000001800276b0     libucrt:shared_initialization.obj
 0002:000096b0       $unwind$_realloc_base      00000001800276b0     libucrt:realloc_base.obj
 0002:000096b0       $unwind$??_Gexception@std@@UEAAPEAXI@Z 00000001800276b0     libcpmt:xthrow.obj
 0002:000096b0       $unwind$?__SetUnwindTryBlock@@YAXPEA_KPEAU_xDISPATCHER_CONTEXT@@PEBU_s_FuncInfo@@H@Z 00000001800276b0     libvcruntime:riscehstate.obj
 0002:000096b0       $unwind$?type_case_c_tchar@?$output_processor@DV?$string_output_adapter@D@__crt_stdio_output@@V?$standard_base@DV?$string_output_adapter@D@__crt_stdio_output@@@2@@__crt_stdio_output@@AEAA_ND@Z 00000001800276b0     libucrt:output.obj
 0002:000096b0       $unwind$??__F?g_queue@CallbackInfo@@0V?$queue@PEAVThreadedCallbackInvokation@@V?$deque@PEAVThreadedCallbackInvokation@@V?$allocator@PEAVThreadedCallbackInvokation@@@std@@@std@@@std@@A@@YAXXZ 00000001800276b0     callback_info.obj
 0002:000096b0       $unwind$__acrt_errno_map_os_error 00000001800276b0     libucrt:errno.obj
 0002:000096b0       $unwind$__acrt_can_show_message_box 00000001800276b0     libucrt:winapi_thunks.obj
 0002:000096b0       $unwind$??_Gbad_exception@std@@UEAAPEAXI@Z 00000001800276b0     libvcruntime:frame.obj
 0002:000096b0       $unwind$_FindAndUnlinkFrame 00000001800276b0     libvcruntime:risctrnsctrl.obj
 0002:000096bc       $unwind$?DispatchToV8@CallbackInfo@@KAXPEAU_callback_info@@PEAXPEAPEAX_N@Z 00000001800276bc     callback_info.obj
 0002:000096d4       $chain$0$?DispatchToV8@CallbackInfo@@KAXPEAU_callback_info@@PEAXPEAPEAX_N@Z 00000001800276d4     callback_info.obj
 0002:000096e8       $chain$1$?DispatchToV8@CallbackInfo@@KAXPEAU_callback_info@@PEAXPEAPEAX_N@Z 00000001800276e8     callback_info.obj
 0002:000096f8       $chain$2$?WatcherCallback@CallbackInfo@@SAXPEAUuv_async_s@@H@Z 00000001800276f8     callback_info.obj
 0002:00009714       $chain$3$?WatcherCallback@CallbackInfo@@SAXPEAUuv_async_s@@H@Z 0000000180027714     callback_info.obj
 0002:00009724       $unwind$?Callback@CallbackInfo@@KAXAEBV?$FunctionCallbackInfo@VValue@v8@@@Nan@@@Z 0000000180027724     callback_info.obj
 0002:0000972c       $chain$4$?Callback@CallbackInfo@@KAXAEBV?$FunctionCallbackInfo@VValue@v8@@@Nan@@@Z 000000018002772c     callback_info.obj
 0002:00009750       $chain$6$?Callback@CallbackInfo@@KAXAEBV?$FunctionCallbackInfo@VValue@v8@@@Nan@@@Z 0000000180027750     callback_info.obj
 0002:00009768       $chain$7$?Callback@CallbackInfo@@KAXAEBV?$FunctionCallbackInfo@VValue@v8@@@Nan@@@Z 0000000180027768     callback_info.obj
 0002:0000977c       $chain$8$?Callback@CallbackInfo@@KAXAEBV?$FunctionCallbackInfo@VValue@v8@@@Nan@@@Z 000000018002777c     callback_info.obj
 0002:0000978c       $chain$10$?Callback@CallbackInfo@@KAXAEBV?$FunctionCallbackInfo@VValue@v8@@@Nan@@@Z 000000018002778c     callback_info.obj
 0002:000097b4       $chain$11$?Callback@CallbackInfo@@KAXAEBV?$FunctionCallbackInfo@VValue@v8@@@Nan@@@Z 00000001800277b4     callback_info.obj
 0002:000097d8       $unwind$?Invoke@CallbackInfo@@KAXPEAUffi_cif@@PEAXPEAPEAX1@Z 00000001800277d8     callback_info.obj
 0002:000097f0       $unwind$??$common_xtox_s@K_W@@YAHKQEA_W_KI_N@Z 00000001800277f0     libucrt:xtoa.obj
 0002:000097f0       $unwind$?__mbrtowc_utf8@__crt_mbstring@@YA_KPEA_WPEBD_KPEAU_Mbstatet@@@Z 00000001800277f0     libucrt:mbrtowc.obj
 0002:000097f0       $unwind$??0length_error@std@@QEAA@PEBD@Z 00000001800277f0     libcpmt:xthrow.obj
 0002:000097f0       $unwind$?_Growmap@?$deque@PEAVThreadedCallbackInvokation@@V?$allocator@PEAVThreadedCallbackInvokation@@@std@@@std@@IEAAX_K@Z 00000001800277f0     callback_info.obj
 0002:000097f8       $chain$2$?_Growmap@?$deque@PEAVThreadedCallbackInvokation@@V?$allocator@PEAVThreadedCallbackInvokation@@@std@@@std@@IEAAX_K@Z 00000001800277f8     callback_info.obj
 0002:00009814       $chain$4$?_Growmap@?$deque@PEAVThreadedCallbackInvokation@@V?$allocator@PEAVThreadedCallbackInvokation@@@std@@@std@@IEAAX_K@Z 0000000180027814     callback_info.obj
 0002:0000982c       $chain$5$?_Growmap@?$deque@PEAVThreadedCallbackInvokation@@V?$allocator@PEAVThreadedCallbackInvokation@@@std@@@std@@IEAAX_K@Z 000000018002782c     callback_info.obj
 0002:0000983c       $chain$6$?_Growmap@?$deque@PEAVThreadedCallbackInvokation@@V?$allocator@PEAVThreadedCallbackInvokation@@@std@@@std@@IEAAX_K@Z 000000018002783c     callback_info.obj
 0002:0000984c       $chain$7$?_Growmap@?$deque@PEAVThreadedCallbackInvokation@@V?$allocator@PEAVThreadedCallbackInvokation@@@std@@@std@@IEAAX_K@Z 000000018002784c     callback_info.obj
 0002:00009868       $unwind$fwprintf           0000000180027868     libucrt:assert.obj
 0002:00009868       $unwind$sprintf            0000000180027868     win32-dlfcn.obj
 0002:00009874       $unwind$dlopen             0000000180027874     win32-dlfcn.obj
 0002:0000987c       $chain$1$dlopen            000000018002787c     win32-dlfcn.obj
 0002:00009894       $chain$3$dlopen            0000000180027894     win32-dlfcn.obj
 0002:000098ac       $unwind$__acrt_getptd_head 00000001800278ac     libucrt:per_thread_data.obj
 0002:000098ac       $unwind$_malloc_base       00000001800278ac     libucrt:malloc_base.obj
 0002:000098ac       $unwind$__acrt_freeptd     00000001800278ac     libucrt:per_thread_data.obj
 0002:000098ac       $unwind$uninitialize_allocated_memory 00000001800278ac     libucrt:initialization.obj
 0002:000098ac       $unwind$?internal_isupper_l@@YA_NHQEAU__crt_locale_pointers@@@Z 00000001800278ac     libucrt:tolower_toupper.obj
 0002:000098ac       $unwind$??0bad_exception@std@@QEAA@AEBV01@@Z 00000001800278ac     libvcruntime:frame.obj
 0002:000098ac       $unwind$__acrt_uninitialize_stdio 00000001800278ac     libucrt:_file.obj
 0002:000098ac       $unwind$wcscat_s           00000001800278ac     libucrt:wcscat_s.obj
 0002:000098ac       $unwind$_IsExceptionObjectToBeDestroyed 00000001800278ac     libvcruntime:ehhelpers.obj
 0002:000098ac       $unwind$wcscpy_s           00000001800278ac     libucrt:wcscpy_s.obj
 0002:000098ac       $unwind$?ExFilterRethrow@@YAHPEAU_EXCEPTION_POINTERS@@PEAUEHExceptionRecord@@PEAH@Z 00000001800278ac     libvcruntime:frame.obj
 0002:000098ac       $unwind$initialize_pointers 00000001800278ac     libucrt:initialization.obj
 0002:000098ac       $unwind$__acrt_update_locale_info 00000001800278ac     libucrt:locale_update.obj
 0002:000098ac       $unwind$__acrt_stdio_free_buffer_nolock 00000001800278ac     libucrt:_freebuf.obj
 0002:000098ac       $unwind$__acrt_update_multibyte_info 00000001800278ac     libucrt:locale_update.obj
 0002:000098ac       $unwind$strcpy_s           00000001800278ac     libucrt:strcpy_s.obj
 0002:000098ac       $unwind$dlsym              00000001800278ac     win32-dlfcn.obj
 0002:000098ac       $unwind$_fflush_nolock     00000001800278ac     libucrt:fflush.obj
 0002:000098ac       $unwind$??0exception@std@@QEAA@AEBV01@@Z 00000001800278ac     libcpmt:xthrow.obj
 0002:000098ac       $unwind$??0bad_alloc@std@@QEAA@AEBV01@@Z 00000001800278ac     libcpmt:xthrow.obj
 0002:000098ac       $unwind$??0logic_error@std@@QEAA@AEBV01@@Z 00000001800278ac     libcpmt:xthrow.obj
 0002:000098ac       $unwind$?__StateFromIp@@YAHPEBU_s_FuncInfo@@PEAU_xDISPATCHER_CONTEXT@@_K@Z 00000001800278ac     libvcruntime:riscehstate.obj
 0002:000098ac       $unwind$?try_cor_exit_process@@YAXI@Z 00000001800278ac     libucrt:exit.obj
 0002:000098ac       $unwind$??0length_error@std@@QEAA@AEBV01@@Z 00000001800278ac     libcpmt:xthrow.obj
 0002:000098ac       $unwind$??2@YAPEAX_K@Z     00000001800278ac     LIBCMT:new_scalar.obj
 0002:000098ac       $unwind$_onexit            00000001800278ac     LIBCMT:utility.obj
 0002:000098ac       $unwind$__scrt_release_startup_lock 00000001800278ac     LIBCMT:utility.obj
 0002:000098ac       $unwind$?__GetUnwindTryBlock@@YAHPEA_KPEAU_xDISPATCHER_CONTEXT@@PEBU_s_FuncInfo@@@Z 00000001800278ac     libvcruntime:riscehstate.obj
 0002:000098ac       $unwind$__scrt_initialize_crt 00000001800278ac     LIBCMT:utility.obj
 0002:000098ac       $unwind$__scrt_uninitialize_crt 00000001800278ac     LIBCMT:utility.obj
 0002:000098ac       $unwind$?__c16rtomb_utf8@__crt_mbstring@@YA_KPEAD_SPEAU_Mbstatet@@@Z 00000001800278ac     libucrt:c16rtomb.obj
 0002:000098ac       $unwind$_set_statfp        00000001800278ac     libucrt:fpctrl.obj
 0002:000098ac       $unwind$_clrfp             00000001800278ac     libucrt:fpctrl.obj
 0002:000098ac       $unwind$__acrt_initialize_locks 00000001800278ac     libucrt:locks.obj
 0002:000098ac       $unwind$??_Gtype_info@@UEAAPEAXI@Z 00000001800278ac     LIBCMT:std_type_info_static.obj
 0002:000098ac       $unwind$__acrt_uninitialize_locks 00000001800278ac     libucrt:locks.obj
 0002:000098ac       $unwind$_CreateFrameInfo   00000001800278ac     libvcruntime:risctrnsctrl.obj
 0002:000098ac       $unwind$__acrt_allocate_buffer_for_argv 00000001800278ac     libucrt:argv_parsing.obj
 0002:000098ac       $unwind$__acrt_get_process_end_policy 00000001800278ac     libucrt:win_policies.obj
 0002:000098ac       $unwind$__acrt_get_developer_information_policy 00000001800278ac     libucrt:win_policies.obj
 0002:000098ac       $unwind$__acrt_get_windowing_model_policy 00000001800278ac     libucrt:win_policies.obj
 0002:000098ac       $unwind$_calloc_base       00000001800278ac     libucrt:calloc_base.obj
 0002:000098ac       $unwind$__raise_securityfailure 00000001800278ac     LIBCMT:gs_report.obj
 0002:000098ac       $unwind$?exit_or_terminate_process@@YAXI@Z 00000001800278ac     libucrt:exit.obj
 0002:000098ac       $unwind$_SetThrowImageBase 00000001800278ac     libvcruntime:risctrnsctrl.obj
 0002:000098ac       $unwind$_SetImageBase      00000001800278ac     libvcruntime:risctrnsctrl.obj
 0002:000098ac       $unwind$__vcrt_FlsAlloc    00000001800278ac     libvcruntime:winapi_downlevel.obj
 0002:000098ac       $unwind$_clearfp           00000001800278ac     libucrt:ieee.obj
 0002:000098ac       $unwind$??0bad_array_new_length@std@@QEAA@AEBV01@@Z 00000001800278ac     LIBCMT:throw_bad_alloc.obj
 0002:000098ac       $unwind$__std_exception_destroy 00000001800278ac     libvcruntime:std_exception.obj
 0002:000098ac       $unwind$feholdexcept       00000001800278ac     libucrt:feholdexcept.obj
 0002:000098ac       $unwind$fesetenv           00000001800278ac     libucrt:fesetenv.obj
 0002:000098ac       $unwind$fegetenv           00000001800278ac     libucrt:fegetenv.obj
 0002:000098ac       $unwind$__std_type_info_destroy_list 00000001800278ac     libvcruntime:std_type_info.obj
 0002:000098ac       $unwind$?state_case_normal@?$output_processor@DV?$string_output_adapter@D@__crt_stdio_output@@V?$standard_base@DV?$string_output_adapter@D@__crt_stdio_output@@@2@@__crt_stdio_output@@AEAA_NXZ 00000001800278ac     libucrt:output.obj
 0002:000098ac       $unwind$__acrt_get_parent_window 00000001800278ac     libucrt:winapi_thunks.obj
 0002:000098ac       $unwind$_callnewh          00000001800278ac     libucrt:new_handler.obj
 0002:000098ac       $unwind$__vcrt_freeptd     00000001800278ac     libvcruntime:per_thread_data.obj
 0002:000098ac       $unwind$__vcrt_initialize_locks 00000001800278ac     libvcruntime:locks.obj
 0002:000098ac       $unwind$__acrt_AppPolicyGetWindowingModelInternal 00000001800278ac     libucrt:winapi_thunks.obj
 0002:000098ac       $unwind$__vcrt_uninitialize_locks 00000001800278ac     libvcruntime:locks.obj
 0002:000098ac       $unwind$__acrt_AppPolicyGetShowDeveloperDiagnosticInternal 00000001800278ac     libucrt:winapi_thunks.obj
 0002:000098ac       $unwind$__acrt_uninitialize_winapi_thunks 00000001800278ac     libucrt:winapi_thunks.obj
 0002:000098ac       $unwind$__acrt_AppPolicyGetProcessTerminationMethodInternal 00000001800278ac     libucrt:winapi_thunks.obj
 0002:000098ac       $unwind$__vcrt_FlsFree     00000001800278ac     libvcruntime:winapi_downlevel.obj
 0002:000098ac       $unwind$__acrt_FlsAlloc    00000001800278ac     libucrt:winapi_thunks.obj
 0002:000098ac       $unwind$?type_case_s@?$output_processor@DV?$string_output_adapter@D@__crt_stdio_output@@V?$standard_base@DV?$string_output_adapter@D@__crt_stdio_output@@@2@@__crt_stdio_output@@AEAA_NXZ 00000001800278ac     libucrt:output.obj
 0002:000098ac       $unwind$__acrt_FlsFree     00000001800278ac     libucrt:winapi_thunks.obj
 0002:000098ac       $unwind$__acrt_FlsGetValue 00000001800278ac     libucrt:winapi_thunks.obj
 0002:000098ac       $unwind$__vcrt_FlsGetValue 00000001800278ac     libvcruntime:winapi_downlevel.obj
 0002:000098b4       $chain$0$ffi_prep_cif_core 00000001800278b4     libffi:prep_cif.obj
 0002:000098c8       $chain$2$ffi_prep_cif_core 00000001800278c8     libffi:prep_cif.obj
 0002:000098dc       $chain$3$ffi_prep_cif_core 00000001800278dc     libffi:prep_cif.obj
 0002:000098ec       $unwind$ffi_prep_args      00000001800278ec     libffi:ffi.obj
 0002:000098fc       $chain$2$ffi_prep_args     00000001800278fc     libffi:ffi.obj
 0002:00009918       $chain$3$ffi_prep_args     0000000180027918     libffi:ffi.obj
 0002:00009928       $unwind$ffi_call           0000000180027928     libffi:ffi.obj
 0002:00009940       $unwind$ffi_closure_win64_inner 0000000180027940     libffi:ffi.obj
 0002:00009964       $unwind$ffi_prep_closure_loc 0000000180027964     libffi:ffi.obj
 0002:0000996c       $chain$1$ffi_prep_closure_loc 000000018002796c     libffi:ffi.obj
 0002:00009984       $chain$2$ffi_prep_closure_loc 0000000180027984     libffi:ffi.obj
 0002:00009998       $chain$3$ffi_prep_closure_loc 0000000180027998     libffi:ffi.obj
 0002:000099a8       $unwind$win32munmap        00000001800279a8     libffi:closures.obj
 0002:000099b4       $unwind$init_mparams       00000001800279b4     libffi:closures.obj
 0002:000099bc       $chain$0$init_mparams      00000001800279bc     libffi:closures.obj
 0002:000099d0       $chain$1$init_mparams      00000001800279d0     libffi:closures.obj
 0002:000099e0       $unwind$prepend_alloc      00000001800279e0     libffi:closures.obj
 0002:000099f8       $unwind$?type_case_integer@?$output_processor@_WV?$stream_output_adapter@_W@__crt_stdio_output@@V?$standard_base@_WV?$stream_output_adapter@_W@__crt_stdio_output@@@2@@__crt_stdio_output@@AEAA_NI_N@Z 00000001800279f8     libucrt:output.obj
 0002:000099f8       $unwind$?type_case_integer@?$output_processor@DV?$string_output_adapter@D@__crt_stdio_output@@V?$standard_base@DV?$string_output_adapter@D@__crt_stdio_output@@@2@@__crt_stdio_output@@AEAA_NI_N@Z 00000001800279f8     libucrt:output.obj
 0002:000099f8       $unwind$add_segment        00000001800279f8     libffi:closures.obj
 0002:000099f8       $unwind$?type_case_integer@?$output_processor@_WV?$string_output_adapter@_W@__crt_stdio_output@@V?$standard_base@_WV?$string_output_adapter@_W@__crt_stdio_output@@@2@@__crt_stdio_output@@AEAA_NI_N@Z 00000001800279f8     libucrt:output.obj
 0002:00009a10       $unwind$__acrt_lowio_create_handle_array 0000000180027a10     libucrt:osfinfo.obj
 0002:00009a10       $unwind$??$common_xtox@K_W@@YAHKQEA_W_KI_N@Z 0000000180027a10     libucrt:xtoa.obj
 0002:00009a10       $unwind$_seh_filter_exe    0000000180027a10     libucrt:exception_filter.obj
 0002:00009a10       $unwind$__acrt_free_locale 0000000180027a10     libucrt:locale_refcounting.obj
 0002:00009a10       $unwind$?_ExecutionInCatch@@YAHPEAU_xDISPATCHER_CONTEXT@@PEBU_s_FuncInfo@@@Z 0000000180027a10     libvcruntime:risctrnsctrl.obj
 0002:00009a10       $unwind$?setSBCS@@YAXPEAU__crt_multibyte_data@@@Z 0000000180027a10     libucrt:mbctype.obj
 0002:00009a10       $unwind$_initterm          0000000180027a10     libucrt:initterm.obj
 0002:00009a10       $unwind$_recalloc_base     0000000180027a10     libucrt:recalloc.obj
 0002:00009a10       $unwind$??$ensure_buffer_is_big_enough@D@formatting_buffer@__crt_stdio_output@@QEAA_N_K@Z 0000000180027a10     libucrt:output.obj
 0002:00009a10       $unwind$sys_alloc          0000000180027a10     libffi:closures.obj
 0002:00009a10       $unwind$??$ensure_buffer_is_big_enough@_W@formatting_buffer@__crt_stdio_output@@QEAA_N_K@Z 0000000180027a10     libucrt:output.obj
 0002:00009a10       $unwind$_wassert           0000000180027a10     libucrt:assert.obj
 0002:00009a10       $unwind$__acrt_show_wide_message_box 0000000180027a10     libucrt:crtmbox.obj
 0002:00009a10       $unwind$__scrt_dllmain_exception_filter 0000000180027a10     LIBCMT:utility.obj
 0002:00009a24       $unwind$?try_get_function@@YAPEAXW4function_id@?A0x89697e75@@QEBDQEBW4module_id@2@2@Z 0000000180027a24     libvcruntime:winapi_downlevel.obj
 0002:00009a24       $unwind$?IsInExceptionSpec@@YAEPEAUEHExceptionRecord@@PEBU_s_ESTypeList@@@Z 0000000180027a24     libvcruntime:frame.obj
 0002:00009a24       $unwind$release_unused_segments 0000000180027a24     libffi:closures.obj
 0002:00009a24       $unwind$??R<lambda_f03950bc5685219e0bcd2087efbe011e>@@QEBAHXZ 0000000180027a24     libucrt:onexit.obj
 0002:00009a24       $unwind$?try_get_function@@YAPEAXW4function_id@?A0x391cf84c@@QEBDQEBW4module_id@2@2@Z 0000000180027a24     libucrt:winapi_thunks.obj
 0002:00009a40       $unwind$sys_trim           0000000180027a40     libffi:closures.obj
 0002:00009a50       $chain$1$sys_trim          0000000180027a50     libffi:closures.obj
 0002:00009a68       $chain$2$sys_trim          0000000180027a68     libffi:closures.obj
 0002:00009a78       $unwind$tmalloc_small      0000000180027a78     libffi:closures.obj
 0002:00009a88       $unwind$dlmalloc           0000000180027a88     libffi:closures.obj
 0002:00009a98       $chain$3$dlfree            0000000180027a98     libffi:closures.obj
 0002:00009ab8       $chain$4$dlfree            0000000180027ab8     libffi:closures.obj
 0002:00009ac8       $chain$5$dlfree            0000000180027ac8     libffi:closures.obj
 0002:00009ae8       $xdatasym                  0000000180027ae8     libffi:win64.obj
 0002:00009afc       $unwind$?__scrt_throw_std_bad_alloc@@YAXXZ 0000000180027afc     LIBCMT:throw_bad_alloc.obj
 0002:00009afc       $unwind$_raise_exc         0000000180027afc     libucrt:fpexcept.obj
 0002:00009afc       $unwind$?_Xlength_error@std@@YAXPEBD@Z 0000000180027afc     libcpmt:xthrow.obj
 0002:00009afc       $unwind$?__scrt_throw_std_bad_array_new_length@@YAXXZ 0000000180027afc     LIBCMT:throw_bad_alloc.obj
 0002:00009b08       $xdatasym                  0000000180027b08     LIBCMT:_amdsecgs_.obj
 0002:00009b0c       $unwind$__scrt_is_nonwritable_in_current_image 0000000180027b0c     LIBCMT:utility.obj
 0002:00009b2c       $unwind$__scrt_is_nonwritable_in_current_image$filt$0 0000000180027b2c     LIBCMT:utility.obj
 0002:00009b34       $unwind$__scrt_initialize_onexit_tables 0000000180027b34     LIBCMT:utility.obj
 0002:00009b40       $unwind$?dllmain_crt_process_attach@@YAHQEAUHINSTANCE__@@QEAX@Z 0000000180027b40     LIBCMT:dll_dllmain.obj
 0002:00009b7c       $unwind$?fin$0@?0???$?RV<lambda_410d79af7f07d98d83a3f525b3859a53>@@AEAV<lambda_3e16ef9562a7dcce91392c22ab16ea36>@@V<lambda_38119f0e861e05405d8a144b9b982f0a>@@@?$__crt_seh_guarded_call@X@@QEAAX$$QEAV<lambda_410d79af7f07d98d83a3f525b3859a53>@@AEAV<lambda_3e16ef9562a7dcce91392c22ab16ea36>@@$$QEAV<lambda_38119f0e861e05405d8a144b9b982f0a>@@@Z@4HA 0000000180027b7c     libucrt:wsetlocale.obj
 0002:00009b7c       $unwind$?fin$0@?0???$?RV<lambda_751a882b2c74d4b022dec766aa51a29a>@@AEAV<lambda_628dfdc04ba53c8bfc02c9951375f3f5>@@V<lambda_f6c7be5f7998530c34de24c7437d6b54>@@@?$__crt_seh_guarded_call@H@@QEAAH$$QEAV<lambda_751a882b2c74d4b022dec766aa51a29a>@@AEAV<lambda_628dfdc04ba53c8bfc02c9951375f3f5>@@$$QEAV<lambda_f6c7be5f7998530c34de24c7437d6b54>@@@Z@4HA 0000000180027b7c     libucrt:close.obj
 0002:00009b7c       $unwind$?fin$0@?0???$?RV<lambda_7777bce6b2f8c936911f934f8298dc43>@@AEAV<lambda_f03950bc5685219e0bcd2087efbe011e>@@V<lambda_3883c3dff614d5e0c5f61bb1ac94921c>@@@?$__crt_seh_guarded_call@H@@QEAAH$$QEAV<lambda_7777bce6b2f8c936911f934f8298dc43>@@AEAV<lambda_f03950bc5685219e0bcd2087efbe011e>@@$$QEAV<lambda_3883c3dff614d5e0c5f61bb1ac94921c>@@@Z@4HA 0000000180027b7c     libucrt:onexit.obj
 0002:00009b7c       $unwind$?fin$0@?0???$common_lseek@_J@@YA_JH_JH@Z@4HA 0000000180027b7c     libucrt:lseek.obj
 0002:00009b7c       $unwind$?fin$0@?0???$?RV<lambda_0d412022a4b28cc8a401ea49574e8ae6>@@AEAV<lambda_a775ed57af18ba8e4d5dc780aa9068fe>@@V<lambda_975a71a6baa488a08f4e15f6b0339b9e>@@@?$__crt_seh_guarded_call@H@@QEAAH$$QEAV<lambda_0d412022a4b28cc8a401ea49574e8ae6>@@AEAV<lambda_a775ed57af18ba8e4d5dc780aa9068fe>@@$$QEAV<lambda_975a71a6baa488a08f4e15f6b0339b9e>@@@Z@4HA 0000000180027b7c     libucrt:output.obj
 0002:00009b7c       $unwind$?fin$0@?0???$?RV<lambda_c376a267cfb53b6959b3b692ec76b120>@@AEAV<lambda_9a32fed5bf61b6b509b2d3f6003082a1>@@V<lambda_572fbb9fa0ab338edf41edfd4b5fcc8d>@@@?$__crt_seh_guarded_call@H@@QEAAH$$QEAV<lambda_c376a267cfb53b6959b3b692ec76b120>@@AEAV<lambda_9a32fed5bf61b6b509b2d3f6003082a1>@@$$QEAV<lambda_572fbb9fa0ab338edf41edfd4b5fcc8d>@@@Z@4HA 0000000180027b7c     libucrt:fflush.obj
 0002:00009b7c       $unwind$?fin$0@?0??update_thread_multibyte_data_internal@@YAPEAU__crt_multibyte_data@@QEAU__acrt_ptd@@QEAPEAU1@@Z@4HA 0000000180027b7c     libucrt:mbctype.obj
 0002:00009b7c       $unwind$_ctrlfp$filt$0     0000000180027b7c     libucrt:fpctrl.obj
 0002:00009b7c       $unwind$?fin$0@?0???$?RV<lambda_886d6c58226a84441f68b9f2b8217b83>@@AEAV<lambda_ab61a845afdef5b7c387490eaf3616ee>@@V<lambda_f7f22ab5edc0698d5f6905b0d3f44752>@@@?$__crt_seh_guarded_call@X@@QEAAX$$QEAV<lambda_886d6c58226a84441f68b9f2b8217b83>@@AEAV<lambda_ab61a845afdef5b7c387490eaf3616ee>@@$$QEAV<lambda_f7f22ab5edc0698d5f6905b0d3f44752>@@@Z@4HA 0000000180027b7c     libucrt:fflush.obj
 0002:00009b7c       $unwind$?fin$0@?0???$?RV<lambda_842d9ff0dc9ef11c61343bbaebe7f885>@@AEAV<lambda_c5860995281e5c4ce005b3de8f5874ee>@@V<lambda_d90129c13df834fdcbf8d2b88dafcf2d>@@@?$__crt_seh_guarded_call@X@@QEAAX$$QEAV<lambda_842d9ff0dc9ef11c61343bbaebe7f885>@@AEAV<lambda_c5860995281e5c4ce005b3de8f5874ee>@@$$QEAV<lambda_d90129c13df834fdcbf8d2b88dafcf2d>@@@Z@4HA 0000000180027b7c     libucrt:fflush.obj
 0002:00009b7c       $unwind$?fin$0@?0???$?RV<lambda_efdfa57d1f175319df784efa44bb7b81>@@AEAV<lambda_5f0a4c1567f8adc6734073e5d1e1b35c>@@V<lambda_2e8a7d3640ea6ccb4c2413664c2db6fd>@@@?$__crt_seh_guarded_call@X@@QEAAX$$QEAV<lambda_efdfa57d1f175319df784efa44bb7b81>@@AEAV<lambda_5f0a4c1567f8adc6734073e5d1e1b35c>@@$$QEAV<lambda_2e8a7d3640ea6ccb4c2413664c2db6fd>@@@Z@4HA 0000000180027b7c     libucrt:mbctype.obj
 0002:00009b7c       $unwind$raise$fin$0        0000000180027b7c     libucrt:signal.obj
 0002:00009b7c       $unwind$?fin$0@?0???$?RV<lambda_a37b2b86f63e897a80ea819b0eb08c01>@@AEAV<lambda_38ce7e780aa69e748d6df282ebc68efe>@@V<lambda_99fb1378e971ab6e7edea83e3a7a83a2>@@@?$__crt_seh_guarded_call@H@@QEAAH$$QEAV<lambda_a37b2b86f63e897a80ea819b0eb08c01>@@AEAV<lambda_38ce7e780aa69e748d6df282ebc68efe>@@$$QEAV<lambda_99fb1378e971ab6e7edea83e3a7a83a2>@@@Z@4HA 0000000180027b7c     libucrt:commit.obj
 0002:00009b7c       $unwind$?fin$0@?0???$?RV<lambda_450d765d439847d4c735a33c368b5fc0>@@AEAV<lambda_44731a7d0e6d81c3e6aa82d741081786>@@V<lambda_601a2a7da3b7a96e9554ac7215c4b07c>@@@?$__crt_seh_guarded_call@P6AXH@Z@@QEAAP6AXH@Z$$QEAV<lambda_450d765d439847d4c735a33c368b5fc0>@@AEAV<lambda_44731a7d0e6d81c3e6aa82d741081786>@@$$QEAV<lambda_601a2a7da3b7a96e9554ac7215c4b07c>@@@Z@4HA 0000000180027b7c     libucrt:signal.obj
 0002:00009b7c       $unwind$?fin$0@?0???$?RV<lambda_84ec643ea9557e2f7dc01bb0e9624395>@@AEAV<lambda_ca71763b3c0644891230e4f79ea54fa6>@@V<lambda_439a761618c59b0600e24586724d733b>@@@?$__crt_seh_guarded_call@H@@QEAAH$$QEAV<lambda_84ec643ea9557e2f7dc01bb0e9624395>@@AEAV<lambda_ca71763b3c0644891230e4f79ea54fa6>@@$$QEAV<lambda_439a761618c59b0600e24586724d733b>@@@Z@4HA 0000000180027b7c     libucrt:setvbuf.obj
 0002:00009b7c       $unwind$?fin$0@?0???$?RV<lambda_0ae27a3a962d80f24befdcbee591983d>@@AEAV<lambda_8d0ee55de4b1038c4002e0adecdf1839>@@V<lambda_dc504788e8f1664fe9b84e20bfb512f2>@@@?$__crt_seh_guarded_call@X@@QEAAX$$QEAV<lambda_0ae27a3a962d80f24befdcbee591983d>@@AEAV<lambda_8d0ee55de4b1038c4002e0adecdf1839>@@$$QEAV<lambda_dc504788e8f1664fe9b84e20bfb512f2>@@@Z@4HA 0000000180027b7c     libucrt:per_thread_data.obj
 0002:00009b7c       $unwind$?fin$0@?0???$?RV<lambda_aa87e3671a710a21b5dc78c0bdf72e11>@@AEAV<lambda_92619d2358a28f41a33ba319515a20b9>@@V<lambda_6992ecaafeb10aed2b74cb1fae11a551>@@@?$__crt_seh_guarded_call@X@@QEAAX$$QEAV<lambda_aa87e3671a710a21b5dc78c0bdf72e11>@@AEAV<lambda_92619d2358a28f41a33ba319515a20b9>@@$$QEAV<lambda_6992ecaafeb10aed2b74cb1fae11a551>@@@Z@4HA 0000000180027b7c     libucrt:per_thread_data.obj
 0002:00009b7c       $unwind$__FrameUnwindToState$fin$1 0000000180027b7c     libvcruntime:frame.obj
 0002:00009b7c       $unwind$?filt$0@?0???R<lambda_6e4b09c48022b2350581041d5f6b0c4c>@@QEBA@XZ@4HA 0000000180027b7c     libucrt:exit.obj
 0002:00009b7c       $unwind$_fcloseall$fin$0   0000000180027b7c     libucrt:closeall.obj
 0002:00009b7c       $unwind$?fin$0@?0???$?RV<lambda_d80eeec6fff315bfe5c115232f3240e3>@@AEAV<lambda_6e4b09c48022b2350581041d5f6b0c4c>@@V<lambda_2358e3775559c9db80273638284d5e45>@@@?$__crt_seh_guarded_call@X@@QEAAX$$QEAV<lambda_d80eeec6fff315bfe5c115232f3240e3>@@AEAV<lambda_6e4b09c48022b2350581041d5f6b0c4c>@@$$QEAV<lambda_2358e3775559c9db80273638284d5e45>@@@Z@4HA 0000000180027b7c     libucrt:exit.obj
 0002:00009b7c       $unwind$__acrt_lowio_ensure_fh_exists$fin$0 0000000180027b7c     libucrt:osfinfo.obj
 0002:00009b7c       $unwind$__FrameUnwindToState$filt$0 0000000180027b7c     libvcruntime:frame.obj
 0002:00009b7c       $unwind$__CxxCallCatchBlock$filt$0 0000000180027b7c     libvcruntime:frame.obj
 0002:00009b7c       $unwind$?fin$0@?0??dllmain_crt_process_attach@@YAHQEAUHINSTANCE__@@QEAX@Z@4HA 0000000180027b7c     LIBCMT:dll_dllmain.obj
 0002:00009b7c       $unwind$__acrt_update_thread_locale_data$fin$0 0000000180027b7c     libucrt:locale_refcounting.obj
 0002:00009b7c       $unwind$?fin$0@?0???$?RV<lambda_f2e299630e499de9f9a165e60fcd3db5>@@AEAV<lambda_2ae9d31cdba2644fcbeaf08da7c24588>@@V<lambda_40d01ff24d0e7b3814fdbdcee8eab3c7>@@@?$__crt_seh_guarded_call@X@@QEAAX$$QEAV<lambda_f2e299630e499de9f9a165e60fcd3db5>@@AEAV<lambda_2ae9d31cdba2644fcbeaf08da7c24588>@@$$QEAV<lambda_40d01ff24d0e7b3814fdbdcee8eab3c7>@@@Z@4HA 0000000180027b7c     libucrt:per_thread_data.obj
 0002:00009b7c       $unwind$?fin$0@?0???$?RV<lambda_2d41944a1d46af3157314b8a01080d33>@@AEAV<lambda_8f455de75cd7d7f24b4096f044d8b9e6>@@V<lambda_aa500f224e6afead328df44964fe2772>@@@?$__crt_seh_guarded_call@X@@QEAAX$$QEAV<lambda_2d41944a1d46af3157314b8a01080d33>@@AEAV<lambda_8f455de75cd7d7f24b4096f044d8b9e6>@@$$QEAV<lambda_aa500f224e6afead328df44964fe2772>@@@Z@4HA 0000000180027b7c     libucrt:per_thread_data.obj
 0002:00009b7c       $unwind$?fin$0@?0??dllmain_crt_process_detach@@YAH_N@Z@4HA 0000000180027b7c     LIBCMT:dll_dllmain.obj
 0002:00009b7c       $unwind$?fin$0@?0???$?RV<lambda_8369fcb7c4df1e85de37618bd2b85f07>@@AEAV<lambda_a10e4b102d4a2c3aac6f4f48bbdf488f>@@V<lambda_5b7707bd6d7a0c4713179f36c7fd995d>@@@?$__crt_seh_guarded_call@H@@QEAAH$$QEAV<lambda_8369fcb7c4df1e85de37618bd2b85f07>@@AEAV<lambda_a10e4b102d4a2c3aac6f4f48bbdf488f>@@$$QEAV<lambda_5b7707bd6d7a0c4713179f36c7fd995d>@@@Z@4HA 0000000180027b7c     libucrt:onexit.obj
 0002:00009b7c       $unwind$_IsNonwritableInCurrentImage$filt$0 0000000180027b7c     LIBCMT:pesect.obj
 0002:00009b7c       $unwind$__acrt_initialize_lowio$fin$0 0000000180027b7c     libucrt:ioinit.obj
 0002:00009b7c       $unwind$_write$fin$0       0000000180027b7c     libucrt:write.obj
 0002:00009b7c       $unwind$fclose$fin$0       0000000180027b7c     libucrt:fclose.obj
 0002:00009b7c       $unwind$_query_new_handler$fin$0 0000000180027b7c     libucrt:new_handler.obj
 0002:00009b7c       $unwind$__DestructExceptionObject$filt$0 0000000180027b7c     libvcruntime:ehhelpers.obj
 0002:00009b84       $unwind$?dllmain_crt_process_detach@@YAH_N@Z 0000000180027b84     LIBCMT:dll_dllmain.obj
 0002:00009bb8       $unwind$?dllmain_dispatch@@YAHQEAUHINSTANCE__@@KQEAX@Z 0000000180027bb8     LIBCMT:dll_dllmain.obj
 0002:00009be0       $unwind$?filt$0@?0??dllmain_dispatch@@YAHQEAUHINSTANCE__@@KQEAX@Z@4HA 0000000180027be0     LIBCMT:dll_dllmain.obj
 0002:00009be8       $unwind$__acrt_stdio_flush_and_write_narrow_nolock 0000000180027be8     libucrt:_flsbuf.obj
 0002:00009be8       $unwind$__acrt_stdio_flush_and_write_wide_nolock 0000000180027be8     libucrt:_flsbuf.obj
 0002:00009be8       $unwind$?type_case_Z@?$output_processor@_WV?$stream_output_adapter@_W@__crt_stdio_output@@V?$standard_base@_WV?$stream_output_adapter@_W@__crt_stdio_output@@@2@@__crt_stdio_output@@AEAA_NXZ 0000000180027be8     libucrt:output.obj
 0002:00009be8       $unwind$??0_LocaleUpdate@@QEAA@QEAU__crt_locale_pointers@@@Z 0000000180027be8     libucrt:output.obj
 0002:00009be8       $unwind$_exception_enabled 0000000180027be8     libucrt:libm_error.obj
 0002:00009be8       $unwind$memcpy_s           0000000180027be8     libucrt:cfout.obj
 0002:00009be8       $unwind$?type_case_n@?$output_processor@_WV?$stream_output_adapter@_W@__crt_stdio_output@@V?$standard_base@_WV?$stream_output_adapter@_W@__crt_stdio_output@@@2@@__crt_stdio_output@@AEAA_NXZ 0000000180027be8     libucrt:output.obj
 0002:00009be8       $unwind$??$common_lseek_nolock@_J@@YA_JH_JH@Z 0000000180027be8     libucrt:lseek.obj
 0002:00009be8       $unwind$__vcrt_getptd_noexit 0000000180027be8     libvcruntime:per_thread_data.obj
 0002:00009be8       $unwind$?type_case_n@?$output_processor@_WV?$string_output_adapter@_W@__crt_stdio_output@@V?$standard_base@_WV?$string_output_adapter@_W@__crt_stdio_output@@@2@@__crt_stdio_output@@AEAA_NXZ 0000000180027be8     libucrt:output.obj
 0002:00009be8       $unwind$__acrt_stdio_flush_nolock 0000000180027be8     libucrt:fflush.obj
 0002:00009be8       $unwind$?free_crt_array_internal@@YAXQEAPEBX_K@Z 0000000180027be8     libucrt:inittime.obj
 0002:00009be8       $unwind$?type_case_s@?$output_processor@_WV?$string_output_adapter@_W@__crt_stdio_output@@V?$standard_base@_WV?$string_output_adapter@_W@__crt_stdio_output@@@2@@__crt_stdio_output@@AEAA_NXZ 0000000180027be8     libucrt:output.obj
 0002:00009be8       $unwind$?type_case_Z@?$output_processor@_WV?$string_output_adapter@_W@__crt_stdio_output@@V?$standard_base@_WV?$string_output_adapter@_W@__crt_stdio_output@@@2@@__crt_stdio_output@@AEAA_NXZ 0000000180027be8     libucrt:output.obj
 0002:00009be8       $unwind$__vcrt_InitializeCriticalSectionEx 0000000180027be8     libvcruntime:winapi_downlevel.obj
 0002:00009be8       $unwind$__acrt_InitializeCriticalSectionEx 0000000180027be8     libucrt:winapi_thunks.obj
 0002:00009be8       $unwind$?type_case_s@?$output_processor@_WV?$stream_output_adapter@_W@__crt_stdio_output@@V?$standard_base@_WV?$stream_output_adapter@_W@__crt_stdio_output@@@2@@__crt_stdio_output@@AEAA_NXZ 0000000180027be8     libucrt:output.obj
 0002:00009be8       $unwind$_DllMainCRTStartup 0000000180027be8     LIBCMT:dll_dllmain.obj
 0002:00009be8       $unwind$__acrt_execute_initializers 0000000180027be8     libucrt:shared_initialization.obj
 0002:00009be8       $unwind$?type_case_n@?$output_processor@DV?$string_output_adapter@D@__crt_stdio_output@@V?$standard_base@DV?$string_output_adapter@D@__crt_stdio_output@@@2@@__crt_stdio_output@@AEAA_NXZ 0000000180027be8     libucrt:output.obj
 0002:00009bf8       $xdatasym                  0000000180027bf8     LIBCMT:_chkstk_.obj
 0002:00009c00       $unwind$__report_securityfailure 0000000180027c00     LIBCMT:gs_report.obj
 0002:00009c08       $unwind$__report_gsfailure 0000000180027c08     LIBCMT:gs_report.obj
 0002:00009c10       $unwind$capture_current_context 0000000180027c10     LIBCMT:gs_report.obj
 0002:00009c1c       $unwind$capture_previous_context 0000000180027c1c     LIBCMT:gs_report.obj
 0002:00009c28       $unwind$__isa_available_init 0000000180027c28     LIBCMT:_cpu_disp_.obj
 0002:00009c3c       $unwind$__scrt_fastfail    0000000180027c3c     LIBCMT:utility_desktop.obj
 0002:00009c4c       $unwind$__security_init_cookie 0000000180027c4c     LIBCMT:gs_support.obj
 0002:00009c58       $xdatasym                  0000000180027c58     LIBCMT:_guard_dispatch_.obj
 0002:00009c5c       $unwind$__std_exception_copy 0000000180027c5c     libvcruntime:std_exception.obj
 0002:00009c5c       $unwind$?initialize_stdio_handles_nolock@@YAXXZ 0000000180027c5c     libucrt:ioinit.obj
 0002:00009c5c       $unwind$_free_osfhnd       0000000180027c5c     libucrt:osfinfo.obj
 0002:00009c70       $unwind$_CxxThrowException 0000000180027c70     libvcruntime:throw.obj
 0002:00009c80       $unwind$__C_specific_handler 0000000180027c80     libvcruntime:_riscchandler_.obj
 0002:00009ca0       $xdatasym                  0000000180027ca0     libvcruntime:memset.obj
 0002:00009ca4       $unwind$__acrt_initialize_winapi_thunks 0000000180027ca4     libucrt:winapi_thunks.obj
 0002:00009ca4       $unwind$__vcrt_initialize_winapi_thunks 0000000180027ca4     libvcruntime:winapi_downlevel.obj
 0002:00009cac       $unwind$__acrt_stdio_end_temporary_buffering_nolock 0000000180027cac     libucrt:_sftbuf.obj
 0002:00009cac       $unwind$__vcrt_uninitialize_winapi_thunks 0000000180027cac     libvcruntime:winapi_downlevel.obj
 0002:00009cb8       $xdatasym                  0000000180027cb8     libvcruntime:_jmpuwind_.obj
 0002:00009ccc       $unwind$?_GetEstablisherFrame@@YAPEA_KPEA_KPEAU_xDISPATCHER_CONTEXT@@PEBU_s_FuncInfo@@0@Z 0000000180027ccc     libvcruntime:risctrnsctrl.obj
 0002:00009ce4       $unwind$?__FrameUnwindToEmptyState@@YAXPEA_KPEAU_xDISPATCHER_CONTEXT@@PEBU_s_FuncInfo@@@Z 0000000180027ce4     libvcruntime:risctrnsctrl.obj
 0002:00009cf8       $unwind$_CallSETranslator  0000000180027cf8     libvcruntime:risctrnsctrl.obj
 0002:00009d18       $unwind$_CallSETranslator$filt$0 0000000180027d18     libvcruntime:risctrnsctrl.obj
 0002:00009d24       $unwind$??$parse_command_line@D@@YAXPEADPEAPEAD0PEA_K2@Z 0000000180027d24     libucrt:argv_parsing.obj
 0002:00009d24       $unwind$?write_string_impl@?$output_adapter_common@_WV?$stream_output_adapter@_W@__crt_stdio_output@@@__crt_stdio_output@@IEBAXQEB_WHQEAHAEAV__crt_deferred_errno_cache@@@Z 0000000180027d24     libucrt:output.obj
 0002:00009d24       $unwind$?_GetRangeOfTrysToCheck@@YAPEBU_s_TryBlockMapEntry@@PEA_KPEBU_s_FuncInfo@@HHPEAI2PEAU_xDISPATCHER_CONTEXT@@@Z 0000000180027d24     libvcruntime:risctrnsctrl.obj
 0002:00009d24       $unwind$??R<lambda_a10e4b102d4a2c3aac6f4f48bbdf488f>@@QEBAHXZ 0000000180027d24     libucrt:onexit.obj
 0002:00009d40       $unwind$_UnwindNestedFrames 0000000180027d40     libvcruntime:risctrnsctrl.obj
 0002:00009d54       $unwind$__CxxFrameHandler3 0000000180027d54     libvcruntime:risctrnsctrl.obj
 0002:00009d68       $xdatasym                  0000000180027d68     libvcruntime:memcpy.obj
 0002:00009d6c       $unwind$__CxxCallCatchBlock 0000000180027d6c     libvcruntime:frame.obj
 0002:00009da8       $unwind$__CxxCallCatchBlock$fin$1 0000000180027da8     libvcruntime:frame.obj
 0002:00009db4       $unwind$__BuildCatchObject 0000000180027db4     libvcruntime:frame.obj
 0002:00009de0       $unwind$__GSHandlerCheck_EH 0000000180027de0     LIBCMT:gshandlereh.obj
 0002:00009de0       $unwind$__acrt_initialize_stdio 0000000180027de0     libucrt:_file.obj
 0002:00009de0       $unwind$__TypeMatch        0000000180027de0     libvcruntime:frame.obj
 0002:00009df8       $unwind$__InternalCxxFrameHandler 0000000180027df8     libvcruntime:frame.obj
 0002:00009e10       $unwind$__FrameUnwindToState 0000000180027e10     libvcruntime:frame.obj
 0002:00009e5c       $unwind$?FindHandler@@YAXPEAUEHExceptionRecord@@PEA_KPEAU_CONTEXT@@PEAU_xDISPATCHER_CONTEXT@@PEBU_s_FuncInfo@@EH1@Z 0000000180027e5c     libvcruntime:frame.obj
 0002:00009e7c       $unwind$?CatchIt@@YAXPEAUEHExceptionRecord@@PEA_KPEAU_CONTEXT@@PEAU_xDISPATCHER_CONTEXT@@PEBU_s_FuncInfo@@PEBU_s_HandlerType@@PEBU_s_CatchableType@@PEBU_s_TryBlockMapEntry@@H1EE@Z 0000000180027e7c     libvcruntime:frame.obj
 0002:00009e94       $unwind$?FindHandlerForForeignException@@YAXPEAUEHExceptionRecord@@PEA_KPEAU_CONTEXT@@PEAU_xDISPATCHER_CONTEXT@@PEBU_s_FuncInfo@@HH1@Z 0000000180027e94     libvcruntime:frame.obj
 0002:00009eac       $unwind$__BuildCatchObjectHelper 0000000180027eac     libvcruntime:frame.obj
 0002:00009ef0       $xdatasym                  0000000180027ef0     libvcruntime:handlers.obj
 0002:00009ef8       $unwind$__DestructExceptionObject 0000000180027ef8     libvcruntime:ehhelpers.obj
 0002:00009f18       $unwind$swprintf           0000000180027f18     libucrt:assert.obj
 0002:00009f28       $unwind$??$common_assert_to_stderr@_W@@YAXQEB_W0I@Z 0000000180027f28     libucrt:assert.obj
 0002:00009f44       $unwind$??$common_assert_to_message_box@_W@@YAXQEB_W0IQEAX@Z 0000000180027f44     libucrt:assert.obj
 0002:00009f60       $unwind$??$common_assert_to_message_box_build_string@_W@@YAXQEA_W_KQEB_W2IQEAX@Z 0000000180027f60     libucrt:assert.obj
 0002:00009f80       $unwind$_invalid_parameter_noinfo_noreturn 0000000180027f80     libucrt:invalid_parameter.obj
 0002:00009f80       $unwind$_log10_special     0000000180027f80     libucrt:log_special.obj
 0002:00009f80       $unwind$_invalid_parameter_noinfo 0000000180027f80     libucrt:invalid_parameter.obj
 0002:00009f80       $unwind$_itow_s            0000000180027f80     libucrt:xtoa.obj
 0002:00009f80       $unwind$strtol             0000000180027f80     libucrt:strtox.obj
 0002:00009f80       $unwind$fflush             0000000180027f80     libucrt:fflush.obj
 0002:00009f80       $unwind$wcstol             0000000180027f80     libucrt:strtox.obj
 0002:00009f80       $unwind$wctomb_s           0000000180027f80     libucrt:wctomb.obj
 0002:00009f88       $unwind$__acrt_call_reportfault 0000000180027f88     libucrt:invalid_parameter.obj
 0002:00009fa8       $unwind$__acrt_MessageBoxW 0000000180027fa8     libucrt:winapi_thunks.obj
 0002:00009fa8       $unwind$??$__acrt_convert_wcs_mbs@_WD$$A6A_KPEADPEB_W_KPEAU__crt_locale_pointers@@@ZU__crt_win32_buffer_no_resizing@@@@YAHQEB_WAEAV?$__crt_win32_buffer@DU__crt_win32_buffer_no_resizing@@@@A6A_KPEADPEB_W_KPEAU__crt_locale_pointers@@@Z5@Z 0000000180027fa8     libucrt:findnextfilea.obj
 0002:00009fa8       $unwind$_invalid_parameter 0000000180027fa8     libucrt:invalid_parameter.obj
 0002:00009fbc       $unwind$__stdio_common_vfwprintf 0000000180027fbc     libucrt:output.obj
 0002:00009fc4       $unwind$??$common_vsprintf@Vstandard_base@__crt_stdio_output@@D@@YAH_KQEAD0QEBDQEAU__crt_locale_pointers@@1@Z 0000000180027fc4     libucrt:output.obj
 0002:00009fc4       $unwind$??$common_vsprintf@Vstandard_base@__crt_stdio_output@@_W@@YAH_KQEA_W0QEB_WQEAU__crt_locale_pointers@@QEAD@Z 0000000180027fc4     libucrt:output.obj
 0002:00009fe4       $unwind$?process@?$output_processor@_WV?$string_output_adapter@_W@__crt_stdio_output@@V?$standard_base@_WV?$string_output_adapter@_W@__crt_stdio_output@@@2@@__crt_stdio_output@@QEAAHXZ 0000000180027fe4     libucrt:output.obj
 0002:00009fe4       $unwind$?parse_int_from_format_string@?$output_processor@DV?$string_output_adapter@D@__crt_stdio_output@@V?$standard_base@DV?$string_output_adapter@D@__crt_stdio_output@@@2@@__crt_stdio_output@@AEAA_NQEAH@Z 0000000180027fe4     libucrt:output.obj
 0002:00009fe4       $unwind$?process@?$output_processor@_WV?$stream_output_adapter@_W@__crt_stdio_output@@V?$standard_base@_WV?$stream_output_adapter@_W@__crt_stdio_output@@@2@@__crt_stdio_output@@QEAAHXZ 0000000180027fe4     libucrt:output.obj
 0002:00009ff8       $unwind$?parse_int_from_format_string@?$output_processor@_WV?$stream_output_adapter@_W@__crt_stdio_output@@V?$standard_base@_WV?$stream_output_adapter@_W@__crt_stdio_output@@@2@@__crt_stdio_output@@AEAA_NQEAH@Z 0000000180027ff8     libucrt:output.obj
 0002:00009ff8       $unwind$?parse_int_from_format_string@?$output_processor@_WV?$string_output_adapter@_W@__crt_stdio_output@@V?$standard_base@_WV?$string_output_adapter@_W@__crt_stdio_output@@@2@@__crt_stdio_output@@AEAA_NQEAH@Z 0000000180027ff8     libucrt:output.obj
 0002:0000a00c       $unwind$?state_case_type@?$output_processor@_WV?$stream_output_adapter@_W@__crt_stdio_output@@V?$standard_base@_WV?$stream_output_adapter@_W@__crt_stdio_output@@@2@@__crt_stdio_output@@AEAA_NXZ 000000018002800c     libucrt:output.obj
 0002:0000a02c       $unwind$?type_case_c_tchar@?$output_processor@_WV?$string_output_adapter@_W@__crt_stdio_output@@V?$standard_base@_WV?$string_output_adapter@_W@__crt_stdio_output@@@2@@__crt_stdio_output@@AEAA_N_W@Z 000000018002802c     libucrt:output.obj
 0002:0000a02c       $unwind$?type_case_c_tchar@?$output_processor@_WV?$stream_output_adapter@_W@__crt_stdio_output@@V?$standard_base@_WV?$stream_output_adapter@_W@__crt_stdio_output@@@2@@__crt_stdio_output@@AEAA_N_W@Z 000000018002802c     libucrt:output.obj
 0002:0000a02c       $unwind$??R<lambda_ca71763b3c0644891230e4f79ea54fa6>@@QEBAHXZ 000000018002802c     libucrt:setvbuf.obj
 0002:0000a03c       $unwind$?type_case_a@?$output_processor@_WV?$string_output_adapter@_W@__crt_stdio_output@@V?$standard_base@_WV?$string_output_adapter@_W@__crt_stdio_output@@@2@@__crt_stdio_output@@AEAA_NXZ 000000018002803c     libucrt:output.obj
 0002:0000a03c       $unwind$?type_case_a@?$output_processor@_WV?$stream_output_adapter@_W@__crt_stdio_output@@V?$standard_base@_WV?$stream_output_adapter@_W@__crt_stdio_output@@@2@@__crt_stdio_output@@AEAA_NXZ 000000018002803c     libucrt:output.obj
 0002:0000a04c       $unwind$?write_stored_string_tchar@?$output_processor@_WV?$stream_output_adapter@_W@__crt_stdio_output@@V?$standard_base@_WV?$stream_output_adapter@_W@__crt_stdio_output@@@2@@__crt_stdio_output@@AEAA_N_W@Z 000000018002804c     libucrt:output.obj
 0002:0000a060       $unwind$??R<lambda_a775ed57af18ba8e4d5dc780aa9068fe>@@QEBAHXZ 0000000180028060     libucrt:output.obj
 0002:0000a080       $unwind$??$write_multiple_characters@V?$stream_output_adapter@_W@__crt_stdio_output@@D@__crt_stdio_output@@YAXAEBV?$stream_output_adapter@_W@0@DHQEAH@Z 0000000180028080     libucrt:output.obj
 0002:0000a080       $unwind$?write_string@?$string_output_adapter@D@__crt_stdio_output@@QEBAXQEBDHQEAHAEAV__crt_deferred_errno_cache@@@Z 0000000180028080     libucrt:output.obj
 0002:0000a098       $unwind$?process@?$output_processor@DV?$string_output_adapter@D@__crt_stdio_output@@V?$standard_base@DV?$string_output_adapter@D@__crt_stdio_output@@@2@@__crt_stdio_output@@QEAAHXZ 0000000180028098     libucrt:output.obj
 0002:0000a0a8       $unwind$?state_case_type@?$output_processor@DV?$string_output_adapter@D@__crt_stdio_output@@V?$standard_base@DV?$string_output_adapter@D@__crt_stdio_output@@@2@@__crt_stdio_output@@AEAA_NXZ 00000001800280a8     libucrt:output.obj
 0002:0000a0c0       $unwind$?type_case_a@?$output_processor@DV?$string_output_adapter@D@__crt_stdio_output@@V?$standard_base@DV?$string_output_adapter@D@__crt_stdio_output@@@2@@__crt_stdio_output@@AEAA_NXZ 00000001800280c0     libucrt:output.obj
 0002:0000a0cc       $unwind$?write_stored_string_tchar@?$output_processor@DV?$string_output_adapter@D@__crt_stdio_output@@V?$standard_base@DV?$string_output_adapter@D@__crt_stdio_output@@@2@@__crt_stdio_output@@AEAA_ND@Z 00000001800280cc     libucrt:output.obj
 0002:0000a0e4       $unwind$?write_string@?$string_output_adapter@_W@__crt_stdio_output@@QEBAXQEB_WHQEAHAEAV__crt_deferred_errno_cache@@@Z 00000001800280e4     libucrt:output.obj
 0002:0000a0fc       $unwind$?state_case_type@?$output_processor@_WV?$string_output_adapter@_W@__crt_stdio_output@@V?$standard_base@_WV?$string_output_adapter@_W@__crt_stdio_output@@@2@@__crt_stdio_output@@AEAA_NXZ 00000001800280fc     libucrt:output.obj
 0002:0000a120       $unwind$?write_stored_string_tchar@?$output_processor@_WV?$string_output_adapter@_W@__crt_stdio_output@@V?$standard_base@_WV?$string_output_adapter@_W@__crt_stdio_output@@@2@@__crt_stdio_output@@AEAA_N_W@Z 0000000180028120     libucrt:output.obj
 0002:0000a134       $unwind$??$write_multiple_characters@V?$string_output_adapter@D@__crt_stdio_output@@D@__crt_stdio_output@@YAXAEBV?$string_output_adapter@D@0@DHQEAH@Z 0000000180028134     libucrt:output.obj
 0002:0000a134       $unwind$??$write_multiple_characters@V?$string_output_adapter@_W@__crt_stdio_output@@D@__crt_stdio_output@@YAXAEBV?$string_output_adapter@_W@0@DHQEAH@Z 0000000180028134     libucrt:output.obj
 0002:0000a140       $unwind$??$type_case_integer_parse_into_buffer@I@?$output_processor@DV?$string_output_adapter@D@__crt_stdio_output@@V?$standard_base@DV?$string_output_adapter@D@__crt_stdio_output@@@2@@__crt_stdio_output@@AEAAXII_N@Z 0000000180028140     libucrt:output.obj
 0002:0000a140       $unwind$??$type_case_integer_parse_into_buffer@_K@?$output_processor@_WV?$stream_output_adapter@_W@__crt_stdio_output@@V?$standard_base@_WV?$stream_output_adapter@_W@__crt_stdio_output@@@2@@__crt_stdio_output@@AEAAX_KI_N@Z 0000000180028140     libucrt:output.obj
 0002:0000a140       $unwind$??$type_case_integer_parse_into_buffer@I@?$output_processor@_WV?$stream_output_adapter@_W@__crt_stdio_output@@V?$standard_base@_WV?$stream_output_adapter@_W@__crt_stdio_output@@@2@@__crt_stdio_output@@AEAAXII_N@Z 0000000180028140     libucrt:output.obj
 0002:0000a140       $unwind$??$type_case_integer_parse_into_buffer@I@?$output_processor@_WV?$string_output_adapter@_W@__crt_stdio_output@@V?$standard_base@_WV?$string_output_adapter@_W@__crt_stdio_output@@@2@@__crt_stdio_output@@AEAAXII_N@Z 0000000180028140     libucrt:output.obj
 0002:0000a140       $unwind$??$type_case_integer_parse_into_buffer@_K@?$output_processor@DV?$string_output_adapter@D@__crt_stdio_output@@V?$standard_base@DV?$string_output_adapter@D@__crt_stdio_output@@@2@@__crt_stdio_output@@AEAAX_KI_N@Z 0000000180028140     libucrt:output.obj
 0002:0000a140       $unwind$??$type_case_integer_parse_into_buffer@_K@?$output_processor@_WV?$string_output_adapter@_W@__crt_stdio_output@@V?$standard_base@_WV?$string_output_adapter@_W@__crt_stdio_output@@@2@@__crt_stdio_output@@AEAAX_KI_N@Z 0000000180028140     libucrt:output.obj
 0002:0000a148       $unwind$??$?RV<lambda_0d412022a4b28cc8a401ea49574e8ae6>@@AEAV<lambda_a775ed57af18ba8e4d5dc780aa9068fe>@@V<lambda_975a71a6baa488a08f4e15f6b0339b9e>@@@?$__crt_seh_guarded_call@H@@QEAAH$$QEAV<lambda_0d412022a4b28cc8a401ea49574e8ae6>@@AEAV<lambda_a775ed57af18ba8e4d5dc780aa9068fe>@@$$QEAV<lambda_975a71a6baa488a08f4e15f6b0339b9e>@@@Z 0000000180028148     libucrt:output.obj
 0002:0000a16c       $unwind$_query_new_handler 000000018002816c     libucrt:new_handler.obj
 0002:0000a18c       $unwind$?common_exit@@YAXHW4_crt_exit_cleanup_mode@@W4_crt_exit_return_mode@@@Z 000000018002818c     libucrt:exit.obj
 0002:0000a198       $unwind$??R<lambda_6e4b09c48022b2350581041d5f6b0c4c>@@QEBA@XZ 0000000180028198     libucrt:exit.obj
 0002:0000a1b8       $unwind$??$?RV<lambda_d80eeec6fff315bfe5c115232f3240e3>@@AEAV<lambda_6e4b09c48022b2350581041d5f6b0c4c>@@V<lambda_2358e3775559c9db80273638284d5e45>@@@?$__crt_seh_guarded_call@X@@QEAAX$$QEAV<lambda_d80eeec6fff315bfe5c115232f3240e3>@@AEAV<lambda_6e4b09c48022b2350581041d5f6b0c4c>@@$$QEAV<lambda_2358e3775559c9db80273638284d5e45>@@@Z 00000001800281b8     libucrt:exit.obj
 0002:0000a1dc       $unwind$_configure_narrow_argv 00000001800281dc     libucrt:argv_parsing.obj
 0002:0000a1f0       $unwind$??$free_environment@D@@YAXQEAPEAD@Z 00000001800281f0     libucrt:environment_initialization.obj
 0002:0000a1f0       $unwind$??$free_environment@_W@@YAXQEAPEA_W@Z 00000001800281f0     libucrt:environment_initialization.obj
 0002:0000a1fc       $unwind$??$create_environment@D@@YAQEAPEADQEAD@Z 00000001800281fc     libucrt:environment_initialization.obj
 0002:0000a214       $unwind$_register_onexit_function 0000000180028214     libucrt:onexit.obj
 0002:0000a21c       $unwind$_execute_onexit_table 000000018002821c     libucrt:onexit.obj
 0002:0000a224       $unwind$??$?RV<lambda_8369fcb7c4df1e85de37618bd2b85f07>@@AEAV<lambda_a10e4b102d4a2c3aac6f4f48bbdf488f>@@V<lambda_5b7707bd6d7a0c4713179f36c7fd995d>@@@?$__crt_seh_guarded_call@H@@QEAAH$$QEAV<lambda_8369fcb7c4df1e85de37618bd2b85f07>@@AEAV<lambda_a10e4b102d4a2c3aac6f4f48bbdf488f>@@$$QEAV<lambda_5b7707bd6d7a0c4713179f36c7fd995d>@@@Z 0000000180028224     libucrt:onexit.obj
 0002:0000a248       $unwind$??$?RV<lambda_7777bce6b2f8c936911f934f8298dc43>@@AEAV<lambda_f03950bc5685219e0bcd2087efbe011e>@@V<lambda_3883c3dff614d5e0c5f61bb1ac94921c>@@@?$__crt_seh_guarded_call@H@@QEAAH$$QEAV<lambda_7777bce6b2f8c936911f934f8298dc43>@@AEAV<lambda_f03950bc5685219e0bcd2087efbe011e>@@$$QEAV<lambda_3883c3dff614d5e0c5f61bb1ac94921c>@@@Z 0000000180028248     libucrt:onexit.obj
 0002:0000a26c       $unwind$terminate          000000018002826c     libucrt:terminate.obj
 0002:0000a28c       $unwind$??$parse_integer@KV?$c_string_character_source@D@__crt_strtox@@@__crt_strtox@@YAKQEAU__crt_locale_pointers@@V?$c_string_character_source@D@0@H_N@Z 000000018002828c     libucrt:atox.obj
 0002:0000a2a4       $unwind$??$parse_integer@KV?$c_string_character_source@_W@__crt_strtox@@@__crt_strtox@@YAKQEAU__crt_locale_pointers@@V?$c_string_character_source@_W@0@H_N@Z 00000001800282a4     libucrt:atox.obj
 0002:0000a2c0       $xdatasym                  00000001800282c0     libucrt:strncmp.obj
 0002:0000a2c4       $unwind$?destroy_fls@@YAXPEAX@Z 00000001800282c4     libucrt:per_thread_data.obj
 0002:0000a2c4       $unwind$__acrt_locale_free_numeric 00000001800282c4     libucrt:initnum.obj
 0002:0000a2c4       $unwind$_free_base         00000001800282c4     libucrt:free_base.obj
 0002:0000a2c4       $unwind$__acrt_locale_free_lc_time_if_unreferenced 00000001800282c4     libucrt:locale_refcounting.obj
 0002:0000a2cc       $unwind$?construct_ptd_array@@YAXQEAU__acrt_ptd@@@Z 00000001800282cc     libucrt:per_thread_data.obj
 0002:0000a2d4       $unwind$?destroy_ptd_array@@YAXQEAU__acrt_ptd@@@Z 00000001800282d4     libucrt:per_thread_data.obj
 0002:0000a2dc       $unwind$??$?RV<lambda_0ae27a3a962d80f24befdcbee591983d>@@AEAV<lambda_8d0ee55de4b1038c4002e0adecdf1839>@@V<lambda_dc504788e8f1664fe9b84e20bfb512f2>@@@?$__crt_seh_guarded_call@X@@QEAAX$$QEAV<lambda_0ae27a3a962d80f24befdcbee591983d>@@AEAV<lambda_8d0ee55de4b1038c4002e0adecdf1839>@@$$QEAV<lambda_dc504788e8f1664fe9b84e20bfb512f2>@@@Z 00000001800282dc     libucrt:per_thread_data.obj
 0002:0000a300       $unwind$??$?RV<lambda_aa87e3671a710a21b5dc78c0bdf72e11>@@AEAV<lambda_92619d2358a28f41a33ba319515a20b9>@@V<lambda_6992ecaafeb10aed2b74cb1fae11a551>@@@?$__crt_seh_guarded_call@X@@QEAAX$$QEAV<lambda_aa87e3671a710a21b5dc78c0bdf72e11>@@AEAV<lambda_92619d2358a28f41a33ba319515a20b9>@@$$QEAV<lambda_6992ecaafeb10aed2b74cb1fae11a551>@@@Z 0000000180028300     libucrt:per_thread_data.obj
 0002:0000a324       $unwind$??$?RV<lambda_f2e299630e499de9f9a165e60fcd3db5>@@AEAV<lambda_2ae9d31cdba2644fcbeaf08da7c24588>@@V<lambda_40d01ff24d0e7b3814fdbdcee8eab3c7>@@@?$__crt_seh_guarded_call@X@@QEAAX$$QEAV<lambda_f2e299630e499de9f9a165e60fcd3db5>@@AEAV<lambda_2ae9d31cdba2644fcbeaf08da7c24588>@@$$QEAV<lambda_40d01ff24d0e7b3814fdbdcee8eab3c7>@@@Z 0000000180028324     libucrt:per_thread_data.obj
 0002:0000a348       $unwind$??$?RV<lambda_2d41944a1d46af3157314b8a01080d33>@@AEAV<lambda_8f455de75cd7d7f24b4096f044d8b9e6>@@V<lambda_aa500f224e6afead328df44964fe2772>@@@?$__crt_seh_guarded_call@X@@QEAAX$$QEAV<lambda_2d41944a1d46af3157314b8a01080d33>@@AEAV<lambda_8f455de75cd7d7f24b4096f044d8b9e6>@@$$QEAV<lambda_aa500f224e6afead328df44964fe2772>@@@Z 0000000180028348     libucrt:per_thread_data.obj
 0002:0000a36c       $unwind$__acrt_GetModuleFileNameA 000000018002836c     libucrt:getmodulefilenamea.obj
 0002:0000a384       $unwind$?common_flush_all@@YAH_N@Z 0000000180028384     libucrt:fflush.obj
 0002:0000a38c       $unwind$??$?RV<lambda_842d9ff0dc9ef11c61343bbaebe7f885>@@AEAV<lambda_c5860995281e5c4ce005b3de8f5874ee>@@V<lambda_d90129c13df834fdcbf8d2b88dafcf2d>@@@?$__crt_seh_guarded_call@X@@QEAAX$$QEAV<lambda_842d9ff0dc9ef11c61343bbaebe7f885>@@AEAV<lambda_c5860995281e5c4ce005b3de8f5874ee>@@$$QEAV<lambda_d90129c13df834fdcbf8d2b88dafcf2d>@@@Z 000000018002838c     libucrt:fflush.obj
 0002:0000a3b0       $unwind$??$?RV<lambda_886d6c58226a84441f68b9f2b8217b83>@@AEAV<lambda_ab61a845afdef5b7c387490eaf3616ee>@@V<lambda_f7f22ab5edc0698d5f6905b0d3f44752>@@@?$__crt_seh_guarded_call@X@@QEAAX$$QEAV<lambda_886d6c58226a84441f68b9f2b8217b83>@@AEAV<lambda_ab61a845afdef5b7c387490eaf3616ee>@@$$QEAV<lambda_f7f22ab5edc0698d5f6905b0d3f44752>@@@Z 00000001800283b0     libucrt:fflush.obj
 0002:0000a3d8       $unwind$??$?RV<lambda_c376a267cfb53b6959b3b692ec76b120>@@AEAV<lambda_9a32fed5bf61b6b509b2d3f6003082a1>@@V<lambda_572fbb9fa0ab338edf41edfd4b5fcc8d>@@@?$__crt_seh_guarded_call@H@@QEAAH$$QEAV<lambda_c376a267cfb53b6959b3b692ec76b120>@@AEAV<lambda_9a32fed5bf61b6b509b2d3f6003082a1>@@$$QEAV<lambda_572fbb9fa0ab338edf41edfd4b5fcc8d>@@@Z 00000001800283d8     libucrt:fflush.obj
 0002:0000a3fc       $unwind$setvbuf            00000001800283fc     libucrt:setvbuf.obj
 0002:0000a404       $unwind$??$?RV<lambda_84ec643ea9557e2f7dc01bb0e9624395>@@AEAV<lambda_ca71763b3c0644891230e4f79ea54fa6>@@V<lambda_439a761618c59b0600e24586724d733b>@@@?$__crt_seh_guarded_call@H@@QEAAH$$QEAV<lambda_84ec643ea9557e2f7dc01bb0e9624395>@@AEAV<lambda_ca71763b3c0644891230e4f79ea54fa6>@@$$QEAV<lambda_439a761618c59b0600e24586724d733b>@@@Z 0000000180028404     libucrt:setvbuf.obj
 0002:0000a428       $unwind$__acrt_uninitialize_locale 0000000180028428     libucrt:wsetlocale.obj
 0002:0000a428       $unwind$__acrt_get_sigabrt_handler 0000000180028428     libucrt:signal.obj
 0002:0000a430       $unwind$raise              0000000180028430     libucrt:signal.obj
 0002:0000a46c       $unwind$??$?RV<lambda_450d765d439847d4c735a33c368b5fc0>@@AEAV<lambda_44731a7d0e6d81c3e6aa82d741081786>@@V<lambda_601a2a7da3b7a96e9554ac7215c4b07c>@@@?$__crt_seh_guarded_call@P6AXH@Z@@QEAAP6AXH@Z$$QEAV<lambda_450d765d439847d4c735a33c368b5fc0>@@AEAV<lambda_44731a7d0e6d81c3e6aa82d741081786>@@$$QEAV<lambda_601a2a7da3b7a96e9554ac7215c4b07c>@@@Z 000000018002846c     libucrt:signal.obj
 0002:0000a490       $unwind$isdigit            0000000180028490     libucrt:_ctype.obj
 0002:0000a490       $unwind$?getSystemCP@@YAHH@Z 0000000180028490     libucrt:mbctype.obj
 0002:0000a490       $unwind$__dcrt_lowio_ensure_console_output_initialized 0000000180028490     libucrt:initcon.obj
 0002:0000a490       $unwind$_isleadbyte_l      0000000180028490     libucrt:_wctype.obj
 0002:0000a498       $unwind$_tolower_l         0000000180028498     libucrt:tolower_toupper.obj
 0002:0000a4a8       $unwind$_mbtowc_l          00000001800284a8     libucrt:mbtowc.obj
 0002:0000a4a8       $unwind$?fp_format_e@@YAHQEBNQEAD_K12H_NIQEAU__crt_locale_pointers@@@Z 00000001800284a8     libucrt:cvt.obj
 0002:0000a4a8       $unwind$__acrt_LCMapStringEx 00000001800284a8     libucrt:winapi_thunks.obj
 0002:0000a4bc       $unwind$_wctomb_s_l        00000001800284bc     libucrt:wctomb.obj
 0002:0000a4cc       $unwind$__acrt_fp_format   00000001800284cc     libucrt:cvt.obj
 0002:0000a4e0       $unwind$?fp_format_nan_or_infinity@@YAHW4__acrt_fp_class@@_NPEAD_K1@Z 00000001800284e0     libucrt:cvt.obj
 0002:0000a4f4       $unwind$?fp_format_e_internal@@YAHQEAD_KH_NIQEAU_strflt@@2QEAU__crt_locale_pointers@@@Z 00000001800284f4     libucrt:cvt.obj
 0002:0000a50c       $unwind$?fp_format_a@@YAHQEBNPEAD_KQEAD2H_NIQEAU__crt_locale_pointers@@@Z 000000018002850c     libucrt:cvt.obj
 0002:0000a528       $unwind$__dcrt_get_narrow_environment_from_os 0000000180028528     libucrt:get_environment_from_os.obj
 0002:0000a528       $unwind$?fp_format_f_internal@@YAHQEAD_KHQEAU_strflt@@_NQEAU__crt_locale_pointers@@@Z 0000000180028528     libucrt:cvt.obj
 0002:0000a540       $unwind$?fp_format_g@@YAHQEBNQEAD_K12H_NIQEAU__crt_locale_pointers@@@Z 0000000180028540     libucrt:cvt.obj
 0002:0000a554       $unwind$_fputwc_nolock     0000000180028554     libucrt:fputwc.obj
 0002:0000a570       $unwind$??$?RV<lambda_410d79af7f07d98d83a3f525b3859a53>@@AEAV<lambda_3e16ef9562a7dcce91392c22ab16ea36>@@V<lambda_38119f0e861e05405d8a144b9b982f0a>@@@?$__crt_seh_guarded_call@X@@QEAAX$$QEAV<lambda_410d79af7f07d98d83a3f525b3859a53>@@AEAV<lambda_3e16ef9562a7dcce91392c22ab16ea36>@@$$QEAV<lambda_38119f0e861e05405d8a144b9b982f0a>@@@Z 0000000180028570     libucrt:wsetlocale.obj
 0002:0000a598       $unwind$__acrt_initialize_lowio 0000000180028598     libucrt:ioinit.obj
 0002:0000a5b8       $unwind$?initialize_inherited_file_handles_nolock@@YAXXZ 00000001800285b8     libucrt:ioinit.obj
 0002:0000a5d4       $unwind$??$common_expand_argv_wildcards@D@@YAHQEAPEADQEAPEAPEAD@Z 00000001800285d4     libucrt:argv_wildcards.obj
 0002:0000a5ec       $unwind$??$copy_and_add_argument_to_buffer@D@@YAHQEBD0_KAEAV?$argument_list@D@?A0x5f5c8891@@@Z 00000001800285ec     libucrt:argv_wildcards.obj
 0002:0000a608       $unwind$??$expand_argument_wildcards@D@@YAHQEAD0AEAV?$argument_list@D@?A0x5f5c8891@@@Z 0000000180028608     libucrt:argv_wildcards.obj
 0002:0000a628       $unwind$_setmbcp_nolock    0000000180028628     libucrt:mbctype.obj
 0002:0000a648       $unwind$?update_thread_multibyte_data_internal@@YAPEAU__crt_multibyte_data@@QEAU__acrt_ptd@@QEAPEAU1@@Z 0000000180028648     libucrt:mbctype.obj
 0002:0000a670       $unwind$?setmbcp_internal@@YAHH_NQEAU__acrt_ptd@@QEAPEAU__crt_multibyte_data@@@Z 0000000180028670     libucrt:mbctype.obj
 0002:0000a680       $unwind$?setSBUpLow@@YAXPEAU__crt_multibyte_data@@@Z 0000000180028680     libucrt:mbctype.obj
 0002:0000a69c       $unwind$??$?RV<lambda_efdfa57d1f175319df784efa44bb7b81>@@AEAV<lambda_5f0a4c1567f8adc6734073e5d1e1b35c>@@V<lambda_2e8a7d3640ea6ccb4c2413664c2db6fd>@@@?$__crt_seh_guarded_call@X@@QEAAX$$QEAV<lambda_efdfa57d1f175319df784efa44bb7b81>@@AEAV<lambda_5f0a4c1567f8adc6734073e5d1e1b35c>@@$$QEAV<lambda_2e8a7d3640ea6ccb4c2413664c2db6fd>@@@Z 000000018002869c     libucrt:mbctype.obj
 0002:0000a6c0       $unwind$?x_ismbbtype_l@@YAHPEAU__crt_locale_pointers@@IHH@Z 00000001800286c0     libucrt:ismbbyte.obj
 0002:0000a6d0       $unwind$__acrt_WideCharToMultiByte 00000001800286d0     libucrt:widechartomultibyte.obj
 0002:0000a6d0       $unwind$__GSHandlerCheckCommon 00000001800286d0     LIBCMT:_gshandler_.obj
 0002:0000a6d8       $unwind$__acrt_is_interactive 00000001800286d8     libucrt:winapi_thunks.obj
 0002:0000a6ec       $unwind$iswctype           00000001800286ec     libucrt:iswctype.obj
 0002:0000a6f8       $unwind$_isctype_l         00000001800286f8     libucrt:isctype.obj
 0002:0000a710       $unwind$__acrt_update_thread_locale_data 0000000180028710     libucrt:locale_refcounting.obj
 0002:0000a734       $unwind$?_mbstowcs_l_helper@@YA_KPEA_WPEBD_KPEAU__crt_locale_pointers@@@Z 0000000180028734     libucrt:mbstowcs.obj
 0002:0000a74c       $unwind$_fcloseall         000000018002874c     libucrt:closeall.obj
 0002:0000a770       $unwind$_commit            0000000180028770     libucrt:commit.obj
 0002:0000a770       $unwind$_close             0000000180028770     libucrt:close.obj
 0002:0000a778       $unwind$??$?RV<lambda_a37b2b86f63e897a80ea819b0eb08c01>@@AEAV<lambda_38ce7e780aa69e748d6df282ebc68efe>@@V<lambda_99fb1378e971ab6e7edea83e3a7a83a2>@@@?$__crt_seh_guarded_call@H@@QEAAH$$QEAV<lambda_a37b2b86f63e897a80ea819b0eb08c01>@@AEAV<lambda_38ce7e780aa69e748d6df282ebc68efe>@@$$QEAV<lambda_99fb1378e971ab6e7edea83e3a7a83a2>@@@Z 0000000180028778     libucrt:commit.obj
 0002:0000a79c       $unwind$_write             000000018002879c     libucrt:write.obj
 0002:0000a7cc       $unwind$_write_nolock      00000001800287cc     libucrt:write.obj
 0002:0000a7e4       $unwind$?write_double_translated_ansi_nolock@@YA?AUwrite_result@?A0x17268360@@HQEBDI@Z 00000001800287e4     libucrt:write.obj
 0002:0000a804       $unwind$?write_text_utf16le_nolock@@YA?AUwrite_result@?A0x17268360@@HQEBDI@Z 0000000180028804     libucrt:write.obj
 0002:0000a804       $unwind$?write_text_ansi_nolock@@YA?AUwrite_result@?A0x17268360@@HQEBDI@Z 0000000180028804     libucrt:write.obj
 0002:0000a824       $unwind$?write_text_utf8_nolock@@YA?AUwrite_result@?A0x17268360@@HQEBDI@Z 0000000180028824     libucrt:write.obj
 0002:0000a848       $unwind$__acrt_LCMapStringA 0000000180028848     libucrt:lcmapstringa.obj
 0002:0000a858       $unwind$?__acrt_LCMapStringA_stat@@YAHPEAU__crt_locale_pointers@@PEB_WKPEBDHPEADHHH@Z 0000000180028858     libucrt:lcmapstringa.obj
 0002:0000a880       $unwind$?__mbsrtowcs_utf8@__crt_mbstring@@YA_KPEA_WPEAPEBD_KPEAU_Mbstatet@@@Z 0000000180028880     libucrt:mbrtowc.obj
 0002:0000a898       $unwind$__acrt_fltout      0000000180028898     libucrt:cfout.obj
 0002:0000a8b8       $unwind$?divide@__crt_strtox@@YA_KAEAUbig_integer@1@AEBU21@@Z 00000001800288b8     libucrt:cfout.obj
 0002:0000a8c4       $chain$0$?divide@__crt_strtox@@YA_KAEAUbig_integer@1@AEBU21@@Z 00000001800288c4     libucrt:cfout.obj
 0002:0000a8d8       $chain$6$?divide@__crt_strtox@@YA_KAEAUbig_integer@1@AEBU21@@Z 00000001800288d8     libucrt:cfout.obj
 0002:0000a8fc       $chain$7$?divide@__crt_strtox@@YA_KAEAUbig_integer@1@AEBU21@@Z 00000001800288fc     libucrt:cfout.obj
 0002:0000a910       $chain$8$?divide@__crt_strtox@@YA_KAEAUbig_integer@1@AEBU21@@Z 0000000180028910     libucrt:cfout.obj
 0002:0000a920       $unwind$??$write_buffer_nolock@D@@YA_NDV__crt_stdio_stream@@@Z 0000000180028920     libucrt:_flsbuf.obj
 0002:0000a930       $unwind$??$write_buffer_nolock@_W@@YA_N_WV__crt_stdio_stream@@@Z 0000000180028930     libucrt:_flsbuf.obj
 0002:0000a940       $unwind$__acrt_locale_free_monetary 0000000180028940     libucrt:initmon.obj
 0002:0000a948       $unwind$__acrt_locale_free_time 0000000180028948     libucrt:inittime.obj
 0002:0000a958       $unwind$__acrt_GetStringTypeA 0000000180028958     libucrt:getstringtypea.obj
 0002:0000a980       $unwind$__acrt_lowio_destroy_handle_array 0000000180028980     libucrt:osfinfo.obj
 0002:0000a990       $unwind$__acrt_lowio_ensure_fh_exists 0000000180028990     libucrt:osfinfo.obj
 0002:0000a9bc       $unwind$qsort              00000001800289bc     libucrt:qsort.obj
 0002:0000a9d4       $chain$4$qsort             00000001800289d4     libucrt:qsort.obj
 0002:0000a9f8       $chain$5$qsort             00000001800289f8     libucrt:qsort.obj
 0002:0000aa08       $unwind$strpbrk            0000000180028a08     libucrt:strpbrk.obj
 0002:0000aa18       $unwind$fallbackMethod     0000000180028a18     libucrt:strpbrk.obj
 0002:0000aa28       $unwind$__acrt_FindFirstFileExA 0000000180028a28     libucrt:findfirstfileexa.obj
 0002:0000aa38       $unwind$??$__acrt_convert_wcs_mbs@D_W$$A6A_KPEA_WPEBD_KPEAU__crt_locale_pointers@@@ZU__crt_win32_buffer_internal_dynamic_resizing@@@@YAHQEBDAEAV?$__crt_win32_buffer@_WU__crt_win32_buffer_internal_dynamic_resizing@@@@A6A_KPEA_WPEBD_KPEAU__crt_locale_pointers@@@Z5@Z 0000000180028a38     libucrt:findfirstfileexa.obj
 0002:0000aa50       $unwind$__acrt_FindNextFileA 0000000180028a50     libucrt:findnextfilea.obj
 0002:0000aa6c       $unwind$_mbsdec_l          0000000180028a6c     libucrt:mbsdec.obj
 0002:0000aa78       $unwind$?GetTableIndexFromLocaleName@@YAHPEB_W@Z 0000000180028a78     libucrt:lcidtoname_downlevel.obj
 0002:0000aa90       $unwind$fclose             0000000180028a90     libucrt:fclose.obj
 0002:0000aab4       $unwind$??$common_lseek@_J@@YA_JH_JH@Z 0000000180028ab4     libucrt:lseek.obj
 0002:0000aae4       $unwind$_putwch_nolock     0000000180028ae4     libucrt:putwch.obj
 0002:0000aaec       $unwind$?__mbrtoc32_utf8@__crt_mbstring@@YA_KPEA_UPEBD_KPEAU_Mbstatet@@@Z 0000000180028aec     libucrt:mbrtoc32.obj
 0002:0000ab08       $xdatasym                  0000000180028b08     libucrt:log10.obj
 0002:0000ab14       $unwind$?_wcstombs_l_helper@@YA_KPEADPEB_W_KPEAU__crt_locale_pointers@@@Z 0000000180028b14     libucrt:wcstombs.obj
 0002:0000ab38       $stateUnwindMap$?_wcstombs_l_helper@@YA_KPEADPEB_W_KPEAU__crt_locale_pointers@@@Z 0000000180028b38     libucrt:wcstombs.obj
 0002:0000ab40       $ip2state$?_wcstombs_l_helper@@YA_KPEADPEB_W_KPEAU__crt_locale_pointers@@@Z 0000000180028b40     libucrt:wcstombs.obj
 0002:0000ab58       $unwind$??$?RV<lambda_751a882b2c74d4b022dec766aa51a29a>@@AEAV<lambda_628dfdc04ba53c8bfc02c9951375f3f5>@@V<lambda_f6c7be5f7998530c34de24c7437d6b54>@@@?$__crt_seh_guarded_call@H@@QEAAH$$QEAV<lambda_751a882b2c74d4b022dec766aa51a29a>@@AEAV<lambda_628dfdc04ba53c8bfc02c9951375f3f5>@@$$QEAV<lambda_f6c7be5f7998530c34de24c7437d6b54>@@@Z 0000000180028b58     libucrt:close.obj
 0002:0000ab7c       $unwind$__dcrt_write_console 0000000180028b7c     libucrt:initcon.obj
 0002:0000ab90       $unwind$__acrt_fenv_set_control 0000000180028b90     libucrt:_fenvutils.obj
 0002:0000aba0       $unwind$_call_matherr      0000000180028ba0     libucrt:libm_error.obj
 0002:0000aba8       $unwind$_handle_error      0000000180028ba8     libucrt:libm_error.obj
 0002:0000abc8       $unwind$__acrt_initialize_fma3 0000000180028bc8     libucrt:fma3_available.obj
 0002:0000abd0       $unwind$_log_special_common 0000000180028bd0     libucrt:log_special.obj
 0002:0000abdc       $unwind$?__wcsrtombs_utf8@__crt_mbstring@@YA_KPEADPEAPEB_W_KPEAU_Mbstatet@@@Z 0000000180028bdc     libucrt:wcrtomb.obj
 0002:0000ac00       $xdatasym                  0000000180028c00     libucrt:fpsr.obj
 0002:0000ac08       $unwind$_raise_exc_ex      0000000180028c08     libucrt:fpexcept.obj
 0002:0000ac1c       $unwind$_ctrlfp            0000000180028c1c     libucrt:fpctrl.obj
 0002:0000ac44       $unwind$_IsNonwritableInCurrentImage 0000000180028c44     LIBCMT:pesect.obj
 0002:0000ac68       $unwind$strrchr            0000000180028c68     libvcruntime:strrchr.obj
 0002:0000ac70       $xdatasym                  0000000180028c70     libvcruntime:memcmp.obj
 0002:0000ae60       .edata                     0000000180028e60     ffi_bindings.exp
 0002:0000ae88       rgpv                       0000000180028e88     ffi_bindings.exp
 0002:0000ae8c       rgszName                   0000000180028e8c     ffi_bindings.exp
 0002:0000ae90       rgwOrd                     0000000180028e90     ffi_bindings.exp
 0002:0000ae92       szName                     0000000180028e92     ffi_bindings.exp
 0002:0000aea4       $N00001                    0000000180028ea4     ffi_bindings.exp
 0002:0000b400       .idata$6                   0000000180029400     kernel32:KERNEL32.dll
 0002:0000c10c       .idata$6                   000000018002a10c     iojs:node.dll
 0003:00000030       ?__vcrt_flsindex@@3KA      000000018002b030     libvcruntime:per_thread_data.obj
 0003:00000040       ?errno_no_memory@@3HA      000000018002b040     libucrt:errno.obj
 0003:00000044       ?doserrno_no_memory@@3KA   000000018002b044     libucrt:errno.obj
 0003:00000050       ?__acrt_flsindex@@3KA      000000018002b050     libucrt:per_thread_data.obj
 0003:00000320       ?__rgctypeflag@@3PADA      000000018002b320     libucrt:mbctype.obj
 0003:00000330       ?__rgcode_page_info@@3PAUcode_page_info@@A 000000018002b330     libucrt:mbctype.obj
 0003:00000650       _mbctypes                  000000018002b650     libucrt:mbctype.obj
 0003:00000760       _mbcasemaps                000000018002b760     libucrt:mbctype.obj
 0003:00000910       ?__dcrt_lowio_console_output_handle@@3PEAXEA 000000018002b910     libucrt:initcon.obj
 0003:00000920       ?dazSupported@?1??_ctrlfp@@9@9 000000018002b920     libucrt:fpctrl.obj
 0003:00000930       _module                    000000018002b930     ffi.obj
 0003:00000a94       ?module_local_atexit_table_initialized@@3_NA 000000018002ba94     LIBCMT:utility.obj
 0003:00000aa0       ?module_local_atexit_table@@3U_onexit_table_t@@A 000000018002baa0     LIBCMT:utility.obj
 0003:00000ab8       ?module_local_at_quick_exit_table@@3U_onexit_table_t@@A 000000018002bab8     LIBCMT:utility.obj
 0003:00000ad0       ?is_initialized_as_dll@@3_NA 000000018002bad0     LIBCMT:utility.obj
 0003:00000ad4       ?__proc_attached@@3HA      000000018002bad4     LIBCMT:dll_dllmain.obj
 0003:00000ae0       GS_ExceptionRecord         000000018002bae0     LIBCMT:gs_report.obj
 0003:00000b80       GS_ContextRecord           000000018002bb80     LIBCMT:gs_report.obj
 0003:00001080       ?__vcrt_startup_thread_ptd@@3U__vcrt_ptd@@A 000000018002c080     libvcruntime:per_thread_data.obj
 0003:000010f8       __vcrt_lock_table          000000018002c0f8     libvcruntime:locks.obj
 0003:00001120       __vcrt_locks_initialized   000000018002c120     libvcruntime:locks.obj
 0003:00001128       ?module_handles@@3PAPEAUHINSTANCE__@@A 000000018002c128     libvcruntime:winapi_downlevel.obj
 0003:00001140       ?encoded_function_pointers@@3PAPEAXA 000000018002c140     libvcruntime:winapi_downlevel.obj
 0003:000011b0       ?heap@@3V_HeapManager@@A   000000018002c1b0     libvcruntime:undname.obj
 0003:000011e0       ?__acrt_invalid_parameter_handler@@3V?$dual_state_global@P6AXPEB_W00I_K@Z@__crt_state_management@@A 000000018002c1e0     libucrt:invalid_parameter.obj
 0003:000011e8       ?__acrt_new_handler@@3V?$dual_state_global@P6AH_K@Z@__crt_state_management@@A 000000018002c1e8     libucrt:new_handler.obj
 0003:000011f0       ?c_termination_complete@@3JA 000000018002c1f0     libucrt:exit.obj
 0003:000011f8       ?thread_local_exit_callback_func@@3P6AXPEAXK0@ZEA 000000018002c1f8     libucrt:exit.obj
 0003:00001210       ?program_name@?1???$common_configure_argv@D@@YAHW4_crt_argv_mode@@@Z@4PADA 000000018002c210     libucrt:argv_parsing.obj
 0003:00001368       ?__acrt_app_type@@3W4_crt_app_type@@A 000000018002c368     libucrt:report_runtime_error.obj
 0003:0000136c       __acrt_error_mode          000000018002c36c     libucrt:set_error_mode.obj
 0003:00001388       ?ctrlc_action@@3V?$dual_state_global@P6AXH@Z@__crt_state_management@@A 000000018002c388     libucrt:signal.obj
 0003:00001390       ?ctrlbreak_action@@3V?$dual_state_global@P6AXH@Z@__crt_state_management@@A 000000018002c390     libucrt:signal.obj
 0003:00001398       ?abort_action@@3V?$dual_state_global@P6AXH@Z@__crt_state_management@@A 000000018002c398     libucrt:signal.obj
 0003:000013a0       ?term_action@@3V?$dual_state_global@P6AXH@Z@__crt_state_management@@A 000000018002c3a0     libucrt:signal.obj
 0003:000013a8       ?internal_state@?1??_mbtowc_l@@9@4U_Mbstatet@@A 000000018002c3a8     libucrt:mbtowc.obj
 0003:000013b0       ?enable_percent_n@@3_KA    000000018002c3b0     libucrt:printf_count_output.obj
 0003:000017f0       ?__acrt_lock_table@@3PAU_RTL_CRITICAL_SECTION@@A 000000018002c7f0     libucrt:locks.obj
 0003:00001a20       ?__acrt_locks_initialized@@3IA 000000018002ca20     libucrt:locks.obj
 0003:00001a24       ?state_cache@?1???$get_cached_win_policy@Udeveloper_information_policy_properties@?1??__acrt_get_developer_information_policy@@YA?AW4developer_information_policy@@XZ@@@YA?AW4developer_information_policy@@W4AppPolicyShowDeveloperDiagnostic@@@Z@4JA 000000018002ca24     libucrt:win_policies.obj
 0003:00001a28       ?state_cache@?1???$get_cached_win_policy@Uwindowing_model_policy_properties@?1??__acrt_get_windowing_model_policy@@YA?AW4windowing_model_policy@@XZ@@@YA?AW4windowing_model_policy@@W4AppPolicyWindowingModel@@@Z@4JA 000000018002ca28     libucrt:win_policies.obj
 0003:00001a48       ?fSystemSet@@3HA           000000018002ca48     libucrt:mbctype.obj
 0003:00001a4c       ?initialized@?1??__acrt_initialize_multibyte@@9@4_NA 000000018002ca4c     libucrt:mbctype.obj
 0003:00001a80       ?module_handles@@3PAPEAUHINSTANCE__@@A 000000018002ca80     libucrt:winapi_thunks.obj
 0003:00001b20       ?encoded_function_pointers@@3PAPEAXA 000000018002cb20     libucrt:winapi_thunks.obj
 0003:00001c38       ?user_matherr@@3V?$dual_state_global@P6AHPEAU_exception@@@Z@__crt_state_management@@A 000000018002cc38     libucrt:matherr.obj
 0003:00001c40       ?__acrt_global_new_mode@@3V?$dual_state_global@J@__crt_state_management@@A 000000018002cc40     libucrt:new_mode.obj
 0003:00001c50       ?internal_pst@?1??__mbrtoc32_utf8@__crt_mbstring@@YA_KPEA_UPEBD_KPEAU_Mbstatet@@@Z@4U3@A 000000018002cc50     libucrt:mbrtoc32.obj
 0003:00001c60       ?internal_pst@?1??__c16rtomb_utf8@__crt_mbstring@@YA_KPEAD_SPEAU_Mbstatet@@@Z@4U3@A 000000018002cc60     libucrt:c16rtomb.obj
 0003:00001da8       ?lastError@@3KA            000000018002cda8     win32-dlfcn.obj
 0003:00001dac       magic_init_mutex           000000018002cdac     libffi:closures.obj
 0003:00001db0       mparams                    000000018002cdb0     libffi:closures.obj
 0003:00001de0       _gm_                       000000018002cde0     libffi:closures.obj
 0003:00002170       ?errorMessage@?1??dlerror@@9@4PADA 000000018002d170     win32-dlfcn.obj
 0004:00000000       $pdata$??__E?g_queue@CallbackInfo@@0V?$queue@PEAVThreadedCallbackInvokation@@V?$deque@PEAVThreadedCallbackInvokation@@V?$allocator@PEAVThreadedCallbackInvokation@@@std@@@std@@@std@@A@@YAXXZ 000000018002e000     callback_info.obj
 0004:0000000c       $pdata$?FunctionCallbackWrapper@imp@Nan@@YAXAEBV?$FunctionCallbackInfo@VValue@v8@@@v8@@@Z 000000018002e00c     ffi.obj
 0004:00000018       $pdata$?ThrowError@Nan@@YAXPEBD@Z 000000018002e018     ffi.obj
 0004:00000024       $pdata$?Call@Callback@Nan@@QEBA?AV?$Local@VValue@v8@@@v8@@HQEAV34@@Z 000000018002e024     ffi.obj
 0004:00000030       $pdata$?WrapPointer@@YA?AV?$Local@VValue@v8@@@v8@@PEAD_K@Z 000000018002e030     ffi.obj
 0004:0000003c       $pdata$?node_ffi_errno@@YAHXZ 000000018002e03c     ffi.obj
 0004:00000048       $pdata$?InitializeStaticFunctions@FFI@@SAXV?$Local@VObject@v8@@@v8@@@Z 000000018002e048     ffi.obj
 0004:00000054       $pdata$?InitializeBindings@FFI@@SAXV?$Local@VObject@v8@@@v8@@@Z 000000018002e054     ffi.obj
 0004:00000060       $pdata$?FFIPrepCif@FFI@@KAXAEBV?$FunctionCallbackInfo@VValue@v8@@@Nan@@@Z 000000018002e060     ffi.obj
 0004:0000006c       $pdata$2$?FFIPrepCif@FFI@@KAXAEBV?$FunctionCallbackInfo@VValue@v8@@@Nan@@@Z 000000018002e06c     ffi.obj
 0004:00000078       $pdata$3$?FFIPrepCif@FFI@@KAXAEBV?$FunctionCallbackInfo@VValue@v8@@@Nan@@@Z 000000018002e078     ffi.obj
 0004:00000084       $pdata$?FFIPrepCifVar@FFI@@KAXAEBV?$FunctionCallbackInfo@VValue@v8@@@Nan@@@Z 000000018002e084     ffi.obj
 0004:00000090       $pdata$2$?FFIPrepCifVar@FFI@@KAXAEBV?$FunctionCallbackInfo@VValue@v8@@@Nan@@@Z 000000018002e090     ffi.obj
 0004:0000009c       $pdata$3$?FFIPrepCifVar@FFI@@KAXAEBV?$FunctionCallbackInfo@VValue@v8@@@Nan@@@Z 000000018002e09c     ffi.obj
 0004:000000a8       $pdata$?FFICall@FFI@@KAXAEBV?$FunctionCallbackInfo@VValue@v8@@@Nan@@@Z 000000018002e0a8     ffi.obj
 0004:000000b4       $pdata$?FFICallAsync@FFI@@KAXAEBV?$FunctionCallbackInfo@VValue@v8@@@Nan@@@Z 000000018002e0b4     ffi.obj
 0004:000000c0       $pdata$?FinishAsyncFFICall@FFI@@KAXPEAUuv_work_s@@@Z 000000018002e0c0     ffi.obj
 0004:000000cc       $pdata$?init@@YAXV?$Local@VObject@v8@@@v8@@@Z 000000018002e0cc     ffi.obj
 0004:000000d8       $pdata$??$New@VFunctionTemplate@v8@@@Nan@@YA?AV?$Local@VFunctionTemplate@v8@@@v8@@P6AXAEBV?$FunctionCallbackInfo@VValue@v8@@@0@@ZV?$Local@VValue@v8@@@2@@Z 000000018002e0d8     ffi.obj
 0004:000000e4       $pdata$0$??$New@VFunctionTemplate@v8@@@Nan@@YA?AV?$Local@VFunctionTemplate@v8@@@v8@@P6AXAEBV?$FunctionCallbackInfo@VValue@v8@@@0@@ZV?$Local@VValue@v8@@@2@@Z 000000018002e0e4     ffi.obj
 0004:000000f0       $pdata$1$??$New@VFunctionTemplate@v8@@@Nan@@YA?AV?$Local@VFunctionTemplate@v8@@@v8@@P6AXAEBV?$FunctionCallbackInfo@VValue@v8@@@0@@ZV?$Local@VValue@v8@@@2@@Z 000000018002e0f0     ffi.obj
 0004:000000fc       $pdata$2$??$New@VFunctionTemplate@v8@@@Nan@@YA?AV?$Local@VFunctionTemplate@v8@@@v8@@P6AXAEBV?$FunctionCallbackInfo@VValue@v8@@@0@@ZV?$Local@VValue@v8@@@2@@Z 000000018002e0fc     ffi.obj
 0004:00000108       $pdata$3$??$New@VFunctionTemplate@v8@@@Nan@@YA?AV?$Local@VFunctionTemplate@v8@@@v8@@P6AXAEBV?$FunctionCallbackInfo@VValue@v8@@@0@@ZV?$Local@VValue@v8@@@2@@Z 000000018002e108     ffi.obj
 0004:00000114       $pdata$?closure_pointer_cb@@YAXPEADPEAX@Z 000000018002e114     callback_info.obj
 0004:00000120       $pdata$?DispatchToV8@CallbackInfo@@KAXPEAU_callback_info@@PEAXPEAPEAX_N@Z 000000018002e120     callback_info.obj
 0004:0000012c       $pdata$0$?DispatchToV8@CallbackInfo@@KAXPEAU_callback_info@@PEAXPEAPEAX_N@Z 000000018002e12c     callback_info.obj
 0004:00000138       $pdata$1$?DispatchToV8@CallbackInfo@@KAXPEAU_callback_info@@PEAXPEAPEAX_N@Z 000000018002e138     callback_info.obj
 0004:00000144       $pdata$?WatcherCallback@CallbackInfo@@SAXPEAUuv_async_s@@H@Z 000000018002e144     callback_info.obj
 0004:00000150       $pdata$2$?WatcherCallback@CallbackInfo@@SAXPEAUuv_async_s@@H@Z 000000018002e150     callback_info.obj
 0004:0000015c       $pdata$3$?WatcherCallback@CallbackInfo@@SAXPEAUuv_async_s@@H@Z 000000018002e15c     callback_info.obj
 0004:00000168       $pdata$?Callback@CallbackInfo@@KAXAEBV?$FunctionCallbackInfo@VValue@v8@@@Nan@@@Z 000000018002e168     callback_info.obj
 0004:00000174       $pdata$4$?Callback@CallbackInfo@@KAXAEBV?$FunctionCallbackInfo@VValue@v8@@@Nan@@@Z 000000018002e174     callback_info.obj
 0004:00000180       $pdata$6$?Callback@CallbackInfo@@KAXAEBV?$FunctionCallbackInfo@VValue@v8@@@Nan@@@Z 000000018002e180     callback_info.obj
 0004:0000018c       $pdata$7$?Callback@CallbackInfo@@KAXAEBV?$FunctionCallbackInfo@VValue@v8@@@Nan@@@Z 000000018002e18c     callback_info.obj
 0004:00000198       $pdata$8$?Callback@CallbackInfo@@KAXAEBV?$FunctionCallbackInfo@VValue@v8@@@Nan@@@Z 000000018002e198     callback_info.obj
 0004:000001a4       $pdata$10$?Callback@CallbackInfo@@KAXAEBV?$FunctionCallbackInfo@VValue@v8@@@Nan@@@Z 000000018002e1a4     callback_info.obj
 0004:000001b0       $pdata$11$?Callback@CallbackInfo@@KAXAEBV?$FunctionCallbackInfo@VValue@v8@@@Nan@@@Z 000000018002e1b0     callback_info.obj
 0004:000001bc       $pdata$?Invoke@CallbackInfo@@KAXPEAUffi_cif@@PEAXPEAPEAX1@Z 000000018002e1bc     callback_info.obj
 0004:000001c8       $pdata$?_Growmap@?$deque@PEAVThreadedCallbackInvokation@@V?$allocator@PEAVThreadedCallbackInvokation@@@std@@@std@@IEAAX_K@Z 000000018002e1c8     callback_info.obj
 0004:000001d4       $pdata$2$?_Growmap@?$deque@PEAVThreadedCallbackInvokation@@V?$allocator@PEAVThreadedCallbackInvokation@@@std@@@std@@IEAAX_K@Z 000000018002e1d4     callback_info.obj
 0004:000001e0       $pdata$4$?_Growmap@?$deque@PEAVThreadedCallbackInvokation@@V?$allocator@PEAVThreadedCallbackInvokation@@@std@@@std@@IEAAX_K@Z 000000018002e1e0     callback_info.obj
 0004:000001ec       $pdata$5$?_Growmap@?$deque@PEAVThreadedCallbackInvokation@@V?$allocator@PEAVThreadedCallbackInvokation@@@std@@@std@@IEAAX_K@Z 000000018002e1ec     callback_info.obj
 0004:000001f8       $pdata$6$?_Growmap@?$deque@PEAVThreadedCallbackInvokation@@V?$allocator@PEAVThreadedCallbackInvokation@@@std@@@std@@IEAAX_K@Z 000000018002e1f8     callback_info.obj
 0004:00000204       $pdata$7$?_Growmap@?$deque@PEAVThreadedCallbackInvokation@@V?$allocator@PEAVThreadedCallbackInvokation@@@std@@@std@@IEAAX_K@Z 000000018002e204     callback_info.obj
 0004:00000210       $pdata$?_Xlen@?$deque@PEAVThreadedCallbackInvokation@@V?$allocator@PEAVThreadedCallbackInvokation@@@std@@@std@@IEBAXXZ 000000018002e210     callback_info.obj
 0004:0000021c       $pdata$sprintf             000000018002e21c     win32-dlfcn.obj
 0004:00000228       $pdata$dlopen              000000018002e228     win32-dlfcn.obj
 0004:00000234       $pdata$1$dlopen            000000018002e234     win32-dlfcn.obj
 0004:00000240       $pdata$3$dlopen            000000018002e240     win32-dlfcn.obj
 0004:0000024c       $pdata$dlclose             000000018002e24c     win32-dlfcn.obj
 0004:00000258       $pdata$dlsym               000000018002e258     win32-dlfcn.obj
 0004:00000264       $pdata$dlerror             000000018002e264     win32-dlfcn.obj
 0004:00000270       $pdata$initialize_aggregate 000000018002e270     libffi:prep_cif.obj
 0004:0000027c       $pdata$ffi_prep_cif_core   000000018002e27c     libffi:prep_cif.obj
 0004:00000288       $pdata$0$ffi_prep_cif_core 000000018002e288     libffi:prep_cif.obj
 0004:00000294       $pdata$2$ffi_prep_cif_core 000000018002e294     libffi:prep_cif.obj
 0004:000002a0       $pdata$3$ffi_prep_cif_core 000000018002e2a0     libffi:prep_cif.obj
 0004:000002ac       $pdata$ffi_prep_args       000000018002e2ac     libffi:ffi.obj
 0004:000002b8       $pdata$2$ffi_prep_args     000000018002e2b8     libffi:ffi.obj
 0004:000002c4       $pdata$3$ffi_prep_args     000000018002e2c4     libffi:ffi.obj
 0004:000002d0       $pdata$ffi_call            000000018002e2d0     libffi:ffi.obj
 0004:000002dc       $pdata$ffi_closure_win64_inner 000000018002e2dc     libffi:ffi.obj
 0004:000002e8       $pdata$ffi_prep_closure_loc 000000018002e2e8     libffi:ffi.obj
 0004:000002f4       $pdata$1$ffi_prep_closure_loc 000000018002e2f4     libffi:ffi.obj
 0004:00000300       $pdata$2$ffi_prep_closure_loc 000000018002e300     libffi:ffi.obj
 0004:0000030c       $pdata$3$ffi_prep_closure_loc 000000018002e30c     libffi:ffi.obj
 0004:00000318       $pdata$win32munmap         000000018002e318     libffi:closures.obj
 0004:00000324       $pdata$init_mparams        000000018002e324     libffi:closures.obj
 0004:00000330       $pdata$0$init_mparams      000000018002e330     libffi:closures.obj
 0004:0000033c       $pdata$1$init_mparams      000000018002e33c     libffi:closures.obj
 0004:00000348       $pdata$prepend_alloc       000000018002e348     libffi:closures.obj
 0004:00000354       $pdata$add_segment         000000018002e354     libffi:closures.obj
 0004:00000360       $pdata$sys_alloc           000000018002e360     libffi:closures.obj
 0004:0000036c       $pdata$release_unused_segments 000000018002e36c     libffi:closures.obj
 0004:00000378       $pdata$sys_trim            000000018002e378     libffi:closures.obj
 0004:00000384       $pdata$1$sys_trim          000000018002e384     libffi:closures.obj
 0004:00000390       $pdata$2$sys_trim          000000018002e390     libffi:closures.obj
 0004:0000039c       $pdata$tmalloc_small       000000018002e39c     libffi:closures.obj
 0004:000003a8       $pdata$dlmalloc            000000018002e3a8     libffi:closures.obj
 0004:000003b4       $pdata$dlfree              000000018002e3b4     libffi:closures.obj
 0004:000003c0       $pdata$3$dlfree            000000018002e3c0     libffi:closures.obj
 0004:000003cc       $pdata$4$dlfree            000000018002e3cc     libffi:closures.obj
 0004:000003d8       $pdata$5$dlfree            000000018002e3d8     libffi:closures.obj
 0004:000003fc       $pdata$??0bad_alloc@std@@QEAA@AEBV01@@Z 000000018002e3fc     libcpmt:xthrow.obj
 0004:00000408       $pdata$??0exception@std@@QEAA@AEBV01@@Z 000000018002e408     libcpmt:xthrow.obj
 0004:00000414       $pdata$??0length_error@std@@QEAA@AEBV01@@Z 000000018002e414     libcpmt:xthrow.obj
 0004:00000420       $pdata$??0length_error@std@@QEAA@PEBD@Z 000000018002e420     libcpmt:xthrow.obj
 0004:0000042c       $pdata$??0logic_error@std@@QEAA@AEBV01@@Z 000000018002e42c     libcpmt:xthrow.obj
 0004:00000438       $pdata$??_Glogic_error@std@@UEAAPEAXI@Z 000000018002e438     libcpmt:xthrow.obj
 0004:00000438       $pdata$??_Glength_error@std@@UEAAPEAXI@Z 000000018002e438     libcpmt:xthrow.obj
 0004:00000438       $pdata$??_Gbad_alloc@std@@UEAAPEAXI@Z 000000018002e438     libcpmt:xthrow.obj
 0004:00000438       $pdata$??_Gexception@std@@UEAAPEAXI@Z 000000018002e438     libcpmt:xthrow.obj
 0004:00000438       $pdata$??_Gbad_exception@std@@UEAAPEAXI@Z 000000018002e438     libvcruntime:frame.obj
 0004:00000438       $pdata$??_Gbad_array_new_length@std@@UEAAPEAXI@Z 000000018002e438     LIBCMT:throw_bad_alloc.obj
 0004:00000444       $pdata$?_Xlength_error@std@@YAXPEBD@Z 000000018002e444     libcpmt:xthrow.obj
 0004:0000045c       $pdata$??2@YAPEAX_K@Z      000000018002e45c     LIBCMT:new_scalar.obj
 0004:00000468       $pdata$__scrt_acquire_startup_lock 000000018002e468     LIBCMT:utility.obj
 0004:00000474       $pdata$__scrt_dllmain_after_initialize_c 000000018002e474     LIBCMT:utility.obj
 0004:00000480       $pdata$__scrt_dllmain_before_initialize_c 000000018002e480     LIBCMT:utility.obj
 0004:0000048c       $pdata$__scrt_dllmain_crt_thread_attach 000000018002e48c     LIBCMT:utility.obj
 0004:00000498       $pdata$__scrt_dllmain_crt_thread_detach 000000018002e498     LIBCMT:utility.obj
 0004:000004a4       $pdata$__scrt_dllmain_exception_filter 000000018002e4a4     LIBCMT:utility.obj
 0004:000004b0       $pdata$__scrt_dllmain_uninitialize_c 000000018002e4b0     LIBCMT:utility.obj
 0004:000004bc       $pdata$__scrt_dllmain_uninitialize_critical 000000018002e4bc     LIBCMT:utility.obj
 0004:000004c8       $pdata$__scrt_initialize_crt 000000018002e4c8     LIBCMT:utility.obj
 0004:000004d4       $pdata$__scrt_initialize_onexit_tables 000000018002e4d4     LIBCMT:utility.obj
 0004:000004e0       $pdata$__scrt_is_nonwritable_in_current_image 000000018002e4e0     LIBCMT:utility.obj
 0004:000004ec       $pdata$__scrt_release_startup_lock 000000018002e4ec     LIBCMT:utility.obj
 0004:000004f8       $pdata$__scrt_uninitialize_crt 000000018002e4f8     LIBCMT:utility.obj
 0004:00000504       $pdata$_onexit             000000018002e504     LIBCMT:utility.obj
 0004:00000510       $pdata$atexit              000000018002e510     LIBCMT:utility.obj
 0004:0000051c       $pdata$?dllmain_crt_dispatch@@YAHQEAUHINSTANCE__@@KQEAX@Z 000000018002e51c     LIBCMT:dll_dllmain.obj
 0004:00000528       $pdata$?dllmain_crt_process_attach@@YAHQEAUHINSTANCE__@@QEAX@Z 000000018002e528     LIBCMT:dll_dllmain.obj
 0004:00000534       $pdata$?dllmain_crt_process_detach@@YAH_N@Z 000000018002e534     LIBCMT:dll_dllmain.obj
 0004:00000540       $pdata$?dllmain_dispatch@@YAHQEAUHINSTANCE__@@KQEAX@Z 000000018002e540     LIBCMT:dll_dllmain.obj
 0004:0000054c       $pdata$_DllMainCRTStartup  000000018002e54c     LIBCMT:dll_dllmain.obj
 0004:00000564       $pdata$??_Gtype_info@@UEAAPEAXI@Z 000000018002e564     LIBCMT:std_type_info_static.obj
 0004:00000570       $pdata$__raise_securityfailure 000000018002e570     LIBCMT:gs_report.obj
 0004:0000057c       $pdata$__report_gsfailure  000000018002e57c     LIBCMT:gs_report.obj
 0004:00000588       $pdata$__report_rangecheckfailure 000000018002e588     LIBCMT:gs_report.obj
 0004:00000594       $pdata$__report_securityfailure 000000018002e594     LIBCMT:gs_report.obj
 0004:000005a0       $pdata$capture_current_context 000000018002e5a0     LIBCMT:gs_report.obj
 0004:000005ac       $pdata$capture_previous_context 000000018002e5ac     LIBCMT:gs_report.obj
 0004:000005b8       $pdata$??0bad_array_new_length@std@@QEAA@AEBV01@@Z 000000018002e5b8     LIBCMT:throw_bad_alloc.obj
 0004:000005c4       $pdata$?__scrt_throw_std_bad_alloc@@YAXXZ 000000018002e5c4     LIBCMT:throw_bad_alloc.obj
 0004:000005d0       $pdata$?__scrt_throw_std_bad_array_new_length@@YAXXZ 000000018002e5d0     LIBCMT:throw_bad_alloc.obj
 0004:000005dc       $pdata$__isa_available_init 000000018002e5dc     LIBCMT:_cpu_disp_.obj
 0004:000005e8       $pdata$__scrt_fastfail     000000018002e5e8     LIBCMT:utility_desktop.obj
 0004:000005f4       $pdata$__security_init_cookie 000000018002e5f4     LIBCMT:gs_support.obj
 0004:00000600       $pdata$__scrt_initialize_default_local_stdio_options 000000018002e600     LIBCMT:default_local_stdio_options.obj
 0004:0000060c       $pdata$_RTC_Initialize     000000018002e60c     LIBCMT:_initsect_.obj
 0004:00000618       $pdata$_RTC_Terminate      000000018002e618     LIBCMT:_initsect_.obj
 0004:00000624       $pdata$__std_exception_copy 000000018002e624     libvcruntime:std_exception.obj
 0004:00000630       $pdata$__std_exception_destroy 000000018002e630     libvcruntime:std_exception.obj
 0004:0000063c       $pdata$_CxxThrowException  000000018002e63c     libvcruntime:throw.obj
 0004:00000648       $pdata$__vcrt_initialize   000000018002e648     libvcruntime:initialization.obj
 0004:00000654       $pdata$__vcrt_thread_attach 000000018002e654     libvcruntime:initialization.obj
 0004:00000660       $pdata$__vcrt_thread_detach 000000018002e660     libvcruntime:initialization.obj
 0004:0000066c       $pdata$__vcrt_uninitialize 000000018002e66c     libvcruntime:initialization.obj
 0004:00000678       $pdata$__vcrt_uninitialize_critical 000000018002e678     libvcruntime:initialization.obj
 0004:00000684       $pdata$__C_specific_handler 000000018002e684     libvcruntime:_riscchandler_.obj
 0004:0000069c       $pdata$__std_type_info_destroy_list 000000018002e69c     libvcruntime:std_type_info.obj
 0004:000006a8       $pdata$__vcrt_freefls      000000018002e6a8     libvcruntime:per_thread_data.obj
 0004:000006b4       $pdata$__vcrt_freeptd      000000018002e6b4     libvcruntime:per_thread_data.obj
 0004:000006c0       $pdata$__vcrt_getptd       000000018002e6c0     libvcruntime:per_thread_data.obj
 0004:000006cc       $pdata$__vcrt_getptd_noexit 000000018002e6cc     libvcruntime:per_thread_data.obj
 0004:000006d8       $pdata$__vcrt_initialize_ptd 000000018002e6d8     libvcruntime:per_thread_data.obj
 0004:000006e4       $pdata$__vcrt_uninitialize_ptd 000000018002e6e4     libvcruntime:per_thread_data.obj
 0004:000006f0       $pdata$__vcrt_initialize_locks 000000018002e6f0     libvcruntime:locks.obj
 0004:000006fc       $pdata$__vcrt_uninitialize_locks 000000018002e6fc     libvcruntime:locks.obj
 0004:00000708       $pdata$?try_get_function@@YAPEAXW4function_id@?A0x89697e75@@QEBDQEBW4module_id@2@2@Z 000000018002e708     libvcruntime:winapi_downlevel.obj
 0004:00000714       $pdata$__vcrt_FlsAlloc     000000018002e714     libvcruntime:winapi_downlevel.obj
 0004:00000720       $pdata$__vcrt_FlsFree      000000018002e720     libvcruntime:winapi_downlevel.obj
 0004:0000072c       $pdata$__vcrt_FlsGetValue  000000018002e72c     libvcruntime:winapi_downlevel.obj
 0004:00000738       $pdata$__vcrt_FlsSetValue  000000018002e738     libvcruntime:winapi_downlevel.obj
 0004:00000744       $pdata$__vcrt_InitializeCriticalSectionEx 000000018002e744     libvcruntime:winapi_downlevel.obj
 0004:00000750       $pdata$__vcrt_initialize_winapi_thunks 000000018002e750     libvcruntime:winapi_downlevel.obj
 0004:0000075c       $pdata$__vcrt_uninitialize_winapi_thunks 000000018002e75c     libvcruntime:winapi_downlevel.obj
 0004:00000798       $pdata$?_ExecutionInCatch@@YAHPEAU_xDISPATCHER_CONTEXT@@PEBU_s_FuncInfo@@@Z 000000018002e798     libvcruntime:risctrnsctrl.obj
 0004:000007a4       $pdata$?_GetEstablisherFrame@@YAPEA_KPEA_KPEAU_xDISPATCHER_CONTEXT@@PEBU_s_FuncInfo@@0@Z 000000018002e7a4     libvcruntime:risctrnsctrl.obj
 0004:000007b0       $pdata$?_GetRangeOfTrysToCheck@@YAPEBU_s_TryBlockMapEntry@@PEA_KPEBU_s_FuncInfo@@HHPEAI2PEAU_xDISPATCHER_CONTEXT@@@Z 000000018002e7b0     libvcruntime:risctrnsctrl.obj
 0004:000007bc       $pdata$?__FrameUnwindToEmptyState@@YAXPEA_KPEAU_xDISPATCHER_CONTEXT@@PEBU_s_FuncInfo@@@Z 000000018002e7bc     libvcruntime:risctrnsctrl.obj
 0004:000007c8       $pdata$_CallSETranslator   000000018002e7c8     libvcruntime:risctrnsctrl.obj
 0004:000007d4       $pdata$_CreateFrameInfo    000000018002e7d4     libvcruntime:risctrnsctrl.obj
 0004:000007e0       $pdata$_FindAndUnlinkFrame 000000018002e7e0     libvcruntime:risctrnsctrl.obj
 0004:000007ec       $pdata$_GetImageBase       000000018002e7ec     libvcruntime:risctrnsctrl.obj
 0004:000007f8       $pdata$_GetThrowImageBase  000000018002e7f8     libvcruntime:risctrnsctrl.obj
 0004:00000804       $pdata$_SetImageBase       000000018002e804     libvcruntime:risctrnsctrl.obj
 0004:00000810       $pdata$_SetThrowImageBase  000000018002e810     libvcruntime:risctrnsctrl.obj
 0004:0000081c       $pdata$_UnwindNestedFrames 000000018002e81c     libvcruntime:risctrnsctrl.obj
 0004:00000828       $pdata$__CxxFrameHandler3  000000018002e828     libvcruntime:risctrnsctrl.obj
 0004:00000840       $pdata$?__GetCurrentState@@YAHPEA_KPEAU_xDISPATCHER_CONTEXT@@PEBU_s_FuncInfo@@@Z 000000018002e840     libvcruntime:riscehstate.obj
 0004:0000084c       $pdata$?__GetUnwindTryBlock@@YAHPEA_KPEAU_xDISPATCHER_CONTEXT@@PEBU_s_FuncInfo@@@Z 000000018002e84c     libvcruntime:riscehstate.obj
 0004:00000858       $pdata$?__SetUnwindTryBlock@@YAXPEA_KPEAU_xDISPATCHER_CONTEXT@@PEBU_s_FuncInfo@@H@Z 000000018002e858     libvcruntime:riscehstate.obj
 0004:00000864       $pdata$?__StateFromIp@@YAHPEBU_s_FuncInfo@@PEAU_xDISPATCHER_CONTEXT@@_K@Z 000000018002e864     libvcruntime:riscehstate.obj
 0004:00000870       $pdata$??0bad_exception@std@@QEAA@AEBV01@@Z 000000018002e870     libvcruntime:frame.obj
 0004:0000087c       $pdata$?CatchIt@@YAXPEAUEHExceptionRecord@@PEA_KPEAU_CONTEXT@@PEAU_xDISPATCHER_CONTEXT@@PEBU_s_FuncInfo@@PEBU_s_HandlerType@@PEBU_s_CatchableType@@PEBU_s_TryBlockMapEntry@@H1EE@Z 000000018002e87c     libvcruntime:frame.obj
 0004:00000888       $pdata$?ExFilterRethrow@@YAHPEAU_EXCEPTION_POINTERS@@PEAUEHExceptionRecord@@PEAH@Z 000000018002e888     libvcruntime:frame.obj
 0004:00000894       $pdata$?FindHandler@@YAXPEAUEHExceptionRecord@@PEA_KPEAU_CONTEXT@@PEAU_xDISPATCHER_CONTEXT@@PEBU_s_FuncInfo@@EH1@Z 000000018002e894     libvcruntime:frame.obj
 0004:000008a0       $pdata$?FindHandlerForForeignException@@YAXPEAUEHExceptionRecord@@PEA_KPEAU_CONTEXT@@PEAU_xDISPATCHER_CONTEXT@@PEBU_s_FuncInfo@@HH1@Z 000000018002e8a0     libvcruntime:frame.obj
 0004:000008ac       $pdata$?IsInExceptionSpec@@YAEPEAUEHExceptionRecord@@PEBU_s_ESTypeList@@@Z 000000018002e8ac     libvcruntime:frame.obj
 0004:000008b8       $pdata$__BuildCatchObject  000000018002e8b8     libvcruntime:frame.obj
 0004:000008c4       $pdata$__BuildCatchObjectHelper 000000018002e8c4     libvcruntime:frame.obj
 0004:000008d0       $pdata$__CxxCallCatchBlock 000000018002e8d0     libvcruntime:frame.obj
 0004:000008dc       $pdata$__FrameUnwindToState 000000018002e8dc     libvcruntime:frame.obj
 0004:000008e8       $pdata$__InternalCxxFrameHandler 000000018002e8e8     libvcruntime:frame.obj
 0004:000008f4       $pdata$__TypeMatch         000000018002e8f4     libvcruntime:frame.obj
 0004:0000090c       $pdata$__DestructExceptionObject 000000018002e90c     libvcruntime:ehhelpers.obj
 0004:00000918       $pdata$_IsExceptionObjectToBeDestroyed 000000018002e918     libvcruntime:ehhelpers.obj
 0004:00000924       $pdata$__FrameUnwindFilter 000000018002e924     libvcruntime:ehhelpers.obj
 0004:00000930       $pdata$__acrt_errno_map_os_error 000000018002e930     libucrt:errno.obj
 0004:0000093c       $pdata$__doserrno          000000018002e93c     libucrt:errno.obj
 0004:00000948       $pdata$_errno              000000018002e948     libucrt:errno.obj
 0004:00000954       $pdata$??$common_assert_to_message_box@_W@@YAXQEB_W0IQEAX@Z 000000018002e954     libucrt:assert.obj
 0004:00000960       $pdata$??$common_assert_to_message_box_build_string@_W@@YAXQEA_W_KQEB_W2IQEAX@Z 000000018002e960     libucrt:assert.obj
 0004:0000096c       $pdata$??$common_assert_to_stderr@_W@@YAXQEB_W0I@Z 000000018002e96c     libucrt:assert.obj
 0004:00000978       $pdata$_wassert            000000018002e978     libucrt:assert.obj
 0004:00000984       $pdata$fwprintf            000000018002e984     libucrt:assert.obj
 0004:00000990       $pdata$swprintf            000000018002e990     libucrt:assert.obj
 0004:0000099c       $pdata$__acrt_call_reportfault 000000018002e99c     libucrt:invalid_parameter.obj
 0004:000009a8       $pdata$_invalid_parameter  000000018002e9a8     libucrt:invalid_parameter.obj
 0004:000009b4       $pdata$_invalid_parameter_noinfo 000000018002e9b4     libucrt:invalid_parameter.obj
 0004:000009c0       $pdata$_invalid_parameter_noinfo_noreturn 000000018002e9c0     libucrt:invalid_parameter.obj
 0004:000009cc       $pdata$_invoke_watson      000000018002e9cc     libucrt:invalid_parameter.obj
 0004:000009d8       $pdata$??$?RV<lambda_0d412022a4b28cc8a401ea49574e8ae6>@@AEAV<lambda_a775ed57af18ba8e4d5dc780aa9068fe>@@V<lambda_975a71a6baa488a08f4e15f6b0339b9e>@@@?$__crt_seh_guarded_call@H@@QEAAH$$QEAV<lambda_0d412022a4b28cc8a401ea49574e8ae6>@@AEAV<lambda_a775ed57af18ba8e4d5dc780aa9068fe>@@$$QEAV<lambda_975a71a6baa488a08f4e15f6b0339b9e>@@@Z 000000018002e9d8     libucrt:output.obj
 0004:000009e4       $pdata$??$common_vsprintf@Vstandard_base@__crt_stdio_output@@D@@YAH_KQEAD0QEBDQEAU__crt_locale_pointers@@1@Z 000000018002e9e4     libucrt:output.obj
 0004:000009f0       $pdata$??$common_vsprintf@Vstandard_base@__crt_stdio_output@@_W@@YAH_KQEA_W0QEB_WQEAU__crt_locale_pointers@@QEAD@Z 000000018002e9f0     libucrt:output.obj
 0004:000009fc       $pdata$??$ensure_buffer_is_big_enough@D@formatting_buffer@__crt_stdio_output@@QEAA_N_K@Z 000000018002e9fc     libucrt:output.obj
 0004:00000a08       $pdata$??$ensure_buffer_is_big_enough@_W@formatting_buffer@__crt_stdio_output@@QEAA_N_K@Z 000000018002ea08     libucrt:output.obj
 0004:00000a14       $pdata$??$type_case_integer_parse_into_buffer@I@?$output_processor@DV?$string_output_adapter@D@__crt_stdio_output@@V?$standard_base@DV?$string_output_adapter@D@__crt_stdio_output@@@2@@__crt_stdio_output@@AEAAXII_N@Z 000000018002ea14     libucrt:output.obj
 0004:00000a20       $pdata$??$type_case_integer_parse_into_buffer@I@?$output_processor@_WV?$stream_output_adapter@_W@__crt_stdio_output@@V?$standard_base@_WV?$stream_output_adapter@_W@__crt_stdio_output@@@2@@__crt_stdio_output@@AEAAXII_N@Z 000000018002ea20     libucrt:output.obj
 0004:00000a20       $pdata$??$type_case_integer_parse_into_buffer@I@?$output_processor@_WV?$string_output_adapter@_W@__crt_stdio_output@@V?$standard_base@_WV?$string_output_adapter@_W@__crt_stdio_output@@@2@@__crt_stdio_output@@AEAAXII_N@Z 000000018002ea20     libucrt:output.obj
 0004:00000a2c       $pdata$??$type_case_integer_parse_into_buffer@_K@?$output_processor@DV?$string_output_adapter@D@__crt_stdio_output@@V?$standard_base@DV?$string_output_adapter@D@__crt_stdio_output@@@2@@__crt_stdio_output@@AEAAX_KI_N@Z 000000018002ea2c     libucrt:output.obj
 0004:00000a38       $pdata$??$type_case_integer_parse_into_buffer@_K@?$output_processor@_WV?$stream_output_adapter@_W@__crt_stdio_output@@V?$standard_base@_WV?$stream_output_adapter@_W@__crt_stdio_output@@@2@@__crt_stdio_output@@AEAAX_KI_N@Z 000000018002ea38     libucrt:output.obj
 0004:00000a38       $pdata$??$type_case_integer_parse_into_buffer@_K@?$output_processor@_WV?$string_output_adapter@_W@__crt_stdio_output@@V?$standard_base@_WV?$string_output_adapter@_W@__crt_stdio_output@@@2@@__crt_stdio_output@@AEAAX_KI_N@Z 000000018002ea38     libucrt:output.obj
 0004:00000a44       $pdata$??$write_multiple_characters@V?$stream_output_adapter@_W@__crt_stdio_output@@D@__crt_stdio_output@@YAXAEBV?$stream_output_adapter@_W@0@DHQEAH@Z 000000018002ea44     libucrt:output.obj
 0004:00000a50       $pdata$??$write_multiple_characters@V?$string_output_adapter@D@__crt_stdio_output@@D@__crt_stdio_output@@YAXAEBV?$string_output_adapter@D@0@DHQEAH@Z 000000018002ea50     libucrt:output.obj
 0004:00000a5c       $pdata$??$write_multiple_characters@V?$string_output_adapter@_W@__crt_stdio_output@@D@__crt_stdio_output@@YAXAEBV?$string_output_adapter@_W@0@DHQEAH@Z 000000018002ea5c     libucrt:output.obj
 0004:00000a68       $pdata$??0_LocaleUpdate@@QEAA@QEAU__crt_locale_pointers@@@Z 000000018002ea68     libucrt:output.obj
 0004:00000a74       $pdata$??R<lambda_a775ed57af18ba8e4d5dc780aa9068fe>@@QEBAHXZ 000000018002ea74     libucrt:output.obj
 0004:00000a80       $pdata$?force_decimal_point@__crt_stdio_output@@YAXPEADQEAU__crt_locale_pointers@@@Z 000000018002ea80     libucrt:output.obj
 0004:00000a8c       $pdata$?parse_int_from_format_string@?$output_processor@DV?$string_output_adapter@D@__crt_stdio_output@@V?$standard_base@DV?$string_output_adapter@D@__crt_stdio_output@@@2@@__crt_stdio_output@@AEAA_NQEAH@Z 000000018002ea8c     libucrt:output.obj
 0004:00000a98       $pdata$?parse_int_from_format_string@?$output_processor@_WV?$string_output_adapter@_W@__crt_stdio_output@@V?$standard_base@_WV?$string_output_adapter@_W@__crt_stdio_output@@@2@@__crt_stdio_output@@AEAA_NQEAH@Z 000000018002ea98     libucrt:output.obj
 0004:00000a98       $pdata$?parse_int_from_format_string@?$output_processor@_WV?$stream_output_adapter@_W@__crt_stdio_output@@V?$standard_base@_WV?$stream_output_adapter@_W@__crt_stdio_output@@@2@@__crt_stdio_output@@AEAA_NQEAH@Z 000000018002ea98     libucrt:output.obj
 0004:00000aa4       $pdata$?process@?$output_processor@DV?$string_output_adapter@D@__crt_stdio_output@@V?$standard_base@DV?$string_output_adapter@D@__crt_stdio_output@@@2@@__crt_stdio_output@@QEAAHXZ 000000018002eaa4     libucrt:output.obj
 0004:00000ab0       $pdata$?process@?$output_processor@_WV?$stream_output_adapter@_W@__crt_stdio_output@@V?$standard_base@_WV?$stream_output_adapter@_W@__crt_stdio_output@@@2@@__crt_stdio_output@@QEAAHXZ 000000018002eab0     libucrt:output.obj
 0004:00000abc       $pdata$?process@?$output_processor@_WV?$string_output_adapter@_W@__crt_stdio_output@@V?$standard_base@_WV?$string_output_adapter@_W@__crt_stdio_output@@@2@@__crt_stdio_output@@QEAAHXZ 000000018002eabc     libucrt:output.obj
 0004:00000ac8       $pdata$?state_case_normal@?$output_processor@DV?$string_output_adapter@D@__crt_stdio_output@@V?$standard_base@DV?$string_output_adapter@D@__crt_stdio_output@@@2@@__crt_stdio_output@@AEAA_NXZ 000000018002eac8     libucrt:output.obj
 0004:00000ad4       $pdata$?state_case_normal_tchar@?$output_processor@DV?$string_output_adapter@D@__crt_stdio_output@@V?$standard_base@DV?$string_output_adapter@D@__crt_stdio_output@@@2@@__crt_stdio_output@@AEAA_ND@Z 000000018002ead4     libucrt:output.obj
 0004:00000ae0       $pdata$?state_case_size@?$output_processor@DV?$string_output_adapter@D@__crt_stdio_output@@V?$standard_base@DV?$string_output_adapter@D@__crt_stdio_output@@@2@@__crt_stdio_output@@AEAA_NXZ 000000018002eae0     libucrt:output.obj
 0004:00000aec       $pdata$?state_case_size@?$output_processor@_WV?$stream_output_adapter@_W@__crt_stdio_output@@V?$standard_base@_WV?$stream_output_adapter@_W@__crt_stdio_output@@@2@@__crt_stdio_output@@AEAA_NXZ 000000018002eaec     libucrt:output.obj
 0004:00000af8       $pdata$?state_case_size@?$output_processor@_WV?$string_output_adapter@_W@__crt_stdio_output@@V?$standard_base@_WV?$string_output_adapter@_W@__crt_stdio_output@@@2@@__crt_stdio_output@@AEAA_NXZ 000000018002eaf8     libucrt:output.obj
 0004:00000b04       $pdata$?state_case_type@?$output_processor@DV?$string_output_adapter@D@__crt_stdio_output@@V?$standard_base@DV?$string_output_adapter@D@__crt_stdio_output@@@2@@__crt_stdio_output@@AEAA_NXZ 000000018002eb04     libucrt:output.obj
 0004:00000b10       $pdata$?state_case_type@?$output_processor@_WV?$stream_output_adapter@_W@__crt_stdio_output@@V?$standard_base@_WV?$stream_output_adapter@_W@__crt_stdio_output@@@2@@__crt_stdio_output@@AEAA_NXZ 000000018002eb10     libucrt:output.obj
 0004:00000b1c       $pdata$?state_case_type@?$output_processor@_WV?$string_output_adapter@_W@__crt_stdio_output@@V?$standard_base@_WV?$string_output_adapter@_W@__crt_stdio_output@@@2@@__crt_stdio_output@@AEAA_NXZ 000000018002eb1c     libucrt:output.obj
 0004:00000b28       $pdata$?type_case_Z@?$output_processor@_WV?$stream_output_adapter@_W@__crt_stdio_output@@V?$standard_base@_WV?$stream_output_adapter@_W@__crt_stdio_output@@@2@@__crt_stdio_output@@AEAA_NXZ 000000018002eb28     libucrt:output.obj
 0004:00000b28       $pdata$?type_case_Z@?$output_processor@_WV?$string_output_adapter@_W@__crt_stdio_output@@V?$standard_base@_WV?$string_output_adapter@_W@__crt_stdio_output@@@2@@__crt_stdio_output@@AEAA_NXZ 000000018002eb28     libucrt:output.obj
 0004:00000b34       $pdata$?type_case_a@?$output_processor@DV?$string_output_adapter@D@__crt_stdio_output@@V?$standard_base@DV?$string_output_adapter@D@__crt_stdio_output@@@2@@__crt_stdio_output@@AEAA_NXZ 000000018002eb34     libucrt:output.obj
 0004:00000b40       $pdata$?type_case_a@?$output_processor@_WV?$string_output_adapter@_W@__crt_stdio_output@@V?$standard_base@_WV?$string_output_adapter@_W@__crt_stdio_output@@@2@@__crt_stdio_output@@AEAA_NXZ 000000018002eb40     libucrt:output.obj
 0004:00000b40       $pdata$?type_case_a@?$output_processor@_WV?$stream_output_adapter@_W@__crt_stdio_output@@V?$standard_base@_WV?$stream_output_adapter@_W@__crt_stdio_output@@@2@@__crt_stdio_output@@AEAA_NXZ 000000018002eb40     libucrt:output.obj
 0004:00000b4c       $pdata$?type_case_c_tchar@?$output_processor@DV?$string_output_adapter@D@__crt_stdio_output@@V?$standard_base@DV?$string_output_adapter@D@__crt_stdio_output@@@2@@__crt_stdio_output@@AEAA_ND@Z 000000018002eb4c     libucrt:output.obj
 0004:00000b58       $pdata$?type_case_c_tchar@?$output_processor@_WV?$string_output_adapter@_W@__crt_stdio_output@@V?$standard_base@_WV?$string_output_adapter@_W@__crt_stdio_output@@@2@@__crt_stdio_output@@AEAA_N_W@Z 000000018002eb58     libucrt:output.obj
 0004:00000b58       $pdata$?type_case_c_tchar@?$output_processor@_WV?$stream_output_adapter@_W@__crt_stdio_output@@V?$standard_base@_WV?$stream_output_adapter@_W@__crt_stdio_output@@@2@@__crt_stdio_output@@AEAA_N_W@Z 000000018002eb58     libucrt:output.obj
 0004:00000b64       $pdata$?type_case_integer@?$output_processor@DV?$string_output_adapter@D@__crt_stdio_output@@V?$standard_base@DV?$string_output_adapter@D@__crt_stdio_output@@@2@@__crt_stdio_output@@AEAA_NI_N@Z 000000018002eb64     libucrt:output.obj
 0004:00000b70       $pdata$?type_case_integer@?$output_processor@_WV?$stream_output_adapter@_W@__crt_stdio_output@@V?$standard_base@_WV?$stream_output_adapter@_W@__crt_stdio_output@@@2@@__crt_stdio_output@@AEAA_NI_N@Z 000000018002eb70     libucrt:output.obj
 0004:00000b70       $pdata$?type_case_integer@?$output_processor@_WV?$string_output_adapter@_W@__crt_stdio_output@@V?$standard_base@_WV?$string_output_adapter@_W@__crt_stdio_output@@@2@@__crt_stdio_output@@AEAA_NI_N@Z 000000018002eb70     libucrt:output.obj
 0004:00000b7c       $pdata$?type_case_n@?$output_processor@_WV?$string_output_adapter@_W@__crt_stdio_output@@V?$standard_base@_WV?$string_output_adapter@_W@__crt_stdio_output@@@2@@__crt_stdio_output@@AEAA_NXZ 000000018002eb7c     libucrt:output.obj
 0004:00000b7c       $pdata$?type_case_n@?$output_processor@_WV?$stream_output_adapter@_W@__crt_stdio_output@@V?$standard_base@_WV?$stream_output_adapter@_W@__crt_stdio_output@@@2@@__crt_stdio_output@@AEAA_NXZ 000000018002eb7c     libucrt:output.obj
 0004:00000b7c       $pdata$?type_case_n@?$output_processor@DV?$string_output_adapter@D@__crt_stdio_output@@V?$standard_base@DV?$string_output_adapter@D@__crt_stdio_output@@@2@@__crt_stdio_output@@AEAA_NXZ 000000018002eb7c     libucrt:output.obj
 0004:00000b88       $pdata$?type_case_s@?$output_processor@DV?$string_output_adapter@D@__crt_stdio_output@@V?$standard_base@DV?$string_output_adapter@D@__crt_stdio_output@@@2@@__crt_stdio_output@@AEAA_NXZ 000000018002eb88     libucrt:output.obj
 0004:00000b94       $pdata$?type_case_s@?$output_processor@_WV?$string_output_adapter@_W@__crt_stdio_output@@V?$standard_base@_WV?$string_output_adapter@_W@__crt_stdio_output@@@2@@__crt_stdio_output@@AEAA_NXZ 000000018002eb94     libucrt:output.obj
 0004:00000b94       $pdata$?type_case_s@?$output_processor@_WV?$stream_output_adapter@_W@__crt_stdio_output@@V?$standard_base@_WV?$stream_output_adapter@_W@__crt_stdio_output@@@2@@__crt_stdio_output@@AEAA_NXZ 000000018002eb94     libucrt:output.obj
 0004:00000ba0       $pdata$?write_stored_string_tchar@?$output_processor@DV?$string_output_adapter@D@__crt_stdio_output@@V?$standard_base@DV?$string_output_adapter@D@__crt_stdio_output@@@2@@__crt_stdio_output@@AEAA_ND@Z 000000018002eba0     libucrt:output.obj
 0004:00000bac       $pdata$?write_stored_string_tchar@?$output_processor@_WV?$stream_output_adapter@_W@__crt_stdio_output@@V?$standard_base@_WV?$stream_output_adapter@_W@__crt_stdio_output@@@2@@__crt_stdio_output@@AEAA_N_W@Z 000000018002ebac     libucrt:output.obj
 0004:00000bb8       $pdata$?write_stored_string_tchar@?$output_processor@_WV?$string_output_adapter@_W@__crt_stdio_output@@V?$standard_base@_WV?$string_output_adapter@_W@__crt_stdio_output@@@2@@__crt_stdio_output@@AEAA_N_W@Z 000000018002ebb8     libucrt:output.obj
 0004:00000bc4       $pdata$?write_string@?$string_output_adapter@D@__crt_stdio_output@@QEBAXQEBDHQEAHAEAV__crt_deferred_errno_cache@@@Z 000000018002ebc4     libucrt:output.obj
 0004:00000bd0       $pdata$?write_string@?$string_output_adapter@_W@__crt_stdio_output@@QEBAXQEB_WHQEAHAEAV__crt_deferred_errno_cache@@@Z 000000018002ebd0     libucrt:output.obj
 0004:00000bdc       $pdata$?write_string_impl@?$output_adapter_common@_WV?$stream_output_adapter@_W@__crt_stdio_output@@@__crt_stdio_output@@IEBAXQEB_WHQEAHAEAV__crt_deferred_errno_cache@@@Z 000000018002ebdc     libucrt:output.obj
 0004:00000be8       $pdata$__stdio_common_vfwprintf 000000018002ebe8     libucrt:output.obj
 0004:00000bf4       $pdata$abort               000000018002ebf4     libucrt:abort.obj
 0004:00000c00       $pdata$_callnewh           000000018002ec00     libucrt:new_handler.obj
 0004:00000c0c       $pdata$_query_new_handler  000000018002ec0c     libucrt:new_handler.obj
 0004:00000c18       $pdata$_seh_filter_exe     000000018002ec18     libucrt:exception_filter.obj
 0004:00000c24       $pdata$??$?RV<lambda_d80eeec6fff315bfe5c115232f3240e3>@@AEAV<lambda_6e4b09c48022b2350581041d5f6b0c4c>@@V<lambda_2358e3775559c9db80273638284d5e45>@@@?$__crt_seh_guarded_call@X@@QEAAX$$QEAV<lambda_d80eeec6fff315bfe5c115232f3240e3>@@AEAV<lambda_6e4b09c48022b2350581041d5f6b0c4c>@@$$QEAV<lambda_2358e3775559c9db80273638284d5e45>@@@Z 000000018002ec24     libucrt:exit.obj
 0004:00000c30       $pdata$??R<lambda_6e4b09c48022b2350581041d5f6b0c4c>@@QEBA@XZ 000000018002ec30     libucrt:exit.obj
 0004:00000c3c       $pdata$?common_exit@@YAXHW4_crt_exit_cleanup_mode@@W4_crt_exit_return_mode@@@Z 000000018002ec3c     libucrt:exit.obj
 0004:00000c48       $pdata$?exit_or_terminate_process@@YAXI@Z 000000018002ec48     libucrt:exit.obj
 0004:00000c54       $pdata$?try_cor_exit_process@@YAXI@Z 000000018002ec54     libucrt:exit.obj
 0004:00000c60       $pdata$??$parse_command_line@D@@YAXPEADPEAPEAD0PEA_K2@Z 000000018002ec60     libucrt:argv_parsing.obj
 0004:00000c6c       $pdata$__acrt_allocate_buffer_for_argv 000000018002ec6c     libucrt:argv_parsing.obj
 0004:00000c78       $pdata$_configure_narrow_argv 000000018002ec78     libucrt:argv_parsing.obj
 0004:00000c84       $pdata$??$common_initialize_environment_nolock@D@@YAHXZ 000000018002ec84     libucrt:environment_initialization.obj
 0004:00000c90       $pdata$??$create_environment@D@@YAQEAPEADQEAD@Z 000000018002ec90     libucrt:environment_initialization.obj
 0004:00000c9c       $pdata$??$free_environment@_W@@YAXQEAPEA_W@Z 000000018002ec9c     libucrt:environment_initialization.obj
 0004:00000c9c       $pdata$??$free_environment@D@@YAXQEAPEAD@Z 000000018002ec9c     libucrt:environment_initialization.obj
 0004:00000ca8       $pdata$??$uninitialize_environment_internal@D@@YAXAEAPEAPEAD@Z 000000018002eca8     libucrt:environment_initialization.obj
 0004:00000cb4       $pdata$??$uninitialize_environment_internal@_W@@YAXAEAPEAPEA_W@Z 000000018002ecb4     libucrt:environment_initialization.obj
 0004:00000cc0       $pdata$__dcrt_uninitialize_environments_nolock 000000018002ecc0     libucrt:environment_initialization.obj
 0004:00000ccc       $pdata$??$?RV<lambda_7777bce6b2f8c936911f934f8298dc43>@@AEAV<lambda_f03950bc5685219e0bcd2087efbe011e>@@V<lambda_3883c3dff614d5e0c5f61bb1ac94921c>@@@?$__crt_seh_guarded_call@H@@QEAAH$$QEAV<lambda_7777bce6b2f8c936911f934f8298dc43>@@AEAV<lambda_f03950bc5685219e0bcd2087efbe011e>@@$$QEAV<lambda_3883c3dff614d5e0c5f61bb1ac94921c>@@@Z 000000018002eccc     libucrt:onexit.obj
 0004:00000cd8       $pdata$??$?RV<lambda_8369fcb7c4df1e85de37618bd2b85f07>@@AEAV<lambda_a10e4b102d4a2c3aac6f4f48bbdf488f>@@V<lambda_5b7707bd6d7a0c4713179f36c7fd995d>@@@?$__crt_seh_guarded_call@H@@QEAAH$$QEAV<lambda_8369fcb7c4df1e85de37618bd2b85f07>@@AEAV<lambda_a10e4b102d4a2c3aac6f4f48bbdf488f>@@$$QEAV<lambda_5b7707bd6d7a0c4713179f36c7fd995d>@@@Z 000000018002ecd8     libucrt:onexit.obj
 0004:00000ce4       $pdata$??R<lambda_a10e4b102d4a2c3aac6f4f48bbdf488f>@@QEBAHXZ 000000018002ece4     libucrt:onexit.obj
 0004:00000cf0       $pdata$??R<lambda_f03950bc5685219e0bcd2087efbe011e>@@QEBAHXZ 000000018002ecf0     libucrt:onexit.obj
 0004:00000cfc       $pdata$_execute_onexit_table 000000018002ecfc     libucrt:onexit.obj
 0004:00000d08       $pdata$_register_onexit_function 000000018002ed08     libucrt:onexit.obj
 0004:00000d14       $pdata$initialize_c        000000018002ed14     libucrt:initialization.obj
 0004:00000d20       $pdata$uninitialize_environment 000000018002ed20     libucrt:initialization.obj
 0004:00000d2c       $pdata$initialize_pointers 000000018002ed2c     libucrt:initialization.obj
 0004:00000d38       $pdata$uninitialize_allocated_memory 000000018002ed38     libucrt:initialization.obj
 0004:00000d44       $pdata$uninitialize_allocated_io_buffers 000000018002ed44     libucrt:initialization.obj
 0004:00000d50       $pdata$__acrt_thread_attach 000000018002ed50     libucrt:initialization.obj
 0004:00000d5c       $pdata$__acrt_thread_detach 000000018002ed5c     libucrt:initialization.obj
 0004:00000d68       $pdata$__acrt_uninitialize 000000018002ed68     libucrt:initialization.obj
 0004:00000d74       $pdata$__acrt_uninitialize_critical 000000018002ed74     libucrt:initialization.obj
 0004:00000d80       $pdata$_initterm           000000018002ed80     libucrt:initterm.obj
 0004:00000d8c       $pdata$_initterm_e         000000018002ed8c     libucrt:initterm.obj
 0004:00000d98       $pdata$terminate           000000018002ed98     libucrt:terminate.obj
 0004:00000da4       $pdata$strcpy_s            000000018002eda4     libucrt:strcpy_s.obj
 0004:00000db0       $pdata$??$parse_integer@KV?$c_string_character_source@D@__crt_strtox@@@__crt_strtox@@YAKQEAU__crt_locale_pointers@@V?$c_string_character_source@D@0@H_N@Z 000000018002edb0     libucrt:atox.obj
 0004:00000dbc       $pdata$??$parse_integer@KV?$c_string_character_source@_W@__crt_strtox@@@__crt_strtox@@YAKQEAU__crt_locale_pointers@@V?$c_string_character_source@_W@0@H_N@Z 000000018002edbc     libucrt:atox.obj
 0004:00000dd4       $pdata$??$?RV<lambda_0ae27a3a962d80f24befdcbee591983d>@@AEAV<lambda_8d0ee55de4b1038c4002e0adecdf1839>@@V<lambda_dc504788e8f1664fe9b84e20bfb512f2>@@@?$__crt_seh_guarded_call@X@@QEAAX$$QEAV<lambda_0ae27a3a962d80f24befdcbee591983d>@@AEAV<lambda_8d0ee55de4b1038c4002e0adecdf1839>@@$$QEAV<lambda_dc504788e8f1664fe9b84e20bfb512f2>@@@Z 000000018002edd4     libucrt:per_thread_data.obj
 0004:00000de0       $pdata$??$?RV<lambda_2d41944a1d46af3157314b8a01080d33>@@AEAV<lambda_8f455de75cd7d7f24b4096f044d8b9e6>@@V<lambda_aa500f224e6afead328df44964fe2772>@@@?$__crt_seh_guarded_call@X@@QEAAX$$QEAV<lambda_2d41944a1d46af3157314b8a01080d33>@@AEAV<lambda_8f455de75cd7d7f24b4096f044d8b9e6>@@$$QEAV<lambda_aa500f224e6afead328df44964fe2772>@@@Z 000000018002ede0     libucrt:per_thread_data.obj
 0004:00000dec       $pdata$??$?RV<lambda_aa87e3671a710a21b5dc78c0bdf72e11>@@AEAV<lambda_92619d2358a28f41a33ba319515a20b9>@@V<lambda_6992ecaafeb10aed2b74cb1fae11a551>@@@?$__crt_seh_guarded_call@X@@QEAAX$$QEAV<lambda_aa87e3671a710a21b5dc78c0bdf72e11>@@AEAV<lambda_92619d2358a28f41a33ba319515a20b9>@@$$QEAV<lambda_6992ecaafeb10aed2b74cb1fae11a551>@@@Z 000000018002edec     libucrt:per_thread_data.obj
 0004:00000df8       $pdata$??$?RV<lambda_f2e299630e499de9f9a165e60fcd3db5>@@AEAV<lambda_2ae9d31cdba2644fcbeaf08da7c24588>@@V<lambda_40d01ff24d0e7b3814fdbdcee8eab3c7>@@@?$__crt_seh_guarded_call@X@@QEAAX$$QEAV<lambda_f2e299630e499de9f9a165e60fcd3db5>@@AEAV<lambda_2ae9d31cdba2644fcbeaf08da7c24588>@@$$QEAV<lambda_40d01ff24d0e7b3814fdbdcee8eab3c7>@@@Z 000000018002edf8     libucrt:per_thread_data.obj
 0004:00000e04       $pdata$?construct_ptd_array@@YAXQEAU__acrt_ptd@@@Z 000000018002ee04     libucrt:per_thread_data.obj
 0004:00000e10       $pdata$?destroy_fls@@YAXPEAX@Z 000000018002ee10     libucrt:per_thread_data.obj
 0004:00000e1c       $pdata$?destroy_ptd_array@@YAXQEAU__acrt_ptd@@@Z 000000018002ee1c     libucrt:per_thread_data.obj
 0004:00000e28       $pdata$?replace_current_thread_locale_nolock@@YAXQEAU__acrt_ptd@@QEAU__crt_locale_data@@@Z 000000018002ee28     libucrt:per_thread_data.obj
 0004:00000e34       $pdata$__acrt_freeptd      000000018002ee34     libucrt:per_thread_data.obj
 0004:00000e40       $pdata$__acrt_getptd       000000018002ee40     libucrt:per_thread_data.obj
 0004:00000e4c       $pdata$__acrt_getptd_head  000000018002ee4c     libucrt:per_thread_data.obj
 0004:00000e58       $pdata$__acrt_getptd_noexit 000000018002ee58     libucrt:per_thread_data.obj
 0004:00000e64       $pdata$__acrt_initialize_ptd 000000018002ee64     libucrt:per_thread_data.obj
 0004:00000e70       $pdata$__acrt_uninitialize_ptd 000000018002ee70     libucrt:per_thread_data.obj
 0004:00000e7c       $pdata$??$common_xtox@K_W@@YAHKQEA_W_KI_N@Z 000000018002ee7c     libucrt:xtoa.obj
 0004:00000e88       $pdata$??$common_xtox_s@K_W@@YAHKQEA_W_KI_N@Z 000000018002ee88     libucrt:xtoa.obj
 0004:00000e94       $pdata$_itow_s             000000018002ee94     libucrt:xtoa.obj
 0004:00000ea0       $pdata$_set_error_mode     000000018002eea0     libucrt:set_error_mode.obj
 0004:00000eac       $pdata$wcscat_s            000000018002eeac     libucrt:wcscat_s.obj
 0004:00000eb8       $pdata$wcscpy_s            000000018002eeb8     libucrt:wcscpy_s.obj
 0004:00000ec4       $pdata$wcsncat_s           000000018002eec4     libucrt:wcsncat_s.obj
 0004:00000ed0       $pdata$__acrt_GetModuleFileNameA 000000018002eed0     libucrt:getmodulefilenamea.obj
 0004:00000edc       $pdata$__acrt_show_wide_message_box 000000018002eedc     libucrt:crtmbox.obj
 0004:00000ee8       $pdata$__acrt_initialize_stdio 000000018002eee8     libucrt:_file.obj
 0004:00000ef4       $pdata$__acrt_uninitialize_stdio 000000018002eef4     libucrt:_file.obj
 0004:00000f00       $pdata$??$?RV<lambda_842d9ff0dc9ef11c61343bbaebe7f885>@@AEAV<lambda_c5860995281e5c4ce005b3de8f5874ee>@@V<lambda_d90129c13df834fdcbf8d2b88dafcf2d>@@@?$__crt_seh_guarded_call@X@@QEAAX$$QEAV<lambda_842d9ff0dc9ef11c61343bbaebe7f885>@@AEAV<lambda_c5860995281e5c4ce005b3de8f5874ee>@@$$QEAV<lambda_d90129c13df834fdcbf8d2b88dafcf2d>@@@Z 000000018002ef00     libucrt:fflush.obj
 0004:00000f0c       $pdata$??$?RV<lambda_886d6c58226a84441f68b9f2b8217b83>@@AEAV<lambda_ab61a845afdef5b7c387490eaf3616ee>@@V<lambda_f7f22ab5edc0698d5f6905b0d3f44752>@@@?$__crt_seh_guarded_call@X@@QEAAX$$QEAV<lambda_886d6c58226a84441f68b9f2b8217b83>@@AEAV<lambda_ab61a845afdef5b7c387490eaf3616ee>@@$$QEAV<lambda_f7f22ab5edc0698d5f6905b0d3f44752>@@@Z 000000018002ef0c     libucrt:fflush.obj
 0004:00000f18       $pdata$??$?RV<lambda_c376a267cfb53b6959b3b692ec76b120>@@AEAV<lambda_9a32fed5bf61b6b509b2d3f6003082a1>@@V<lambda_572fbb9fa0ab338edf41edfd4b5fcc8d>@@@?$__crt_seh_guarded_call@H@@QEAAH$$QEAV<lambda_c376a267cfb53b6959b3b692ec76b120>@@AEAV<lambda_9a32fed5bf61b6b509b2d3f6003082a1>@@$$QEAV<lambda_572fbb9fa0ab338edf41edfd4b5fcc8d>@@@Z 000000018002ef18     libucrt:fflush.obj
 0004:00000f24       $pdata$?common_flush_all@@YAH_N@Z 000000018002ef24     libucrt:fflush.obj
 0004:00000f30       $pdata$__acrt_stdio_flush_nolock 000000018002ef30     libucrt:fflush.obj
 0004:00000f3c       $pdata$_fflush_nolock      000000018002ef3c     libucrt:fflush.obj
 0004:00000f48       $pdata$fflush              000000018002ef48     libucrt:fflush.obj
 0004:00000f54       $pdata$??$?RV<lambda_84ec643ea9557e2f7dc01bb0e9624395>@@AEAV<lambda_ca71763b3c0644891230e4f79ea54fa6>@@V<lambda_439a761618c59b0600e24586724d733b>@@@?$__crt_seh_guarded_call@H@@QEAAH$$QEAV<lambda_84ec643ea9557e2f7dc01bb0e9624395>@@AEAV<lambda_ca71763b3c0644891230e4f79ea54fa6>@@$$QEAV<lambda_439a761618c59b0600e24586724d733b>@@@Z 000000018002ef54     libucrt:setvbuf.obj
 0004:00000f60       $pdata$??R<lambda_ca71763b3c0644891230e4f79ea54fa6>@@QEBAHXZ 000000018002ef60     libucrt:setvbuf.obj
 0004:00000f6c       $pdata$setvbuf             000000018002ef6c     libucrt:setvbuf.obj
 0004:00000f78       $pdata$??$?RV<lambda_450d765d439847d4c735a33c368b5fc0>@@AEAV<lambda_44731a7d0e6d81c3e6aa82d741081786>@@V<lambda_601a2a7da3b7a96e9554ac7215c4b07c>@@@?$__crt_seh_guarded_call@P6AXH@Z@@QEAAP6AXH@Z$$QEAV<lambda_450d765d439847d4c735a33c368b5fc0>@@AEAV<lambda_44731a7d0e6d81c3e6aa82d741081786>@@$$QEAV<lambda_601a2a7da3b7a96e9554ac7215c4b07c>@@@Z 000000018002ef78     libucrt:signal.obj
 0004:00000f84       $pdata$__acrt_get_sigabrt_handler 000000018002ef84     libucrt:signal.obj
 0004:00000f90       $pdata$raise               000000018002ef90     libucrt:signal.obj
 0004:00000f9c       $pdata$isdigit             000000018002ef9c     libucrt:_ctype.obj
 0004:00000fa8       $pdata$?internal_isupper_l@@YA_NHQEAU__crt_locale_pointers@@@Z 000000018002efa8     libucrt:tolower_toupper.obj
 0004:00000fb4       $pdata$_tolower_l          000000018002efb4     libucrt:tolower_toupper.obj
 0004:00000fc0       $pdata$tolower             000000018002efc0     libucrt:tolower_toupper.obj
 0004:00000fcc       $pdata$_free_base          000000018002efcc     libucrt:free_base.obj
 0004:00000fd8       $pdata$_malloc_base        000000018002efd8     libucrt:malloc_base.obj
 0004:00000fe4       $pdata$strtol              000000018002efe4     libucrt:strtox.obj
 0004:00000ff0       $pdata$wcstol              000000018002eff0     libucrt:strtox.obj
 0004:00000ffc       $pdata$_mbtowc_l           000000018002effc     libucrt:mbtowc.obj
 0004:00001008       $pdata$_wctomb_s_l         000000018002f008     libucrt:wctomb.obj
 0004:00001014       $pdata$wctomb_s            000000018002f014     libucrt:wctomb.obj
 0004:00001020       $pdata$__acrt_update_locale_info 000000018002f020     libucrt:locale_update.obj
 0004:0000102c       $pdata$__acrt_update_multibyte_info 000000018002f02c     libucrt:locale_update.obj
 0004:00001038       $pdata$?fp_format_a@@YAHQEBNPEAD_KQEAD2H_NIQEAU__crt_locale_pointers@@@Z 000000018002f038     libucrt:cvt.obj
 0004:00001044       $pdata$?fp_format_e@@YAHQEBNQEAD_K12H_NIQEAU__crt_locale_pointers@@@Z 000000018002f044     libucrt:cvt.obj
 0004:00001050       $pdata$?fp_format_e_internal@@YAHQEAD_KH_NIQEAU_strflt@@2QEAU__crt_locale_pointers@@@Z 000000018002f050     libucrt:cvt.obj
 0004:0000105c       $pdata$?fp_format_f_internal@@YAHQEAD_KHQEAU_strflt@@_NQEAU__crt_locale_pointers@@@Z 000000018002f05c     libucrt:cvt.obj
 0004:00001068       $pdata$?fp_format_g@@YAHQEBNQEAD_K12H_NIQEAU__crt_locale_pointers@@@Z 000000018002f068     libucrt:cvt.obj
 0004:00001074       $pdata$?fp_format_nan_or_infinity@@YAHW4__acrt_fp_class@@_NPEAD_K1@Z 000000018002f074     libucrt:cvt.obj
 0004:00001080       $pdata$__acrt_fp_format    000000018002f080     libucrt:cvt.obj
 0004:0000108c       $pdata$_fputwc_nolock      000000018002f08c     libucrt:fputwc.obj
 0004:00001098       $pdata$_fileno             000000018002f098     libucrt:fileno.obj
 0004:000010a4       $pdata$__acrt_stdio_begin_temporary_buffering_nolock 000000018002f0a4     libucrt:_sftbuf.obj
 0004:000010b0       $pdata$__acrt_stdio_end_temporary_buffering_nolock 000000018002f0b0     libucrt:_sftbuf.obj
 0004:000010bc       $pdata$??$?RV<lambda_410d79af7f07d98d83a3f525b3859a53>@@AEAV<lambda_3e16ef9562a7dcce91392c22ab16ea36>@@V<lambda_38119f0e861e05405d8a144b9b982f0a>@@@?$__crt_seh_guarded_call@X@@QEAAX$$QEAV<lambda_410d79af7f07d98d83a3f525b3859a53>@@AEAV<lambda_3e16ef9562a7dcce91392c22ab16ea36>@@$$QEAV<lambda_38119f0e861e05405d8a144b9b982f0a>@@@Z 000000018002f0bc     libucrt:wsetlocale.obj
 0004:000010c8       $pdata$__acrt_uninitialize_locale 000000018002f0c8     libucrt:wsetlocale.obj
 0004:000010d4       $pdata$?initialize_inherited_file_handles_nolock@@YAXXZ 000000018002f0d4     libucrt:ioinit.obj
 0004:000010e0       $pdata$?initialize_stdio_handles_nolock@@YAXXZ 000000018002f0e0     libucrt:ioinit.obj
 0004:000010ec       $pdata$__acrt_initialize_lowio 000000018002f0ec     libucrt:ioinit.obj
 0004:000010f8       $pdata$__acrt_uninitialize_lowio 000000018002f0f8     libucrt:ioinit.obj
 0004:00001104       $pdata$__acrt_initialize_locks 000000018002f104     libucrt:locks.obj
 0004:00001110       $pdata$__acrt_uninitialize_locks 000000018002f110     libucrt:locks.obj
 0004:0000111c       $pdata$__acrt_get_developer_information_policy 000000018002f11c     libucrt:win_policies.obj
 0004:00001128       $pdata$__acrt_get_process_end_policy 000000018002f128     libucrt:win_policies.obj
 0004:00001134       $pdata$__acrt_get_windowing_model_policy 000000018002f134     libucrt:win_policies.obj
 0004:00001140       $pdata$_calloc_base        000000018002f140     libucrt:calloc_base.obj
 0004:0000114c       $pdata$??$common_expand_argv_wildcards@D@@YAHQEAPEADQEAPEAPEAD@Z 000000018002f14c     libucrt:argv_wildcards.obj
 0004:00001158       $pdata$??$copy_and_add_argument_to_buffer@D@@YAHQEBD0_KAEAV?$argument_list@D@?A0x5f5c8891@@@Z 000000018002f158     libucrt:argv_wildcards.obj
 0004:00001164       $pdata$??$expand_argument_wildcards@D@@YAHQEAD0AEAV?$argument_list@D@?A0x5f5c8891@@@Z 000000018002f164     libucrt:argv_wildcards.obj
 0004:00001170       $pdata$??$?RV<lambda_efdfa57d1f175319df784efa44bb7b81>@@AEAV<lambda_5f0a4c1567f8adc6734073e5d1e1b35c>@@V<lambda_2e8a7d3640ea6ccb4c2413664c2db6fd>@@@?$__crt_seh_guarded_call@X@@QEAAX$$QEAV<lambda_efdfa57d1f175319df784efa44bb7b81>@@AEAV<lambda_5f0a4c1567f8adc6734073e5d1e1b35c>@@$$QEAV<lambda_2e8a7d3640ea6ccb4c2413664c2db6fd>@@@Z 000000018002f170     libucrt:mbctype.obj
 0004:0000117c       $pdata$?getSystemCP@@YAHH@Z 000000018002f17c     libucrt:mbctype.obj
 0004:00001188       $pdata$?setSBCS@@YAXPEAU__crt_multibyte_data@@@Z 000000018002f188     libucrt:mbctype.obj
 0004:00001194       $pdata$?setSBUpLow@@YAXPEAU__crt_multibyte_data@@@Z 000000018002f194     libucrt:mbctype.obj
 0004:000011a0       $pdata$?setmbcp_internal@@YAHH_NQEAU__acrt_ptd@@QEAPEAU__crt_multibyte_data@@@Z 000000018002f1a0     libucrt:mbctype.obj
 0004:000011ac       $pdata$?update_thread_multibyte_data_internal@@YAPEAU__crt_multibyte_data@@QEAU__acrt_ptd@@QEAPEAU1@@Z 000000018002f1ac     libucrt:mbctype.obj
 0004:000011b8       $pdata$__acrt_initialize_multibyte 000000018002f1b8     libucrt:mbctype.obj
 0004:000011c4       $pdata$__acrt_update_thread_multibyte_data 000000018002f1c4     libucrt:mbctype.obj
 0004:000011d0       $pdata$_setmbcp_nolock     000000018002f1d0     libucrt:mbctype.obj
 0004:000011dc       $pdata$?x_ismbbtype_l@@YAHPEAU__crt_locale_pointers@@IHH@Z 000000018002f1dc     libucrt:ismbbyte.obj
 0004:000011e8       $pdata$__acrt_initialize_command_line 000000018002f1e8     libucrt:argv_data.obj
 0004:000011f4       $pdata$__acrt_WideCharToMultiByte 000000018002f1f4     libucrt:widechartomultibyte.obj
 0004:00001200       $pdata$__dcrt_get_narrow_environment_from_os 000000018002f200     libucrt:get_environment_from_os.obj
 0004:0000120c       $pdata$_recalloc_base      000000018002f20c     libucrt:recalloc.obj
 0004:00001218       $pdata$?try_get_function@@YAPEAXW4function_id@?A0x391cf84c@@QEBDQEBW4module_id@2@2@Z 000000018002f218     libucrt:winapi_thunks.obj
 0004:00001224       $pdata$__acrt_AppPolicyGetProcessTerminationMethodInternal 000000018002f224     libucrt:winapi_thunks.obj
 0004:00001230       $pdata$__acrt_AppPolicyGetShowDeveloperDiagnosticInternal 000000018002f230     libucrt:winapi_thunks.obj
 0004:0000123c       $pdata$__acrt_AppPolicyGetWindowingModelInternal 000000018002f23c     libucrt:winapi_thunks.obj
 0004:00001248       $pdata$__acrt_FlsAlloc     000000018002f248     libucrt:winapi_thunks.obj
 0004:00001254       $pdata$__acrt_FlsFree      000000018002f254     libucrt:winapi_thunks.obj
 0004:00001260       $pdata$__acrt_FlsGetValue  000000018002f260     libucrt:winapi_thunks.obj
 0004:0000126c       $pdata$__acrt_FlsSetValue  000000018002f26c     libucrt:winapi_thunks.obj
 0004:00001278       $pdata$__acrt_InitializeCriticalSectionEx 000000018002f278     libucrt:winapi_thunks.obj
 0004:00001284       $pdata$__acrt_LCMapStringEx 000000018002f284     libucrt:winapi_thunks.obj
 0004:00001290       $pdata$__acrt_LocaleNameToLCID 000000018002f290     libucrt:winapi_thunks.obj
 0004:0000129c       $pdata$__acrt_MessageBoxW  000000018002f29c     libucrt:winapi_thunks.obj
 0004:000012a8       $pdata$__acrt_can_show_message_box 000000018002f2a8     libucrt:winapi_thunks.obj
 0004:000012b4       $pdata$__acrt_get_parent_window 000000018002f2b4     libucrt:winapi_thunks.obj
 0004:000012c0       $pdata$__acrt_initialize_winapi_thunks 000000018002f2c0     libucrt:winapi_thunks.obj
 0004:000012cc       $pdata$__acrt_is_interactive 000000018002f2cc     libucrt:winapi_thunks.obj
 0004:000012d8       $pdata$__acrt_uninitialize_winapi_thunks 000000018002f2d8     libucrt:winapi_thunks.obj
 0004:000012e4       $pdata$__acrt_initialize_heap 000000018002f2e4     libucrt:heap_handle.obj
 0004:000012f0       $pdata$__acrt_execute_initializers 000000018002f2f0     libucrt:shared_initialization.obj
 0004:000012fc       $pdata$__acrt_execute_uninitializers 000000018002f2fc     libucrt:shared_initialization.obj
 0004:00001308       $pdata$__pctype_func       000000018002f308     libucrt:ctype.obj
 0004:00001314       $pdata$iswctype            000000018002f314     libucrt:iswctype.obj
 0004:00001320       $pdata$_isctype_l          000000018002f320     libucrt:isctype.obj
 0004:0000132c       $pdata$__acrt_free_locale  000000018002f32c     libucrt:locale_refcounting.obj
 0004:00001338       $pdata$__acrt_locale_free_lc_time_if_unreferenced 000000018002f338     libucrt:locale_refcounting.obj
 0004:00001344       $pdata$__acrt_release_locale_ref 000000018002f344     libucrt:locale_refcounting.obj
 0004:00001350       $pdata$__acrt_update_thread_locale_data 000000018002f350     libucrt:locale_refcounting.obj
 0004:0000135c       $pdata$_updatetlocinfoEx_nolock 000000018002f35c     libucrt:locale_refcounting.obj
 0004:00001368       $pdata$?_mbstowcs_l_helper@@YA_KPEA_WPEBD_KPEAU__crt_locale_pointers@@@Z 000000018002f368     libucrt:mbstowcs.obj
 0004:00001374       $pdata$_fcloseall          000000018002f374     libucrt:closeall.obj
 0004:00001380       $pdata$__acrt_stdio_free_buffer_nolock 000000018002f380     libucrt:_freebuf.obj
 0004:0000138c       $pdata$??$?RV<lambda_a37b2b86f63e897a80ea819b0eb08c01>@@AEAV<lambda_38ce7e780aa69e748d6df282ebc68efe>@@V<lambda_99fb1378e971ab6e7edea83e3a7a83a2>@@@?$__crt_seh_guarded_call@H@@QEAAH$$QEAV<lambda_a37b2b86f63e897a80ea819b0eb08c01>@@AEAV<lambda_38ce7e780aa69e748d6df282ebc68efe>@@$$QEAV<lambda_99fb1378e971ab6e7edea83e3a7a83a2>@@@Z 000000018002f38c     libucrt:commit.obj
 0004:00001398       $pdata$_commit             000000018002f398     libucrt:commit.obj
 0004:000013a4       $pdata$?write_double_translated_ansi_nolock@@YA?AUwrite_result@?A0x17268360@@HQEBDI@Z 000000018002f3a4     libucrt:write.obj
 0004:000013b0       $pdata$?write_text_ansi_nolock@@YA?AUwrite_result@?A0x17268360@@HQEBDI@Z 000000018002f3b0     libucrt:write.obj
 0004:000013bc       $pdata$?write_text_utf16le_nolock@@YA?AUwrite_result@?A0x17268360@@HQEBDI@Z 000000018002f3bc     libucrt:write.obj
 0004:000013c8       $pdata$?write_text_utf8_nolock@@YA?AUwrite_result@?A0x17268360@@HQEBDI@Z 000000018002f3c8     libucrt:write.obj
 0004:000013d4       $pdata$_write              000000018002f3d4     libucrt:write.obj
 0004:000013e0       $pdata$_write_nolock       000000018002f3e0     libucrt:write.obj
 0004:000013ec       $pdata$_isleadbyte_l       000000018002f3ec     libucrt:_wctype.obj
 0004:000013f8       $pdata$?__acrt_LCMapStringA_stat@@YAHPEAU__crt_locale_pointers@@PEB_WKPEBDHPEADHHH@Z 000000018002f3f8     libucrt:lcmapstringa.obj
 0004:00001404       $pdata$__acrt_LCMapStringA 000000018002f404     libucrt:lcmapstringa.obj
 0004:00001410       $pdata$?__mbrtowc_utf8@__crt_mbstring@@YA_KPEA_WPEBD_KPEAU_Mbstatet@@@Z 000000018002f410     libucrt:mbrtowc.obj
 0004:0000141c       $pdata$?__mbsrtowcs_utf8@__crt_mbstring@@YA_KPEA_WPEAPEBD_KPEAU_Mbstatet@@@Z 000000018002f41c     libucrt:mbrtowc.obj
 0004:00001428       $pdata$__acrt_fp_strflt_to_string 000000018002f428     libucrt:_fptostr.obj
 0004:00001434       $pdata$?divide@__crt_strtox@@YA_KAEAUbig_integer@1@AEBU21@@Z 000000018002f434     libucrt:cfout.obj
 0004:00001440       $pdata$0$?divide@__crt_strtox@@YA_KAEAUbig_integer@1@AEBU21@@Z 000000018002f440     libucrt:cfout.obj
 0004:0000144c       $pdata$6$?divide@__crt_strtox@@YA_KAEAUbig_integer@1@AEBU21@@Z 000000018002f44c     libucrt:cfout.obj
 0004:00001458       $pdata$7$?divide@__crt_strtox@@YA_KAEAUbig_integer@1@AEBU21@@Z 000000018002f458     libucrt:cfout.obj
 0004:00001464       $pdata$8$?divide@__crt_strtox@@YA_KAEAUbig_integer@1@AEBU21@@Z 000000018002f464     libucrt:cfout.obj
 0004:00001470       $pdata$__acrt_fltout       000000018002f470     libucrt:cfout.obj
 0004:0000147c       $pdata$memcpy_s            000000018002f47c     libucrt:cfout.obj
 0004:00001488       $pdata$??$write_buffer_nolock@D@@YA_NDV__crt_stdio_stream@@@Z 000000018002f488     libucrt:_flsbuf.obj
 0004:00001494       $pdata$??$write_buffer_nolock@_W@@YA_N_WV__crt_stdio_stream@@@Z 000000018002f494     libucrt:_flsbuf.obj
 0004:000014a0       $pdata$__acrt_stdio_flush_and_write_narrow_nolock 000000018002f4a0     libucrt:_flsbuf.obj
 0004:000014ac       $pdata$__acrt_stdio_flush_and_write_wide_nolock 000000018002f4ac     libucrt:_flsbuf.obj
 0004:000014b8       $pdata$_isatty             000000018002f4b8     libucrt:isatty.obj
 0004:000014c4       $pdata$__acrt_locale_free_monetary 000000018002f4c4     libucrt:initmon.obj
 0004:000014d0       $pdata$__acrt_locale_free_numeric 000000018002f4d0     libucrt:initnum.obj
 0004:000014dc       $pdata$?free_crt_array_internal@@YAXQEAPEBX_K@Z 000000018002f4dc     libucrt:inittime.obj
 0004:000014e8       $pdata$__acrt_locale_free_time 000000018002f4e8     libucrt:inittime.obj
 0004:000014f4       $pdata$__acrt_GetStringTypeA 000000018002f4f4     libucrt:getstringtypea.obj
 0004:00001500       $pdata$__acrt_lowio_create_handle_array 000000018002f500     libucrt:osfinfo.obj
 0004:0000150c       $pdata$__acrt_lowio_destroy_handle_array 000000018002f50c     libucrt:osfinfo.obj
 0004:00001518       $pdata$__acrt_lowio_ensure_fh_exists 000000018002f518     libucrt:osfinfo.obj
 0004:00001524       $pdata$_free_osfhnd        000000018002f524     libucrt:osfinfo.obj
 0004:00001530       $pdata$_get_osfhandle      000000018002f530     libucrt:osfinfo.obj
 0004:0000153c       $pdata$qsort               000000018002f53c     libucrt:qsort.obj
 0004:00001548       $pdata$4$qsort             000000018002f548     libucrt:qsort.obj
 0004:00001554       $pdata$5$qsort             000000018002f554     libucrt:qsort.obj
 0004:00001560       $pdata$strncpy_s           000000018002f560     libucrt:strncpy_s.obj
 0004:0000156c       $pdata$fallbackMethod      000000018002f56c     libucrt:strpbrk.obj
 0004:00001578       $pdata$strpbrk             000000018002f578     libucrt:strpbrk.obj
 0004:00001584       $pdata$??$__acrt_convert_wcs_mbs@D_W$$A6A_KPEA_WPEBD_KPEAU__crt_locale_pointers@@@ZU__crt_win32_buffer_internal_dynamic_resizing@@@@YAHQEBDAEAV?$__crt_win32_buffer@_WU__crt_win32_buffer_internal_dynamic_resizing@@@@A6A_KPEA_WPEBD_KPEAU__crt_locale_pointers@@@Z5@Z 000000018002f584     libucrt:findfirstfileexa.obj
 0004:00001590       $pdata$__acrt_FindFirstFileExA 000000018002f590     libucrt:findfirstfileexa.obj
 0004:0000159c       $pdata$??$__acrt_convert_wcs_mbs@_WD$$A6A_KPEADPEB_W_KPEAU__crt_locale_pointers@@@ZU__crt_win32_buffer_no_resizing@@@@YAHQEB_WAEAV?$__crt_win32_buffer@DU__crt_win32_buffer_no_resizing@@@@A6A_KPEADPEB_W_KPEAU__crt_locale_pointers@@@Z5@Z 000000018002f59c     libucrt:findnextfilea.obj
 0004:000015a8       $pdata$__acrt_FindNextFileA 000000018002f5a8     libucrt:findnextfilea.obj
 0004:000015b4       $pdata$_mbsdec_l           000000018002f5b4     libucrt:mbsdec.obj
 0004:000015c0       $pdata$?initialize_multibyte@@YAHXZ 000000018002f5c0     libucrt:multibyte_initializer.obj
 0004:000015cc       $pdata$_msize_base         000000018002f5cc     libucrt:msize.obj
 0004:000015d8       $pdata$_realloc_base       000000018002f5d8     libucrt:realloc_base.obj
 0004:000015e4       $pdata$?GetTableIndexFromLocaleName@@YAHPEB_W@Z 000000018002f5e4     libucrt:lcidtoname_downlevel.obj
 0004:000015f0       $pdata$__acrt_DownlevelLocaleNameToLCID 000000018002f5f0     libucrt:lcidtoname_downlevel.obj
 0004:000015fc       $pdata$_fclose_nolock      000000018002f5fc     libucrt:fclose.obj
 0004:00001608       $pdata$fclose              000000018002f608     libucrt:fclose.obj
 0004:00001614       $pdata$??$common_lseek@_J@@YA_JH_JH@Z 000000018002f614     libucrt:lseek.obj
 0004:00001620       $pdata$??$common_lseek_nolock@_J@@YA_JH_JH@Z 000000018002f620     libucrt:lseek.obj
 0004:0000162c       $pdata$_putwch_nolock      000000018002f62c     libucrt:putwch.obj
 0004:00001638       $pdata$?__mbrtoc32_utf8@__crt_mbstring@@YA_KPEA_UPEBD_KPEAU_Mbstatet@@@Z 000000018002f638     libucrt:mbrtoc32.obj
 0004:00001644       $pdata$fegetenv            000000018002f644     libucrt:fegetenv.obj
 0004:00001650       $pdata$fesetenv            000000018002f650     libucrt:fesetenv.obj
 0004:0000165c       $pdata$feholdexcept        000000018002f65c     libucrt:feholdexcept.obj
 0004:00001674       $pdata$__acrt_stdio_allocate_buffer_nolock 000000018002f674     libucrt:_getbuf.obj
 0004:00001680       $pdata$?_wcstombs_l_helper@@YA_KPEADPEB_W_KPEAU__crt_locale_pointers@@@Z 000000018002f680     libucrt:wcstombs.obj
 0004:0000168c       $pdata$??$?RV<lambda_751a882b2c74d4b022dec766aa51a29a>@@AEAV<lambda_628dfdc04ba53c8bfc02c9951375f3f5>@@V<lambda_f6c7be5f7998530c34de24c7437d6b54>@@@?$__crt_seh_guarded_call@H@@QEAAH$$QEAV<lambda_751a882b2c74d4b022dec766aa51a29a>@@AEAV<lambda_628dfdc04ba53c8bfc02c9951375f3f5>@@$$QEAV<lambda_f6c7be5f7998530c34de24c7437d6b54>@@@Z 000000018002f68c     libucrt:close.obj
 0004:00001698       $pdata$_close              000000018002f698     libucrt:close.obj
 0004:000016a4       $pdata$_close_nolock       000000018002f6a4     libucrt:close.obj
 0004:000016b0       $pdata$__dcrt_lowio_ensure_console_output_initialized 000000018002f6b0     libucrt:initcon.obj
 0004:000016bc       $pdata$__dcrt_terminate_console_output 000000018002f6bc     libucrt:initcon.obj
 0004:000016c8       $pdata$__dcrt_write_console 000000018002f6c8     libucrt:initcon.obj
 0004:000016d4       $pdata$__acrt_fenv_set_control 000000018002f6d4     libucrt:_fenvutils.obj
 0004:000016e0       $pdata$_clearfp            000000018002f6e0     libucrt:ieee.obj
 0004:000016ec       $pdata$_call_matherr       000000018002f6ec     libucrt:libm_error.obj
 0004:000016f8       $pdata$_exception_enabled  000000018002f6f8     libucrt:libm_error.obj
 0004:00001704       $pdata$_handle_error       000000018002f704     libucrt:libm_error.obj
 0004:00001710       $pdata$__acrt_initialize_fma3 000000018002f710     libucrt:fma3_available.obj
 0004:0000171c       $pdata$_log10_special      000000018002f71c     libucrt:log_special.obj
 0004:00001728       $pdata$_log_special_common 000000018002f728     libucrt:log_special.obj
 0004:00001734       $pdata$?__wcsrtombs_utf8@__crt_mbstring@@YA_KPEADPEAPEB_W_KPEAU_Mbstatet@@@Z 000000018002f734     libucrt:wcrtomb.obj
 0004:0000174c       $pdata$_raise_exc          000000018002f74c     libucrt:fpexcept.obj
 0004:00001758       $pdata$_raise_exc_ex       000000018002f758     libucrt:fpexcept.obj
 0004:00001764       $pdata$_set_errno_from_matherr 000000018002f764     libucrt:fpexcept.obj
 0004:00001770       $pdata$_clrfp              000000018002f770     libucrt:fpctrl.obj
 0004:0000177c       $pdata$_ctrlfp             000000018002f77c     libucrt:fpctrl.obj
 0004:00001788       $pdata$_set_statfp         000000018002f788     libucrt:fpctrl.obj
 0004:00001794       $pdata$_statfp             000000018002f794     libucrt:fpctrl.obj
 0004:000017a0       $pdata$?__c16rtomb_utf8@__crt_mbstring@@YA_KPEAD_SPEAU_Mbstatet@@@Z 000000018002f7a0     libucrt:c16rtomb.obj
 0004:000017ac       $pdata$?__c32rtomb_utf8@__crt_mbstring@@YA_KPEAD_UPEAU_Mbstatet@@@Z 000000018002f7ac     libucrt:c32rtomb.obj
 0004:000017b8       $pdata$_IsNonwritableInCurrentImage 000000018002f7b8     LIBCMT:pesect.obj
 0004:000017c4       $pdata$__GSHandlerCheck    000000018002f7c4     LIBCMT:_gshandler_.obj
 0004:000017d0       $pdata$__GSHandlerCheckCommon 000000018002f7d0     LIBCMT:_gshandler_.obj
 0004:000017dc       $pdata$__GSHandlerCheck_EH 000000018002f7dc     LIBCMT:gshandlereh.obj
 0004:000017e8       $pdata$strrchr             000000018002f7e8     libvcruntime:strrchr.obj
 0004:0000180c       $pdata$__scrt_is_nonwritable_in_current_image$filt$0 000000018002f80c     LIBCMT:utility.obj
 0004:00001818       $pdata$?fin$0@?0??dllmain_crt_process_attach@@YAHQEAUHINSTANCE__@@QEAX@Z@4HA 000000018002f818     LIBCMT:dll_dllmain.obj
 0004:00001824       $pdata$?fin$0@?0??dllmain_crt_process_detach@@YAH_N@Z@4HA 000000018002f824     LIBCMT:dll_dllmain.obj
 0004:00001830       $pdata$?filt$0@?0??dllmain_dispatch@@YAHQEAUHINSTANCE__@@KQEAX@Z@4HA 000000018002f830     LIBCMT:dll_dllmain.obj
 0004:0000183c       $pdata$_CallSETranslator$filt$0 000000018002f83c     libvcruntime:risctrnsctrl.obj
 0004:00001848       $pdata$__CxxCallCatchBlock$filt$0 000000018002f848     libvcruntime:frame.obj
 0004:00001854       $pdata$__CxxCallCatchBlock$fin$1 000000018002f854     libvcruntime:frame.obj
 0004:00001860       $pdata$__FrameUnwindToState$filt$0 000000018002f860     libvcruntime:frame.obj
 0004:0000186c       $pdata$__FrameUnwindToState$fin$1 000000018002f86c     libvcruntime:frame.obj
 0004:00001878       $pdata$__DestructExceptionObject$filt$0 000000018002f878     libvcruntime:ehhelpers.obj
 0004:00001884       $pdata$?fin$0@?0???$?RV<lambda_c376a267cfb53b6959b3b692ec76b120>@@AEAV<lambda_9a32fed5bf61b6b509b2d3f6003082a1>@@V<lambda_572fbb9fa0ab338edf41edfd4b5fcc8d>@@@?$__crt_seh_guarded_call@H@@QEAAH$$QEAV<lambda_c376a267cfb53b6959b3b692ec76b120>@@AEAV<lambda_9a32fed5bf61b6b509b2d3f6003082a1>@@$$QEAV<lambda_572fbb9fa0ab338edf41edfd4b5fcc8d>@@@Z@4HA 000000018002f884     libucrt:fflush.obj
 0004:00001884       $pdata$?fin$0@?0???$?RV<lambda_842d9ff0dc9ef11c61343bbaebe7f885>@@AEAV<lambda_c5860995281e5c4ce005b3de8f5874ee>@@V<lambda_d90129c13df834fdcbf8d2b88dafcf2d>@@@?$__crt_seh_guarded_call@X@@QEAAX$$QEAV<lambda_842d9ff0dc9ef11c61343bbaebe7f885>@@AEAV<lambda_c5860995281e5c4ce005b3de8f5874ee>@@$$QEAV<lambda_d90129c13df834fdcbf8d2b88dafcf2d>@@@Z@4HA 000000018002f884     libucrt:fflush.obj
 0004:00001884       $pdata$?fin$0@?0???$?RV<lambda_84ec643ea9557e2f7dc01bb0e9624395>@@AEAV<lambda_ca71763b3c0644891230e4f79ea54fa6>@@V<lambda_439a761618c59b0600e24586724d733b>@@@?$__crt_seh_guarded_call@H@@QEAAH$$QEAV<lambda_84ec643ea9557e2f7dc01bb0e9624395>@@AEAV<lambda_ca71763b3c0644891230e4f79ea54fa6>@@$$QEAV<lambda_439a761618c59b0600e24586724d733b>@@@Z@4HA 000000018002f884     libucrt:setvbuf.obj
 0004:00001884       $pdata$?fin$0@?0???$?RV<lambda_0d412022a4b28cc8a401ea49574e8ae6>@@AEAV<lambda_a775ed57af18ba8e4d5dc780aa9068fe>@@V<lambda_975a71a6baa488a08f4e15f6b0339b9e>@@@?$__crt_seh_guarded_call@H@@QEAAH$$QEAV<lambda_0d412022a4b28cc8a401ea49574e8ae6>@@AEAV<lambda_a775ed57af18ba8e4d5dc780aa9068fe>@@$$QEAV<lambda_975a71a6baa488a08f4e15f6b0339b9e>@@@Z@4HA 000000018002f884     libucrt:output.obj
 0004:00001890       $pdata$_query_new_handler$fin$0 000000018002f890     libucrt:new_handler.obj
 0004:0000189c       $pdata$?fin$0@?0???$?RV<lambda_7777bce6b2f8c936911f934f8298dc43>@@AEAV<lambda_f03950bc5685219e0bcd2087efbe011e>@@V<lambda_3883c3dff614d5e0c5f61bb1ac94921c>@@@?$__crt_seh_guarded_call@H@@QEAAH$$QEAV<lambda_7777bce6b2f8c936911f934f8298dc43>@@AEAV<lambda_f03950bc5685219e0bcd2087efbe011e>@@$$QEAV<lambda_3883c3dff614d5e0c5f61bb1ac94921c>@@@Z@4HA 000000018002f89c     libucrt:onexit.obj
 0004:0000189c       $pdata$?fin$0@?0???$?RV<lambda_f2e299630e499de9f9a165e60fcd3db5>@@AEAV<lambda_2ae9d31cdba2644fcbeaf08da7c24588>@@V<lambda_40d01ff24d0e7b3814fdbdcee8eab3c7>@@@?$__crt_seh_guarded_call@X@@QEAAX$$QEAV<lambda_f2e299630e499de9f9a165e60fcd3db5>@@AEAV<lambda_2ae9d31cdba2644fcbeaf08da7c24588>@@$$QEAV<lambda_40d01ff24d0e7b3814fdbdcee8eab3c7>@@@Z@4HA 000000018002f89c     libucrt:per_thread_data.obj
 0004:0000189c       $pdata$?fin$0@?0???$?RV<lambda_aa87e3671a710a21b5dc78c0bdf72e11>@@AEAV<lambda_92619d2358a28f41a33ba319515a20b9>@@V<lambda_6992ecaafeb10aed2b74cb1fae11a551>@@@?$__crt_seh_guarded_call@X@@QEAAX$$QEAV<lambda_aa87e3671a710a21b5dc78c0bdf72e11>@@AEAV<lambda_92619d2358a28f41a33ba319515a20b9>@@$$QEAV<lambda_6992ecaafeb10aed2b74cb1fae11a551>@@@Z@4HA 000000018002f89c     libucrt:per_thread_data.obj
 0004:0000189c       $pdata$?fin$0@?0???$?RV<lambda_d80eeec6fff315bfe5c115232f3240e3>@@AEAV<lambda_6e4b09c48022b2350581041d5f6b0c4c>@@V<lambda_2358e3775559c9db80273638284d5e45>@@@?$__crt_seh_guarded_call@X@@QEAAX$$QEAV<lambda_d80eeec6fff315bfe5c115232f3240e3>@@AEAV<lambda_6e4b09c48022b2350581041d5f6b0c4c>@@$$QEAV<lambda_2358e3775559c9db80273638284d5e45>@@@Z@4HA 000000018002f89c     libucrt:exit.obj
 0004:0000189c       $pdata$?fin$0@?0???$?RV<lambda_8369fcb7c4df1e85de37618bd2b85f07>@@AEAV<lambda_a10e4b102d4a2c3aac6f4f48bbdf488f>@@V<lambda_5b7707bd6d7a0c4713179f36c7fd995d>@@@?$__crt_seh_guarded_call@H@@QEAAH$$QEAV<lambda_8369fcb7c4df1e85de37618bd2b85f07>@@AEAV<lambda_a10e4b102d4a2c3aac6f4f48bbdf488f>@@$$QEAV<lambda_5b7707bd6d7a0c4713179f36c7fd995d>@@@Z@4HA 000000018002f89c     libucrt:onexit.obj
 0004:0000189c       $pdata$?fin$0@?0???$?RV<lambda_2d41944a1d46af3157314b8a01080d33>@@AEAV<lambda_8f455de75cd7d7f24b4096f044d8b9e6>@@V<lambda_aa500f224e6afead328df44964fe2772>@@@?$__crt_seh_guarded_call@X@@QEAAX$$QEAV<lambda_2d41944a1d46af3157314b8a01080d33>@@AEAV<lambda_8f455de75cd7d7f24b4096f044d8b9e6>@@$$QEAV<lambda_aa500f224e6afead328df44964fe2772>@@@Z@4HA 000000018002f89c     libucrt:per_thread_data.obj
 0004:0000189c       $pdata$?fin$0@?0???$?RV<lambda_efdfa57d1f175319df784efa44bb7b81>@@AEAV<lambda_5f0a4c1567f8adc6734073e5d1e1b35c>@@V<lambda_2e8a7d3640ea6ccb4c2413664c2db6fd>@@@?$__crt_seh_guarded_call@X@@QEAAX$$QEAV<lambda_efdfa57d1f175319df784efa44bb7b81>@@AEAV<lambda_5f0a4c1567f8adc6734073e5d1e1b35c>@@$$QEAV<lambda_2e8a7d3640ea6ccb4c2413664c2db6fd>@@@Z@4HA 000000018002f89c     libucrt:mbctype.obj
 0004:0000189c       $pdata$?fin$0@?0???$?RV<lambda_0ae27a3a962d80f24befdcbee591983d>@@AEAV<lambda_8d0ee55de4b1038c4002e0adecdf1839>@@V<lambda_dc504788e8f1664fe9b84e20bfb512f2>@@@?$__crt_seh_guarded_call@X@@QEAAX$$QEAV<lambda_0ae27a3a962d80f24befdcbee591983d>@@AEAV<lambda_8d0ee55de4b1038c4002e0adecdf1839>@@$$QEAV<lambda_dc504788e8f1664fe9b84e20bfb512f2>@@@Z@4HA 000000018002f89c     libucrt:per_thread_data.obj
 0004:0000189c       $pdata$?fin$0@?0???$?RV<lambda_450d765d439847d4c735a33c368b5fc0>@@AEAV<lambda_44731a7d0e6d81c3e6aa82d741081786>@@V<lambda_601a2a7da3b7a96e9554ac7215c4b07c>@@@?$__crt_seh_guarded_call@P6AXH@Z@@QEAAP6AXH@Z$$QEAV<lambda_450d765d439847d4c735a33c368b5fc0>@@AEAV<lambda_44731a7d0e6d81c3e6aa82d741081786>@@$$QEAV<lambda_601a2a7da3b7a96e9554ac7215c4b07c>@@@Z@4HA 000000018002f89c     libucrt:signal.obj
 0004:000018a8       $pdata$?filt$0@?0???R<lambda_6e4b09c48022b2350581041d5f6b0c4c>@@QEBA@XZ@4HA 000000018002f8a8     libucrt:exit.obj
 0004:000018b4       $pdata$?fin$0@?0???$?RV<lambda_886d6c58226a84441f68b9f2b8217b83>@@AEAV<lambda_ab61a845afdef5b7c387490eaf3616ee>@@V<lambda_f7f22ab5edc0698d5f6905b0d3f44752>@@@?$__crt_seh_guarded_call@X@@QEAAX$$QEAV<lambda_886d6c58226a84441f68b9f2b8217b83>@@AEAV<lambda_ab61a845afdef5b7c387490eaf3616ee>@@$$QEAV<lambda_f7f22ab5edc0698d5f6905b0d3f44752>@@@Z@4HA 000000018002f8b4     libucrt:fflush.obj
 0004:000018c0       $pdata$raise$fin$0         000000018002f8c0     libucrt:signal.obj
 0004:000018cc       $pdata$?fin$0@?0???$?RV<lambda_410d79af7f07d98d83a3f525b3859a53>@@AEAV<lambda_3e16ef9562a7dcce91392c22ab16ea36>@@V<lambda_38119f0e861e05405d8a144b9b982f0a>@@@?$__crt_seh_guarded_call@X@@QEAAX$$QEAV<lambda_410d79af7f07d98d83a3f525b3859a53>@@AEAV<lambda_3e16ef9562a7dcce91392c22ab16ea36>@@$$QEAV<lambda_38119f0e861e05405d8a144b9b982f0a>@@@Z@4HA 000000018002f8cc     libucrt:wsetlocale.obj
 0004:000018d8       $pdata$__acrt_initialize_lowio$fin$0 000000018002f8d8     libucrt:ioinit.obj
 0004:000018d8       $pdata$__acrt_lowio_ensure_fh_exists$fin$0 000000018002f8d8     libucrt:osfinfo.obj
 0004:000018e4       $pdata$?fin$0@?0??update_thread_multibyte_data_internal@@YAPEAU__crt_multibyte_data@@QEAU__acrt_ptd@@QEAPEAU1@@Z@4HA 000000018002f8e4     libucrt:mbctype.obj
 0004:000018f0       $pdata$__acrt_update_thread_locale_data$fin$0 000000018002f8f0     libucrt:locale_refcounting.obj
 0004:000018fc       $pdata$_fcloseall$fin$0    000000018002f8fc     libucrt:closeall.obj
 0004:00001908       $pdata$?fin$0@?0???$?RV<lambda_751a882b2c74d4b022dec766aa51a29a>@@AEAV<lambda_628dfdc04ba53c8bfc02c9951375f3f5>@@V<lambda_f6c7be5f7998530c34de24c7437d6b54>@@@?$__crt_seh_guarded_call@H@@QEAAH$$QEAV<lambda_751a882b2c74d4b022dec766aa51a29a>@@AEAV<lambda_628dfdc04ba53c8bfc02c9951375f3f5>@@$$QEAV<lambda_f6c7be5f7998530c34de24c7437d6b54>@@@Z@4HA 000000018002f908     libucrt:close.obj
 0004:00001908       $pdata$?fin$0@?0???$?RV<lambda_a37b2b86f63e897a80ea819b0eb08c01>@@AEAV<lambda_38ce7e780aa69e748d6df282ebc68efe>@@V<lambda_99fb1378e971ab6e7edea83e3a7a83a2>@@@?$__crt_seh_guarded_call@H@@QEAAH$$QEAV<lambda_a37b2b86f63e897a80ea819b0eb08c01>@@AEAV<lambda_38ce7e780aa69e748d6df282ebc68efe>@@$$QEAV<lambda_99fb1378e971ab6e7edea83e3a7a83a2>@@@Z@4HA 000000018002f908     libucrt:commit.obj
 0004:00001914       $pdata$?fin$0@?0???$common_lseek@_J@@YA_JH_JH@Z@4HA 000000018002f914     libucrt:lseek.obj
 0004:00001914       $pdata$_write$fin$0        000000018002f914     libucrt:write.obj
 0004:00001920       $pdata$fclose$fin$0        000000018002f920     libucrt:fclose.obj
 0004:0000192c       $pdata$_ctrlfp$filt$0      000000018002f92c     libucrt:fpctrl.obj
 0004:00001938       $pdata$_IsNonwritableInCurrentImage$filt$0 000000018002f938     LIBCMT:pesect.obj
 0004:00001944       $pdata$??__F?g_queue@CallbackInfo@@0V?$queue@PEAVThreadedCallbackInvokation@@V?$deque@PEAVThreadedCallbackInvokation@@V?$allocator@PEAVThreadedCallbackInvokation@@@std@@@std@@@std@@A@@YAXXZ 000000018002f944     callback_info.obj
 0005:00000060       $R000000                   0000000180030060     * linker generated manifest res *

 Exports

  ordinal    name

        1    _register_ffi_bindings_
